(dp0
V
p1
(lp2
VTrees
p3
asVpersonal effects
p4
(lp5
VAirport Departure and Arrival
p6
asVtime difference
p7
(lp8
g6
asVyellow
p9
(lp10
VThe Basic Colors
p11
asVfour
p12
(lp13
VNumbers 1-10
p14
aVNumbers 1-20
p15
asVwoods
p16
(lp17
VGeography
p18
aVGeographic Features
p19
asVpreface
p20
(lp21
VParts of a Book
p22
asVcentimeter
p23
(lp24
VMeasurements
p25
asVsports car
p26
(lp27
VVehicles
p28
asS'text message'
p29
(lp30
VTelephone
p31
asVswan
p32
(lp33
VAnimals
p34
aVBirds
p35
aVBirds
p36
asVcigarette butt
p37
(lp38
VSmoking
p39
asVtrousers
p40
(lp41
VClothes and Things We Wear
p42
asS'shaving'
p43
(lp44
VShaving
p45
asVmetal lath
p46
(lp47
VBuilding Material
p48
aVBuilding Material
p49
asVmarimba
p50
(lp51
VMusical Instruments
p52
aVPercussion Instruments
p53
asVpropane
p54
(lp55
VGases
p56
asVblanket
p57
(lp58
VHouse
p59
aVHouse
p60
asVback teeth
p61
(lp62
VHuman Teeth
p63
asVgray hair
p64
(lp65
VHair Types
p66
asVevery
p67
(lp68
VAdverbs of Quantity
p69
asVchocolate cake
p70
(lp71
VDesserts
p72
aVDesserts
p73
asVstep-son
p74
(lp75
VRelatives
p76
asVevery hour
p77
(lp78
VFrequency Words and Phrases
p79
asVfireplace
p80
(lp81
g60
aVWinter 
p82
asVsleet
p83
(lp84
VWeather
p85
asVschool
p86
(lp87
VBuildings & Places
p88
aVClassroom
p89
aVSchool Rooms and Places
p90
aVTypes of Schools
p91
asVparrot
p92
(lp93
g34
asVmany times
p94
(lp95
VAdverbs of Time
p96
ag79
asVsamurai
p97
(lp98
VCastles
p99
aVCastles
p100
asVnursery
p101
(lp102
g91
asVgoodbye party
p103
(lp104
VParty Names
p105
aVParty Names
p106
asVpoppy
p107
(lp108
VFlowers
p109
asVSouth Korea
p110
(lp111
VLargest Countries in Population (1-25)
p112
aVCountries with the Largest Armed Forces (2004)
p113
asS'clothes'
p114
(lp115
g42
aVMen's Clothes
p116
aVHeadgear
p117
aVNatural Materials Used in Clothes
p118
aVUnderwear
p119
aVMen's Clothes
p120
aVUnderwear
p121
asVchew
p122
(lp123
VDental Care
p124
asVpaperback
p125
(lp126
VTypes of Books
p127
asVbicycle
p128
(lp129
VTransportation
p130
aVLand Transportation
p131
ag28
asVbacon
p132
(lp133
VCatering
p134
aVMeat
p135
asVscraper
p136
(lp137
g52
ag53
asVrib joint pliers
p138
(lp139
VCarpentry Tools
p140
asVhorn
p141
(lp142
VCar Parts (American English Version)
p143
aVCar Parts (American English Version)
p144
aVMusic
p145
asVchef
p146
(lp147
VJobs and Occupations
p148
aVJobs and Occupations
p149
asVhandball
p150
(lp151
VSports
p152
aVOlympic Sports
p153
aVSports Played with a Ball
p154
asVsecond
p155
(lp156
VMeasuring Time
p157
asVstreet
p158
(lp159
VDowntown
p160
asVkinky hair
p161
(lp162
g66
asVpanda
p163
(lp164
VAnimals
p165
ag34
aVAnimals in a Zoo
p166
asVbrake lever
p167
(lp168
VBicycle Parts
p169
asVblue
p170
(lp171
g11
asVtooth fairy
p172
(lp173
g124
asVdictionary
p174
(lp175
g89
ag127
asVthunder
p176
(lp177
g85
asS'cooking'
p178
(lp179
VCooking
p180
ag134
asVUnited States of America
p181
(lp182
g113
asVfingers
p183
(lp184
VBody
p185
aVParts of the Body - Level 1 Words
p186
aVParts of the Body
p187
aVHuman Body
p188
asVinterntional call
p189
(lp190
g31
asVyurt
p191
(lp192
VTypes of Houses
p193
asVbarometer
p194
(lp195
g85
asVbrown bread
p196
(lp197
VBreads
p198
aVBreads
p199
asVVeterans Day
p200
(lp201
VHolidays
p202
asVreporter
p203
(lp204
VNewspaper
p205
asVpancakes
p206
(lp207
g198
aVFood
p208
ag199
asVnever
p209
(lp210
VAdverbs of Time
p211
ag96
aVAdverbs Which Usually Come Before the Verb
p212
ag79
asVjasmine
p213
(lp214
g109
asVherd
p215
(lp216
VCowboys
p217
asVbookcase
p218
(lp219
g89
ag59
ag60
aVFurniture in a House
p220
aVFurniture in a House
p221
asVFather's Day party
p222
(lp223
g105
ag106
asVburgle
p224
(lp225
VCrime Verbs
p226
asVcardboard
p227
(lp228
VMaterials
p229
asVpancreas
p230
(lp231
VInternal Organs
p232
asVdry
p233
(lp234
g85
asVdaughter
p235
(lp236
VFamily Members
p237
aVFamily Members
p238
ag76
asVLabrador
p239
(lp240
VDog Breeds
p241
asS'luggage'
p242
(lp243
VLuggage
p244
asVbroad beans
p245
(lp246
VSeed Vegetables
p247
asVTuesday
p248
(lp249
VDays of the Week
p250
asVGerman Shepherd
p251
(lp252
g241
asVcredit
p253
(lp254
VBank
p255
asVjogging
p256
(lp257
g152
asVdouble bass
p258
(lp259
VSymphony Orchestra Instruments
p260
asVsmoke
p261
(lp262
g39
ag39
asVpunishment
p263
(lp264
VJustice System
p265
asVmany years ago
p266
(lp267
g96
asVvinyl
p268
(lp269
g229
asVeyebrows
p270
(lp271
g185
asVslices
p272
(lp273
g134
asVstraw
p274
(lp275
g118
asVcylinder
p276
(lp277
VShapes
p278
asVhandlebar
p279
(lp280
g169
asS'landscape'
p281
(lp282
g18
asS'meaty'
p283
(lp284
VCuts of Beef
p285
asVplow
p286
(lp287
VGardening Verbs
p288
asS'creepy crawly'
p289
(lp290
VInsects
p291
asValligator
p292
(lp293
g165
ag34
ag166
asVbrown rice
p294
(lp295
VGrains
p296
asVhospital
p297
(lp298
g88
aVBuildings in the City
p299
aVInjuries
p300
aVAches and Pains
p301
asVcoins
p302
(lp303
g255
asVJune
p304
(lp305
VMonths
p306
asVstep-mother
p307
(lp308
g76
asVairbus
p309
(lp310
VAircraft
p311
asS'music'
p312
(lp313
g145
ag52
aVBrass Instruments
p314
ag53
aVWoodwind Instruments
p315
ag260
asVpassport
p316
(lp317
g6
asVblueberry
p318
(lp319
VFruit
p320
asVcalf
p321
(lp322
VFarm Animals
p323
aVFarm Animals
p324
asVamount due
p325
(lp326
VPaying Bills
p327
asVthird finger
p328
(lp329
VParts of the Hand
p330
asVmovie theater
p331
(lp332
g88
ag299
asVglass
p333
(lp334
VDinner Table
p335
ag134
ag60
ag229
asVwarm
p336
(lp337
VWeather
p338
ag85
aVWeather
p339
asVroom
p340
(lp341
g59
ag60
aVRooms and Places in a House
p342
asVparing knife
p343
(lp344
VKitchen Knives
p345
asVblade
p346
(lp347
g285
asVroof
p348
(lp349
g59
ag60
asVera
p350
(lp351
g157
asVColombia
p352
(lp353
VLargest Countries in Population (26-50)
p354
asVelbow
p355
(lp356
g187
asVcrackers
p357
(lp358
g198
ag199
asVmotorcycle racing
p359
(lp360
g152
asVluggage carrier
p361
(lp362
g244
asVpolice station
p363
(lp364
g160
asS'thirsty'
p365
(lp366
VDrinks and Beverages
p367
asVtechnical school
p368
(lp369
g91
asVtraining shoes
p370
(lp371
VShoes and Footwear
p372
asVdolphin
p373
(lp374
g165
ag34
asVbroken bone
p375
(lp376
g300
asS'paparazzi'
p377
(lp378
g205
asVcurrency
p379
(lp380
g255
asVrainy season
p381
(lp382
g85
asVgreen beans
p383
(lp384
g247
asVcaution
p385
(lp386
g265
asVviolin
p387
(lp388
g145
ag52
ag260
asVhoe
p389
(lp390
VGarden Tools
p391
ag288
asVdimple
p392
(lp393
VHead
p394
asS'travel'
p395
(lp396
g130
asVnuts
p397
(lp398
VFood Pyramid
p399
asVfeature
p400
(lp401
g205
asVrhinoceros
p402
(lp403
g34
ag166
asVhot
p404
(lp405
g338
ag85
ag339
asVcheetah
p406
(lp407
g165
ag34
ag166
asVbeach
p408
(lp409
g18
ag19
asVmoney exchange
p410
(lp411
VHotel
p412
asVfever
p413
(lp414
g301
asVswimming lane
p415
(lp416
VSwimming
p417
asVptarmigan
p418
(lp419
g35
ag36
asVafter
p420
(lp421
g211
ag96
asVlump
p422
(lp423
g300
asVcustoms
p424
(lp425
g6
asVmillimeter
p426
(lp427
g25
asVthousand island
p428
(lp429
VSalad Dressing
p430
aVSalad Dressing
p431
asVGreat Dane
p432
(lp433
g241
asVpresident
p434
(lp435
VPeople in Education
p436
asVcell phone
p437
(lp438
g157
ag31
asVex-wife
p439
(lp440
g76
asVTiger Rattlesnake
p441
(lp442
VRattlesnakes
p443
asVcroissant
p444
(lp445
g198
ag208
ag199
asVextra bed
p446
(lp447
g412
asVprincipal's room
p448
(lp449
g90
asVtulip
p450
(lp451
g109
asVgreen
p452
(lp453
g11
asVscarf
p454
(lp455
g42
ag117
ag82
aVHeadgear
p456
asVambulance
p457
(lp458
g28
asVplumbing
p459
(lp460
g60
asVplasterboard
p461
(lp462
g48
ag49
asVorder
p463
(lp464
VRestaurant
p465
aVRestaurant
p466
asVwind
p467
(lp468
g85
asVwine
p469
(lp470
g134
aVDrinks and Beverages
p471
ag367
asVoffice
p472
(lp473
g342
ag90
asVpelican
p474
(lp475
g34
ag35
ag36
asVGrand Canyon Rattlesnake
p476
(lp477
g443
asVmuffin
p478
(lp479
VDesserts
p480
ag72
ag73
asVcancelled stamp
p481
(lp482
VPost Office
p483
asVdeparture time
p484
(lp485
g6
asVstrangle
p486
(lp487
g226
asVwindshield
p488
(lp489
g143
ag144
aVOutside of a Car
p490
asVbefore
p491
(lp492
g211
ag96
asVfir
p493
(lp494
g3
asVharmonica
p495
(lp496
g145
ag52
asVcorporal punishment
p497
(lp498
g265
asS'writing'
p499
(lp500
VPunctuation Marks
p501
asVArmenian
p502
(lp503
VNationalites
p504
asVcarve
p505
(lp506
VHalloween
p507
asVadjustable wrench
p508
(lp509
g140
asVSpain
p510
(lp511
g354
ag113
asVcoffee
p512
(lp513
g465
ag471
ag466
ag367
asVice cube tray
p514
(lp515
VRefrigerator
p516
asVon the first of every month
p517
(lp518
g79
asVplaster
p519
(lp520
g48
ag60
ag49
asVcaterpillar
p521
(lp522
g291
asVgiraffe
p523
(lp524
g165
ag34
ag166
asVsixteen
p525
(lp526
g15
asVsilver
p527
(lp528
VMetals
p529
ag229
asVbank
p530
(lp531
g88
ag160
ag299
asS'bread'
p532
(lp533
g296
ag198
ag208
ag399
ag199
asS'meat'
p534
(lp535
g285
ag135
ag399
asVoxygen
p536
(lp537
g56
asVcapricorn
p538
(lp539
VImaginary People and Animals
p540
asVIndia
p541
(lp542
g112
ag113
asVfilling
p543
(lp544
g124
asVroast
p545
(lp546
g180
ag134
ag135
asVstamp machine
p547
(lp548
g483
asVmeal
p549
(lp550
g134
asVbone
p551
(lp552
g187
asVspider
p553
(lp554
g165
ag34
ag291
aVBugs
p555
asVsled
p556
(lp557
g82
asVcrocus
p558
(lp559
g109
asVgearshift
p560
(lp561
g169
asVturnip
p562
(lp563
VVegetables
p564
asVfortnight
p565
(lp566
g157
asVcathedral
p567
(lp568
g299
asVhumidity
p569
(lp570
g85
asS'driving'
p571
(lp572
g143
asVjunior high school
p573
(lp574
g91
asVmotel
p575
(lp576
g412
asVfront brake
p577
(lp578
g169
asVrodeo
p579
(lp580
g217
asVmillennium
p581
(lp582
g157
asVcar racing
p583
(lp584
g152
asVengineer
p585
(lp586
g148
ag149
asVsampan
p587
(lp588
VShip Types
p589
asVskin diving
p590
(lp591
g152
asVfoundation
p592
(lp593
VCosmetics
p594
ag60
asVCuban
p595
(lp596
g504
asVboarding time
p597
(lp598
g6
asVride cymbal
p599
(lp600
g52
ag53
asVice coffee
p601
(lp602
g471
ag367
asVshaving mug
p603
(lp604
g45
asVpumpkins
p605
(lp606
VVegetables
p607
asVgrapes
p608
(lp609
VFruit
p610
ag320
asVperson-to-person call
p611
(lp612
g31
asVlarge intestine
p613
(lp614
g232
asVSeptember
p615
(lp616
g306
asS'days'
p617
(lp618
g250
asVfilter
p619
(lp620
g39
asVUganda
p621
(lp622
g354
asVsoda
p623
(lp624
g471
ag367
asVmethane
p625
(lp626
g56
asVChihuahua
p627
(lp628
g241
asVgazelle
p629
(lp630
g166
asVwasp
p631
(lp632
g291
ag555
asVget away
p633
(lp634
g226
asVcookies
p635
(lp636
g198
ag72
ag199
ag73
asVbuttock
p637
(lp638
g188
asVlettuce
p639
(lp640
g564
ag607
asVInland Taipan
p641
(lp642
VDeadliest Snakes in the World
p643
asVGuatemalan
p644
(lp645
g504
asVhood
p646
(lp647
g490
asVmercury
p648
(lp649
g529
asVbasketball
p650
(lp651
g152
ag153
ag154
asVspinach
p652
(lp653
g564
ag607
aVLeaf Vegetables
p654
asS'fiction'
p655
(lp656
g540
asVwatchmaker
p657
(lp658
g148
ag149
asVton
p659
(lp660
g25
asS'woodwind'
p661
(lp662
g315
asVwedge
p663
(lp664
g278
asS'tangy'
p665
(lp666
VCitrus Fruits
p667
asVchild abuse
p668
(lp669
VCrimes
p670
asS'farming'
p671
(lp672
g296
asVtoe
p673
(lp674
g187
asVkiwi
p675
(lp676
g320
asVceiling
p677
(lp678
g59
ag60
asVmurder
p679
(lp680
g226
ag670
asVwindshield wiper
p681
(lp682
g143
ag490
asVfoam insulation
p683
(lp684
g48
ag49
asS'tool'
p685
(lp686
g391
asVB.Sc.
p687
(lp688
VDegrees in Education
p689
asVcompressor
p690
(lp691
g516
asVweightlifting
p692
(lp693
g153
asVpotholder
p694
(lp695
g180
asVmillet
p696
(lp697
g296
asVcrawl
p698
(lp699
g417
aVSwimming Strokes
p700
asVnail
p701
(lp702
g187
ag330
ag60
asVminibus
p703
(lp704
g28
asVsycamore
p705
(lp706
g3
asS'tree'
p707
(lp708
VFruit Trees
p709
ag3
asVBlack Mamba
p710
(lp711
g643
asVwheat bread
p712
(lp713
g198
ag199
asVstep-father
p714
(lp715
g76
asViron
p716
(lp717
g529
ag229
asVsoft drink
p718
(lp719
g471
ag367
asVturrets
p720
(lp721
VPasta Types
p722
asVdonkey
p723
(lp724
g323
ag324
asVhorse racing
p725
(lp726
g152
asVdouble-edge razor
p727
(lp728
g45
asVteacher's room
p729
(lp730
g90
asVdisposable razor
p731
(lp732
g45
asVsmoker
p733
(lp734
g39
asVrat
p735
(lp736
g165
ag34
asS'seed'
p737
(lp738
g247
asVcontents
p739
(lp740
g22
asVhall stand
p741
(lp742
g220
ag221
asVegg tray
p743
(lp744
g516
asVnecktie
p745
(lp746
g116
ag120
asVpeach tree
p747
(lp748
g709
asVsnow
p749
(lp750
g85
asVchest
p751
(lp752
g185
ag187
ag188
ag220
ag221
asVfront turn signal
p753
(lp754
g490
asVniece
p755
(lp756
g237
ag238
ag76
asVpanties
p757
(lp758
g119
ag121
asVsnowflake
p759
(lp760
g82
asVblackmailer
p761
(lp762
VCriminals
p763
asVCoral Snake
p764
(lp765
g643
aVSnakes
p766
asVdefrost timer
p767
(lp768
g516
asVfencing
p769
(lp770
g153
asS'regular'
p771
(lp772
g79
asVmouth
p773
(lp774
g185
ag186
ag187
ag63
ag394
ag188
ag124
asVletter
p775
(lp776
g483
asVairship
p777
(lp778
g311
asVCobra
p779
(lp780
g766
asVdesk phone
p781
(lp782
g31
asVprofessor
p783
(lp784
g148
ag149
asVduckling
p785
(lp786
g35
ag36
asS'metal'
p787
(lp788
g529
asVdog
p789
(lp790
g165
ag34
ag241
asVswamp
p791
(lp792
g19
asVaunt
p793
(lp794
g237
ag238
ag76
asVpineapple
p795
(lp796
g610
ag320
asVcirrus
p797
(lp798
g85
asVmakeup case
p799
(lp800
g244
asVbomb
p801
(lp802
VWeapons
p803
asVlyrics
p804
(lp805
g145
asVinsects
p806
(lp807
g555
asS'orchestra'
p808
(lp809
g260
asVrevolver
p810
(lp811
g803
asS'crotchet'
p812
(lp813
g145
ag52
ag314
ag53
ag315
ag260
asVsundial
p814
(lp815
g157
asVnephew
p816
(lp817
g237
ag238
ag76
asVdrawbridge
p818
(lp819
g99
ag100
asVbail
p820
(lp821
VCrime
p822
asVbus stop
p823
(lp824
g88
ag160
asVtoast
p825
(lp826
g208
asVpolitician
p827
(lp828
g148
ag149
asVheadline
p829
(lp830
g205
asVmenu
p831
(lp832
g465
ag134
ag466
asVunderpants
p833
(lp834
g42
ag119
ag121
asVriverbed
p835
(lp836
g19
asVCocker Spaniel
p837
(lp838
g241
asVcupid
p839
(lp840
VValentine's Day
p841
asVsugar
p842
(lp843
g335
asVcelery
p844
(lp845
g564
ag607
ag654
asVcougar
p846
(lp847
g166
asS'bush'
p848
(lp849
g391
asVknuckle
p850
(lp851
g330
asVrice
p852
(lp853
g134
ag296
ag208
ag399
asVrectangle
p854
(lp855
g278
asVplate
p856
(lp857
g335
ag134
ag285
asVCarnival
p858
(lp859
g202
asVevery third day
p860
(lp861
g79
asVwatch
p862
(lp863
g157
asVwatermelon
p864
(lp865
g610
ag320
asVcushion
p866
(lp867
g60
asVrelish
p868
(lp869
VCondiments
p870
aVCondiments
p871
asVbat
p872
(lp873
g507
asVjaguar
p874
(lp875
g166
asS'countries'
p876
(lp877
g112
ag354
ag113
ag504
asVtights
p878
(lp879
g119
ag121
asVrowing
p880
(lp881
g153
asVbay
p882
(lp883
g19
asVsuit coat
p884
(lp885
g116
ag120
asVcoke
p886
(lp887
g471
ag367
asVban
p888
(lp889
g226
asVAbyssinian
p890
(lp891
VCat Breeds
p892
asVsteak
p893
(lp894
g135
asVsteal
p895
(lp896
g226
asVsteam
p897
(lp898
g180
asVears
p899
(lp900
g185
ag186
ag187
ag188
asVroom maid
p901
(lp902
g412
asVliquor
p903
(lp904
g471
ag367
asVlemonade
p905
(lp906
g471
ag367
asVsturgeon
p907
(lp908
VFish and Things That Live in Water
p909
aVFish and Things That Live in Water
p910
asVten-gallon hat
p911
(lp912
g217
asVair valve
p913
(lp914
g169
asVnoodles
p915
(lp916
g722
ag208
asVclef
p917
(lp918
g145
asS'percussion'
p919
(lp920
g53
asVhourglass
p921
(lp922
g157
asVsinger
p923
(lp924
g145
asVsteak knife
p925
(lp926
g345
asVadvice column
p927
(lp928
g205
asVpostbox
p929
(lp930
g483
asS'feline'
p931
(lp932
g892
asVHopi Rattlesnake
p933
(lp934
g443
asS'artificial'
p935
(lp936
VArtificial Materials
p937
asVgrandmother
p938
(lp939
g237
ag238
ag76
asVmug
p940
(lp941
g335
asVfinger
p942
(lp943
g187
ag330
asVyogurt
p944
(lp945
VDairy Products
p946
aVDairy Products
p947
asVM.sc.
p948
(lp949
g689
asVbaboon
p950
(lp951
g166
asVsplinter
p952
(lp953
g300
asVColumbus Day
p954
(lp955
g202
asS'nature'
p956
(lp957
g18
ag109
ag19
asVcentral incisor
p958
(lp959
g63
asVtermite
p960
(lp961
g291
asVnot often
p962
(lp963
g79
asVtoothbrush
p964
(lp965
g124
asS'wear'
p966
(lp967
g42
asVbeautician
p968
(lp969
g148
ag149
asVdedication
p970
(lp971
g22
asVcousin
p972
(lp973
g237
ag238
ag76
asS'kitchen'
p974
(lp975
g180
ag335
ag59
ag134
ag342
asVflooring
p976
(lp977
g48
ag49
asVcow
p978
(lp979
g165
ag323
ag34
ag324
asS'country'
p980
(lp981
g112
ag354
ag113
ag504
aVContinents
p982
asS'ill'
p983
(lp984
g300
ag301
asVsteel drums
p985
(lp986
g52
ag53
asVBrussel sprouts
p987
(lp988
g654
asVpuffin
p989
(lp990
g35
ag36
asVcod
p991
(lp992
g909
ag910
asVcherry
p993
(lp994
g610
ag320
asVspear
p995
(lp996
g803
asVGroundhog Day
p997
(lp998
g202
asVlead story
p999
(lp1000
g205
asVsmuggler
p1001
(lp1002
g763
asVsweet roll
p1003
(lp1004
g480
asVbathroom
p1005
(lp1006
g59
ag594
ag60
ag342
ag90
asVdouble room
p1007
(lp1008
g412
asS'beef'
p1009
(lp1010
g285
ag135
asVblond hair
p1011
(lp1012
g66
asVthree
p1013
(lp1014
g14
ag15
asVsubmarine
p1015
(lp1016
g589
aVWater Transportation
p1017
asVbeer
p1018
(lp1019
g134
ag471
ag367
asVBoxer
p1020
(lp1021
g241
asVbeet
p1022
(lp1023
g607
aVRoot Vegetables
p1024
asVinterest
p1025
(lp1026
g255
asVfry
p1027
(lp1028
g180
asS'celebration'
p1029
(lp1030
g105
ag106
asS'obese'
p1031
(lp1032
g73
asVkettledrum
p1033
(lp1034
g52
ag53
asVPoland
p1035
(lp1036
g354
asVhacksaw
p1037
(lp1038
g140
asVglider
p1039
(lp1040
g311
asVchill
p1041
(lp1042
g82
ag85
asVdash
p1043
(lp1044
g501
asVtank
p1045
(lp1046
g803
ag28
asVa few times
p1047
(lp1048
g79
asVair
p1049
(lp1050
g56
asVlizard
p1051
(lp1052
g34
asVPersian
p1053
(lp1054
g892
asVelectric drill
p1055
(lp1056
g140
asVdashboard
p1057
(lp1058
g143
ag144
asS'aeroplane'
p1059
(lp1060
g311
asVpostal money order
p1061
(lp1062
g483
asVBasset Hound
p1063
(lp1064
g241
asVgingivitis
p1065
(lp1066
g124
asVseven
p1067
(lp1068
g14
ag15
asVpyramid
p1069
(lp1070
g278
asVcanoeing
p1071
(lp1072
g153
asVdiaphragm
p1073
(lp1074
g232
asVfour times
p1075
(lp1076
g79
asVsingle room
p1077
(lp1078
g412
asVeighteen
p1079
(lp1080
g15
asVbrake
p1081
(lp1082
g143
ag144
ag169
asVcone
p1083
(lp1084
g278
asVarson
p1085
(lp1086
g670
asVsnare drum
p1087
(lp1088
g52
ag53
ag260
asVseveral times
p1089
(lp1090
g79
asVheadmaster
p1091
(lp1092
g436
asVPython
p1093
(lp1094
g766
asVDracula
p1095
(lp1096
g507
asVforehead
p1097
(lp1098
g185
ag394
ag188
asVcarnation
p1099
(lp1100
g109
asS'vegetable'
p1101
(lp1102
g607
aVBulb Vegetables
p1103
asVmilkshake
p1104
(lp1105
g471
ag367
asVseveral
p1106
(lp1107
g69
asVdrill press
p1108
(lp1109
g140
asVwheel
p1110
(lp1111
g143
ag144
asVhalf-sister
p1112
(lp1113
g76
asS'crockery'
p1114
(lp1115
g335
aVDinnerware
p1116
asVPh.D.
p1117
(lp1118
g689
asVrain
p1119
(lp1120
g85
asVhand
p1121
(lp1122
g187
ag330
asVcreek
p1123
(lp1124
g19
asVwaterfall
p1125
(lp1126
g18
ag19
asVgarlic
p1127
(lp1128
g1103
asVunicorn
p1129
(lp1130
g540
asVpara gliding
p1131
(lp1132
g152
asVtuna
p1133
(lp1134
g909
ag910
asVtune
p1135
(lp1136
g145
asVcourt case
p1137
(lp1138
g265
asVsafety pins
p1139
(lp1140
VSewing
p1141
asVgraduate student
p1142
(lp1143
g436
asVsnow peas
p1144
(lp1145
g247
asVcormorant
p1146
(lp1147
g35
ag36
asVadult teeth
p1148
(lp1149
g63
asVvice-president
p1150
(lp1151
g436
asVquite often
p1152
(lp1153
g79
asVocean
p1154
(lp1155
g18
ag909
ag19
ag417
ag910
asVsavings
p1156
(lp1157
g255
asS'materials'
p1158
(lp1159
g118
asVmother
p1160
(lp1161
g237
ag238
ag76
asVhearts
p1162
(lp1163
g232
asS'musical'
p1164
(lp1165
g145
ag52
ag314
ag53
ag315
ag260
asVsnowman
p1166
(lp1167
g82
ag540
asVkale
p1168
(lp1169
g607
ag654
asVsentence
p1170
(lp1171
g265
asVbruise
p1172
(lp1173
g300
asVstep-daughter
p1174
(lp1175
g76
asVwood shingle
p1176
(lp1177
g48
ag49
asVthumbs
p1178
(lp1179
g186
ag187
asVbrackets
p1180
(lp1181
g501
asVstepdaughter
p1182
(lp1183
g237
ag238
asVlasso
p1184
(lp1185
g217
asVham
p1186
(lp1187
g135
asVsunflower
p1188
(lp1189
g109
ag109
asVapple pie
p1190
(lp1191
g72
ag73
asVphotographer
p1192
(lp1193
g205
asVbutton-down collar
p1194
(lp1195
g116
ag120
asVinnocent
p1196
(lp1197
g265
asVprison
p1198
(lp1199
g822
ag265
asVshoemaker
p1200
(lp1201
g148
ag149
asVhat
p1202
(lp1203
g42
ag117
ag82
ag456
asVhalf-brother
p1204
(lp1205
g76
asVvulture
p1206
(lp1207
g34
ag35
ag36
asVbarge
p1208
(lp1209
g589
asVjudge
p1210
(lp1211
g148
ag149
ag822
ag265
asVpartridge
p1212
(lp1213
g35
ag36
asVshoulder
p1214
(lp1215
g187
ag188
ag285
asVShih Tzu
p1216
(lp1217
g241
asVall day
p1218
(lp1219
g79
asVpolice car
p1220
(lp1221
g822
ag28
asVmosquito
p1222
(lp1223
g291
ag555
asVcredit card call
p1224
(lp1225
g31
asVfluoride
p1226
(lp1227
g124
asVbell lyre
p1228
(lp1229
g52
ag53
asVSwedish
p1230
(lp1231
g504
asVbirthday cake
p1232
(lp1233
g72
ag73
asVBangladesh
p1234
(lp1235
g112
asVRattlesnake
p1236
(lp1237
g766
asVdining room
p1238
(lp1239
g59
ag134
ag60
ag342
asVescape
p1240
(lp1241
g226
asVtrombone
p1242
(lp1243
g145
ag52
ag314
ag260
asVatomic bomb
p1244
(lp1245
g803
asVdoorstep
p1246
(lp1247
g60
asVorchid
p1248
(lp1249
g109
asVsocks
p1250
(lp1251
g42
ag116
ag120
asVokra
p1252
(lp1253
g607
asVbaby bed
p1254
(lp1255
g220
ag221
asVpurple
p1256
(lp1257
g11
asVarmed
p1258
(lp1259
g822
asVfox
p1260
(lp1261
g165
ag34
asVmicrowave
p1262
(lp1263
g180
asVtornado
p1264
(lp1265
g85
asVnewsprint
p1266
(lp1267
g205
asVbra
p1268
(lp1269
g119
ag121
asS'human body'
p1270
(lp1271
g185
ag188
asVrefrigerator compartment
p1272
(lp1273
g516
asVespionage
p1274
(lp1275
g670
asS'holiday'
p1276
(lp1277
g202
aVNew Year's Day
p1278
asVsirloin tip
p1279
(lp1280
g285
asVcorn
p1281
(lp1282
g564
ag296
ag607
ag247
asVburn
p1283
(lp1284
g300
asVblackmail
p1285
(lp1286
g670
asVNorth America
p1287
(lp1288
g982
asVbolt
p1289
(lp1290
g60
asVpliers
p1291
(lp1292
g140
asS'post'
p1293
(lp1294
g483
asVmimosa
p1295
(lp1296
g109
asVplayroom
p1297
(lp1298
g342
asS'slither'
p1299
(lp1300
g643
ag766
asS'cowboy'
p1301
(lp1302
g217
asVplum
p1303
(lp1304
g610
ag320
asS'months'
p1305
(lp1306
g306
asVmagazine
p1307
(lp1308
g127
asVhigh school
p1309
(lp1310
g91
asVgenocide
p1311
(lp1312
g670
asVbanker
p1313
(lp1314
g148
ag149
asVcraftsman
p1315
(lp1316
g148
ag149
asVsidestroke
p1317
(lp1318
g417
ag700
asVoctopus
p1319
(lp1320
g165
ag34
asVsweater
p1321
(lp1322
g42
asVcastanets
p1323
(lp1324
g52
ag53
asVagogo bells
p1325
(lp1326
g52
ag53
asVvise
p1327
(lp1328
g140
asVson
p1329
(lp1330
g237
ag238
ag76
asVlier
p1331
(lp1332
g25
asVrolling pin
p1333
(lp1334
g180
asVtanker
p1335
(lp1336
g311
ag589
asVSphynx
p1337
(lp1338
g892
asVsow
p1339
(lp1340
g288
asS'gardening'
p1341
(lp1342
g391
ag288
asVKorean
p1343
(lp1344
g504
asVcafeteria
p1345
(lp1346
g90
asVshopping mall
p1347
(lp1348
g299
asS'fabric'
p1349
(lp1350
g1141
asVconstantly
p1351
(lp1352
g79
asVthin macaroni
p1353
(lp1354
g722
asVblue cheese
p1355
(lp1356
g430
ag431
asVwater cress
p1357
(lp1358
g654
asVauthor
p1359
(lp1360
g148
ag22
ag127
ag149
ag501
asVPresidents' Day
p1361
(lp1362
g202
asVfork
p1363
(lp1364
g180
ag335
ag465
ag134
ag466
asVhead
p1365
(lp1366
g185
ag186
ag187
ag66
ag394
ag188
ag117
asVsnowy
p1367
(lp1368
g338
ag85
ag339
asVJanuary
p1369
(lp1370
g306
ag1278
asS'feminine'
p1371
(lp1372
VMakeup
p1373
asVheat
p1374
(lp1375
g85
asVneedles
p1376
(lp1377
g1141
asVuncle
p1378
(lp1379
g237
ag238
ag76
asVbeech
p1380
(lp1381
g3
asViris
p1382
(lp1383
g109
asVotter
p1384
(lp1385
g34
asVpost-hole digger
p1386
(lp1387
g391
asVweeping willow
p1388
(lp1389
g3
asVwhiskey
p1390
(lp1391
g471
ag367
asVcentipede
p1392
(lp1393
g291
asVveterinarian
p1394
(lp1395
g148
ag149
asVnapkin
p1396
(lp1397
g335
ag465
ag134
ag466
asVsemicolon
p1398
(lp1399
g501
asVflat
p1400
(lp1401
g145
asVRomanian
p1402
(lp1403
g504
asVchuck short rib
p1404
(lp1405
g285
asVkitchen knife
p1406
(lp1407
g345
asVfilleting knife
p1408
(lp1409
g345
asVship
p1410
(lp1411
g130
ag589
ag1017
ag1017
aVHarbor
p1412
asVtooth
p1413
(lp1414
g185
ag186
ag187
ag394
asVmole
p1415
(lp1416
g394
asVopen end wrench
p1417
(lp1418
g140
asVfloor
p1419
(lp1420
g59
ag60
asVScottish Terrier
p1421
(lp1422
g241
asVgenerally
p1423
(lp1424
g212
ag79
asVactor
p1425
(lp1426
g148
ag149
asVflood
p1427
(lp1428
g85
asVtin
p1429
(lp1430
g529
asVshrine
p1431
(lp1432
g299
asVdigital
p1433
(lp1434
g157
asVtie
p1435
(lp1436
g42
ag288
asVerosion
p1437
(lp1438
g124
asVroll
p1439
(lp1440
g208
asVpicture
p1441
(lp1442
g59
ag60
asVphoenix
p1443
(lp1444
g540
asVtoad
p1445
(lp1446
g34
asVfootball
p1447
(lp1448
g152
ag153
ag154
asVasterisk
p1449
(lp1450
g501
asVwelcome party
p1451
(lp1452
g105
ag106
asVcleaver
p1453
(lp1454
g345
asVnitric oxide
p1455
(lp1456
g56
asVhygienic
p1457
(lp1458
g134
asVtugboat
p1459
(lp1460
g589
ag1412
asVlower jaw
p1461
(lp1462
g394
asVbullet
p1463
(lp1464
g217
asVpotato
p1465
(lp1466
g564
ag607
ag1024
asVnavel
p1467
(lp1468
g188
asVhedge shears
p1469
(lp1470
g391
asVyacht
p1471
(lp1472
g1017
asVAmerican
p1473
(lp1474
g504
asVdaily
p1475
(lp1476
g79
asVjacket
p1477
(lp1478
g42
asVgorilla
p1479
(lp1480
g166
asVstrip loin
p1481
(lp1482
g285
asS'time'
p1483
(lp1484
g211
ag250
ag306
ag96
ag79
ag157
asVpassenger ship
p1485
(lp1486
g1017
asVchicken breast
p1487
(lp1488
g135
asVigloo
p1489
(lp1490
g193
asVcoach
p1491
(lp1492
g148
ag149
asVchain
p1493
(lp1494
g169
asVneedle threader
p1495
(lp1496
g1141
asVhijacker
p1497
(lp1498
g763
asVrob
p1499
(lp1500
g226
asVcrocodile
p1501
(lp1502
g165
ag34
ag166
asVmile
p1503
(lp1504
g25
asVcommit a crime
p1505
(lp1506
g226
asVskin
p1507
(lp1508
g186
ag187
ag229
asVchair
p1509
(lp1510
g89
ag59
ag60
ag220
ag221
asVbomber
p1511
(lp1512
g311
asVtoothpick
p1513
(lp1514
g124
asVmilk
p1515
(lp1516
g471
ag946
ag367
ag947
asVmillisecond
p1517
(lp1518
g157
asVrunny nose
p1519
(lp1520
g301
asVgrape
p1521
(lp1522
g320
asVzone
p1523
(lp1524
g157
asVmallet
p1525
(lp1526
g140
asVglockenspiel
p1527
(lp1528
g52
ag53
asVfather
p1529
(lp1530
g237
ag238
ag76
asVcountdown
p1531
(lp1532
g1278
asS'veg'
p1533
(lp1534
g607
asVcharge
p1535
(lp1536
g226
asVfog
p1537
(lp1538
g85
asVrhythm
p1539
(lp1540
g145
asVmelon
p1541
(lp1542
g610
ag320
asVbrown
p1543
(lp1544
g11
asVdinghy
p1545
(lp1546
g1017
asVknapsack
p1547
(lp1548
g244
asVkitten
p1549
(lp1550
g165
ag34
asS'cook'
p1551
(lp1552
g180
ag134
asVwrite a check
p1553
(lp1554
g327
asVminute
p1555
(lp1556
g157
asVcool
p1557
(lp1558
g338
ag339
asVlong-distance call
p1559
(lp1560
g31
asVclouds
p1561
(lp1562
g85
asS'nectar'
p1563
(lp1564
g109
asVpoliceman
p1565
(lp1566
g148
ag149
asVbrother
p1567
(lp1568
g237
ag238
ag76
asVcloudy
p1569
(lp1570
g338
ag85
ag339
asVmagnet
p1571
(lp1572
g1141
asVschool building
p1573
(lp1574
g299
asVsubway
p1575
(lp1576
g130
ag131
asVstorage door
p1577
(lp1578
g516
asS'shave'
p1579
(lp1580
g45
asS'pork'
p1581
(lp1582
g285
ag135
asVattic
p1583
(lp1584
g59
ag60
ag342
asVcustoms declaration
p1585
(lp1586
g6
asVevery two months
p1587
(lp1588
g79
asVstep-grandfather
p1589
(lp1590
g76
asVcurrant
p1591
(lp1592
g320
asVsalad bowl
p1593
(lp1594
g1116
asVbake
p1595
(lp1596
g180
asVgarlic bread
p1597
(lp1598
g198
ag199
asS'educate'
p1599
(lp1600
g91
asVchronometer
p1601
(lp1602
g157
asVbooklet
p1603
(lp1604
g127
asVcondenser coil
p1605
(lp1606
g516
asVappeal
p1607
(lp1608
g265
asVDalmatian
p1609
(lp1610
g241
asS'dental'
p1611
(lp1612
g124
asVgun belt
p1613
(lp1614
g217
asS'transportation'
p1615
(lp1616
g130
asVmechanic
p1617
(lp1618
g148
ag149
asVcamel
p1619
(lp1620
g165
ag34
ag166
asVclerk
p1621
(lp1622
g148
ag149
asVmakeup
p1623
(lp1624
g594
ag1373
asVwater
p1625
(lp1626
g465
ag909
ag471
ag466
ag288
ag417
ag910
ag367
asVYom Kippur
p1627
(lp1628
g202
asVwitch
p1629
(lp1630
g507
asVcheck in
p1631
(lp1632
g6
ag412
asVchicken leg
p1633
(lp1634
g135
asVaddress
p1635
(lp1636
g483
asVgoldfish
p1637
(lp1638
g165
ag34
asVteacher
p1639
(lp1640
g148
ag149
ag436
ag90
ag91
asValto
p1641
(lp1642
g145
asVMA
p1643
(lp1644
g689
asVnectarine
p1645
(lp1646
g320
asVhardly ever
p1647
(lp1648
g212
ag79
asS'healthy'
p1649
(lp1650
g607
asVlily
p1651
(lp1652
g109
asVguilty
p1653
(lp1654
g265
asVpassive smoke
p1655
(lp1656
g39
asVtrial
p1657
(lp1658
g265
asVchain guard
p1659
(lp1660
g169
asVbangs
p1661
(lp1662
g66
asVusually
p1663
(lp1664
g211
ag96
ag79
asVnylon
p1665
(lp1666
g229
ag937
asVtimpani
p1667
(lp1668
g52
ag53
ag260
asVlove
p1669
(lp1670
g841
asVextra
p1671
(lp1672
g205
asVsoybeans
p1673
(lp1674
g247
asVradish
p1675
(lp1676
g564
ag607
ag1024
asVmerely
p1677
(lp1678
g212
asVkayak
p1679
(lp1680
g589
ag1017
asVbribery
p1681
(lp1682
g670
asVSpitz
p1683
(lp1684
g241
asVrarely
p1685
(lp1686
g211
ag96
ag212
ag79
asVtransplant
p1687
(lp1688
g288
asVpansy
p1689
(lp1690
g109
asVAustralia
p1691
(lp1692
g982
asVnow and then
p1693
(lp1694
g96
ag79
asVAugust
p1695
(lp1696
g306
asS'Xmas'
p1697
(lp1698
g202
asS'creamy'
p1699
(lp1700
g946
asVcomic book
p1701
(lp1702
g127
asVtoday
p1703
(lp1704
g211
ag96
asVOctober
p1705
(lp1706
g306
ag507
asVriot
p1707
(lp1708
g670
asVclub
p1709
(lp1710
g803
asVHanukkah
p1711
(lp1712
g202
asVcashier
p1713
(lp1714
g255
asVRomania
p1715
(lp1716
g354
asVchocolate
p1717
(lp1718
g134
ag841
asVappendix
p1719
(lp1720
g232
ag22
asVolive
p1721
(lp1722
g870
ag871
asVliquid foundation
p1723
(lp1724
g1373
asVfly
p1725
(lp1726
g165
ag34
ag291
ag555
asVAustralian Brown Snake
p1727
(lp1728
g643
asVjudo
p1729
(lp1730
g153
asVeuphonium
p1731
(lp1732
g52
ag314
asVGerman
p1733
(lp1734
g504
asS'car'
p1735
(lp1736
g143
ag130
ag490
ag131
ag28
asVcap
p1737
(lp1738
g42
ag117
ag456
asVcat
p1739
(lp1740
g165
ag323
ag34
ag892
ag324
asVsoup
p1741
(lp1742
g134
asVsun room
p1743
(lp1744
g342
asVhandsaw
p1745
(lp1746
g140
asVferry
p1747
(lp1748
g1017
asVheart
p1749
(lp1750
g187
ag135
ag841
asVfreezer door
p1751
(lp1752
g516
asVstream
p1753
(lp1754
g18
ag19
asVlight smoker
p1755
(lp1756
g39
asVchin
p1757
(lp1758
g185
ag187
ag394
asVanteater
p1759
(lp1760
g166
asVgallon
p1761
(lp1762
g25
asS'counting'
p1763
(lp1764
g14
ag15
ag69
asS'clothing'
p1765
(lp1766
g118
asVbaseball field
p1767
(lp1768
g90
asVpink
p1769
(lp1770
g11
asVwinter
p1771
(lp1772
g82
ag82
asVsailboat
p1773
(lp1774
g1017
asVbrand
p1775
(lp1776
g217
asVdinner
p1777
(lp1778
g465
ag134
ag466
asVfreezer
p1779
(lp1780
g134
asS'write'
p1781
(lp1782
g22
ag127
ag501
asS'harbor'
p1783
(lp1784
g1412
asVflank
p1785
(lp1786
g285
asVdeep end
p1787
(lp1788
g417
asVsword
p1789
(lp1790
g99
ag803
ag100
asVelephant
p1791
(lp1792
g165
ag34
ag166
asVpins
p1793
(lp1794
g1141
asVyew
p1795
(lp1796
g3
asVpint
p1797
(lp1798
g25
asVmap
p1799
(lp1800
g89
asVlaundry
p1801
(lp1802
g342
asVskates
p1803
(lp1804
g82
asVcocktail
p1805
(lp1806
g471
ag367
asVnectarine tree
p1807
(lp1808
g709
asVPrairie Rattlesnake
p1809
(lp1810
g443
asVgranddaughter
p1811
(lp1812
g237
ag238
ag76
asVblowgun
p1813
(lp1814
g803
asVdate
p1815
(lp1816
g157
asS'classroom'
p1817
(lp1818
g89
ag90
asS'natural'
p1819
(lp1820
g19
asVwaist
p1821
(lp1822
g185
ag188
asVgrandson
p1823
(lp1824
g237
ag238
ag76
asVstep-grandmother
p1825
(lp1826
g76
asVrecorded message
p1827
(lp1828
g31
asVswitch
p1829
(lp1830
g516
asVtruck
p1831
(lp1832
g130
ag131
asVdeposit
p1833
(lp1834
g255
asVbiplane
p1835
(lp1836
g311
asVball peen hammer
p1837
(lp1838
g140
asVharp
p1839
(lp1840
g145
ag52
ag260
asVshoes
p1841
(lp1842
g42
ag372
asVrabbi
p1843
(lp1844
g148
ag149
asVmidnight
p1845
(lp1846
g1278
asVcourse
p1847
(lp1848
g134
asVhead teacher
p1849
(lp1850
g436
asVnitrogen
p1851
(lp1852
g56
asVcold
p1853
(lp1854
g338
ag82
ag85
ag339
asVGhana
p1855
(lp1856
g354
asVSaudi Arabia
p1857
(lp1858
g354
ag113
asVpolice
p1859
(lp1860
g822
ag670
ag763
asVthumb
p1861
(lp1862
g187
ag330
asVaccordion
p1863
(lp1864
g145
ag52
asVwillow
p1865
(lp1866
g3
asVgas tank cap
p1867
(lp1868
g490
asVgrapefruit tree
p1869
(lp1870
g709
asS'forms'
p1871
(lp1872
g278
asVlamb chop
p1873
(lp1874
g135
asVwindow
p1875
(lp1876
g59
ag60
asVSaw Scaled Viper
p1877
(lp1878
g643
asVnessie
p1879
(lp1880
g540
asVfarmer
p1881
(lp1882
g148
ag149
asVmail
p1883
(lp1884
g483
asVchain smoker
p1885
(lp1886
g39
asVbaby teeth
p1887
(lp1888
g63
asVrake
p1889
(lp1890
g391
ag288
asS'nation'
p1891
(lp1892
g504
asVlunch
p1893
(lp1894
g465
ag134
ag466
asVslacks
p1895
(lp1896
g42
asS'safari'
p1897
(lp1898
g166
asVcarbon monoxide
p1899
(lp1900
g56
asVtaillight
p1901
(lp1902
g143
ag490
asVhall
p1903
(lp1904
g59
ag60
ag342
asS'slurp'
p1905
(lp1906
g367
asVopera
p1907
(lp1908
g145
asVclutch
p1909
(lp1910
g143
ag144
asVspading fork
p1911
(lp1912
g391
asVashtray
p1913
(lp1914
g60
asVlocking pliers
p1915
(lp1916
g140
asVfisherman
p1917
(lp1918
g148
ag149
asVbowling
p1919
(lp1920
g152
asVKenya
p1921
(lp1922
g354
asVturtle
p1923
(lp1924
g165
ag34
asVgladiolus
p1925
(lp1926
g109
asVgrouse
p1927
(lp1928
g35
ag36
asVexhaust pipe
p1929
(lp1930
g490
asVgoose
p1931
(lp1932
g323
ag35
ag324
ag36
asVzebra
p1933
(lp1934
g165
ag34
ag166
ag166
asVPeru
p1935
(lp1936
g354
asS'year'
p1937
(lp1938
g306
ag157
asVthree times
p1939
(lp1940
g79
asVice cream
p1941
(lp1942
g480
ag72
ag946
ag73
ag947
asVwedding party
p1943
(lp1944
g105
ag106
asVMexico
p1945
(lp1946
g112
ag113
asVexclamation point
p1947
(lp1948
g501
asVmodern pentathlon
p1949
(lp1950
g153
asVviscose
p1951
(lp1952
g229
asVparallelogram
p1953
(lp1954
g278
asS'thirst'
p1955
(lp1956
g367
asVfiberglass insulation
p1957
(lp1958
g48
ag49
asVNorwegian
p1959
(lp1960
g504
asS'investigation'
p1961
(lp1962
g670
asVporterhouse
p1963
(lp1964
g285
asVeagle
p1965
(lp1966
g165
ag34
ag35
ag36
asVSiamese
p1967
(lp1968
g892
asVcarp
p1969
(lp1970
g909
ag910
asVquart
p1971
(lp1972
g25
asVpowder puff
p1973
(lp1974
g1373
asVlab
p1975
(lp1976
g90
asVcough
p1977
(lp1978
g301
asVcard
p1979
(lp1980
g841
asVpaper towels
p1981
(lp1982
g180
asVSouth Africa
p1983
(lp1984
g354
asVwaiter
p1985
(lp1986
g148
ag149
ag134
asVvery often
p1987
(lp1988
g79
asVostrich
p1989
(lp1990
g34
ag166
asVturn
p1991
(lp1992
g417
asVgosling
p1993
(lp1994
g35
ag36
asS'footwear'
p1995
(lp1996
g372
asVskiing
p1997
(lp1998
g152
asVrouter
p1999
(lp2000
g140
asVMother's Day party
p2001
(lp2002
g105
ag106
asVDachshund
p2003
(lp2004
g241
asVBrazil
p2005
(lp2006
g112
ag113
asVcheese
p2007
(lp2008
g134
ag208
ag946
ag947
asVearache
p2009
(lp2010
g301
asVtennis
p2011
(lp2012
g152
ag153
ag154
asVrafts
p2013
(lp2014
g589
asVSonoran Desert Sidewinder
p2015
(lp2016
g443
asVEhtiopia
p2017
(lp2018
g113
asVAsia
p2019
(lp2020
g982
asVone
p2021
(lp2022
g14
ag15
asVshipyard
p2023
(lp2024
g1412
asVice tea
p2025
(lp2026
g471
ag367
asS'gases'
p2027
(lp2028
g56
asVperiodical
p2029
(lp2030
g127
asVconifer
p2031
(lp2032
g3
asVFrench dressing
p2033
(lp2034
g430
ag431
asVbobcat
p2035
(lp2036
g166
asVtomorrow
p2037
(lp2038
g211
ag96
asVYugoslavian
p2039
(lp2040
g504
asVsheep
p2041
(lp2042
g165
ag323
ag34
ag324
asS'city'
p2043
(lp2044
g88
ag299
asVMonday
p2045
(lp2046
g250
asVlocal call
p2047
(lp2048
g31
asVplastic
p2049
(lp2050
g937
asVgravy boat and stand
p2051
(lp2052
g1116
asVwhite
p2053
(lp2054
g11
asVhydrogen
p2055
(lp2056
g56
asVmermaid
p2057
(lp2058
g540
asVeditor
p2059
(lp2060
g148
ag205
ag149
asVeyes
p2061
(lp2062
g185
ag186
ag187
ag188
asVhug
p2063
(lp2064
g841
asVnewspaper office
p2065
(lp2066
g205
asVseason
p2067
(lp2068
g157
ag82
asVvermicelli
p2069
(lp2070
g722
asVtea cup
p2071
(lp2072
g1116
asVcaterpiller
p2073
(lp2074
g555
asVboxer shorts
p2075
(lp2076
g116
ag120
asVhut
p2077
(lp2078
g193
asVcar alarm
p2079
(lp2080
g822
asVCorgi
p2081
(lp2082
g241
asVceramics
p2083
(lp2084
g229
asVreturn address
p2085
(lp2086
g483
asVsailing
p2087
(lp2088
g153
asVoats
p2089
(lp2090
g296
asVprinted matter
p2091
(lp2092
g483
asS'knives'
p2093
(lp2094
g345
asVcymbals
p2095
(lp2096
g53
asS'fruits'
p2097
(lp2098
g610
asVthird molar
p2099
(lp2100
g63
asVtractor
p2101
(lp2102
g28
asVbutcher knife
p2103
(lp2104
g345
asVtelephone card
p2105
(lp2106
g31
asS'illness'
p2107
(lp2108
g300
ag301
asVdrum set
p2109
(lp2110
g52
ag53
asVpiccolo
p2111
(lp2112
g145
ag52
ag315
ag260
asVbriefs
p2113
(lp2114
g116
ag119
ag120
ag121
asVant
p2115
(lp2116
g165
ag34
ag291
asVconspiracy
p2117
(lp2118
g670
asVpastry
p2119
(lp2120
g134
ag199
asVbreakfast
p2121
(lp2122
g465
ag134
ag466
asVVenezuela
p2123
(lp2124
g354
asVany
p2125
(lp2126
g69
asVBalinese
p2127
(lp2128
g892
asVfield hockey
p2129
(lp2130
g154
asVcheese sticks
p2131
(lp2132
g198
ag199
asS'zoo'
p2133
(lp2134
g166
asVrim soup bowl
p2135
(lp2136
g1116
asVfracture
p2137
(lp2138
g300
asVthermometer
p2139
(lp2140
g85
asVpimple
p2141
(lp2142
g394
asVcasual shoes
p2143
(lp2144
g372
asVbutterfly
p2145
(lp2146
g291
ag109
ag417
ag700
asVprinter
p2147
(lp2148
g148
ag149
asVequestrian
p2149
(lp2150
g153
asVunlisted number
p2151
(lp2152
g31
asVchocolate bar
p2153
(lp2154
g480
ag72
ag73
asVbuffet
p2155
(lp2156
g134
asVtelephone book
p2157
(lp2158
g31
asVlast week
p2159
(lp2160
g96
asVassault
p2161
(lp2162
g670
asVmutton
p2163
(lp2164
g135
asVbreak out
p2165
(lp2166
g226
asVknee
p2167
(lp2168
g187
asVceleste
p2169
(lp2170
g52
ag53
asS'geographic'
p2171
(lp2172
g19
asVenamel
p2173
(lp2174
g124
asVpharmacist
p2175
(lp2176
g148
ag149
asS'drive'
p2177
(lp2178
g143
asVwing
p2179
(lp2180
g285
asVAntarctica
p2181
(lp2182
g982
asVpattern
p2183
(lp2184
g1141
asVstockings
p2185
(lp2186
g42
asVgall bladder
p2187
(lp2188
g232
asVsalt
p2189
(lp2190
g335
ag465
ag134
ag870
ag466
ag871
asVarea code
p2191
(lp2192
g31
asVperch
p2193
(lp2194
g909
ag910
asS'walking'
p2195
(lp2196
g372
asVclaves
p2197
(lp2198
g52
ag53
asVcoffee mug
p2199
(lp2200
g1116
asVoff and on
p2201
(lp2202
g79
asVEthiopia
p2203
(lp2204
g112
asS'geography'
p2205
(lp2206
g18
ag112
ag354
ag113
ag504
ag982
ag19
asVwoolen
p2207
(lp2208
g118
asVstormy
p2209
(lp2210
g338
ag339
asVtitle
p2211
(lp2212
g22
asS'crime'
p2213
(lp2214
g822
ag670
ag763
asS'gulp'
p2215
(lp2216
g367
asVwood
p2217
(lp2218
g48
ag60
ag229
asVblack
p2219
(lp2220
g11
asVhockey
p2221
(lp2222
g152
ag153
asVwool
p2223
(lp2224
g118
ag229
asVpumpkin
p2225
(lp2226
g564
ag507
asS'Valentines Day'
p2227
(lp2228
g841
asVcannon
p2229
(lp2230
g99
ag803
ag100
asVtailor
p2231
(lp2232
g148
ag149
asVnearly
p2233
(lp2234
g212
asS'celebrate'
p2235
(lp2236
g105
ag1278
asS'meat eater'
p2237
(lp2238
g285
asValuminum
p2239
(lp2240
g229
asVleather
p2241
(lp2242
g118
ag229
asVseldom
p2243
(lp2244
g212
ag79
asVborrow
p2245
(lp2246
g255
asVpriest
p2247
(lp2248
g148
ag149
asVtent
p2249
(lp2250
g193
asVpeony
p2251
(lp2252
g109
asVfire engine
p2253
(lp2254
g28
asVbread knife
p2255
(lp2256
g345
asVquotation marks
p2257
(lp2258
g501
asVseat
p2259
(lp2260
g143
ag220
ag221
asS'relative'
p2261
(lp2262
g238
ag76
asVcollege
p2263
(lp2264
g91
asVseal
p2265
(lp2266
g165
ag34
asVcalendar
p2267
(lp2268
g89
ag202
ag1278
asS'sport'
p2269
(lp2270
g152
ag153
ag154
asVstepson
p2271
(lp2272
g237
ag238
asVpuma
p2273
(lp2274
g166
asVmortgage
p2275
(lp2276
g255
asVsideburns
p2277
(lp2278
g66
asVforecast
p2279
(lp2280
g85
asVkilometer
p2281
(lp2282
g25
asVbass drum
p2283
(lp2284
g52
ag53
ag260
asVpencil sharpener
p2285
(lp2286
g89
asVoil and vinegar
p2287
(lp2288
g430
ag431
asVliving room
p2289
(lp2290
g59
ag60
ag342
asVbulb dibble
p2291
(lp2292
g391
asVpine
p2293
(lp2294
g3
asVsweet rolls
p2295
(lp2296
g198
ag72
ag199
ag73
asVstep-aunt
p2297
(lp2298
g76
asVsupermarket
p2299
(lp2300
g88
ag299
asVguitar
p2301
(lp2302
g145
ag52
asVjumbo
p2303
(lp2304
g311
asVribbed macaroni
p2305
(lp2306
g722
asVbroil
p2307
(lp2308
g180
asVpostage
p2309
(lp2310
g483
ag483
asVparentheses
p2311
(lp2312
g501
asVrugby
p2313
(lp2314
g152
ag154
asVorange juice
p2315
(lp2316
g471
ag367
asVcrisper
p2317
(lp2318
g516
asVmany
p2319
(lp2320
g69
asVSouthwestern Speckled Rattlesnake
p2321
(lp2322
g443
asVMalaysia
p2323
(lp2324
g354
asVfor a long time
p2325
(lp2326
g96
asVcolumnist
p2327
(lp2328
g205
asVcredit card
p2329
(lp2330
g255
ag327
asVwallaby
p2331
(lp2332
g166
asVwheels
p2333
(lp2334
g144
asVyearly
p2335
(lp2336
g79
asVafterwards
p2337
(lp2338
g96
asS'color'
p2339
(lp2340
g11
asVarmchair
p2341
(lp2342
g220
ag221
asVHimalayan
p2343
(lp2344
g892
asVjeans
p2345
(lp2346
g42
asVperiod
p2347
(lp2348
g501
asVsoy beans
p2349
(lp2350
g296
asVcolon
p2351
(lp2352
g501
asS'nationality'
p2353
(lp2354
g504
asVpolo
p2355
(lp2356
g152
asVdislocation
p2357
(lp2358
g300
asVpigtails
p2359
(lp2360
g66
asVboat
p2361
(lp2362
g130
ag589
ag1017
asVturkey
p2363
(lp2364
g323
ag35
ag135
ag324
ag36
asVbest seller
p2365
(lp2366
g127
asVpinking shears
p2367
(lp2368
g1141
asVDeath Adder
p2369
(lp2370
g643
asVundershirt
p2371
(lp2372
g42
ag116
ag119
ag120
ag121
asVbreath
p2373
(lp2374
g124
asVworkshop
p2375
(lp2376
g342
asVhelicopter
p2377
(lp2378
g130
ag311
asVhardly
p2379
(lp2380
g212
asVravioli
p2381
(lp2382
g722
asVfig
p2383
(lp2384
g320
asVblush brush
p2385
(lp2386
g1373
asVmorning call
p2387
(lp2388
g412
asS'carnivore'
p2389
(lp2390
g135
asVgander
p2391
(lp2392
g35
ag36
asVtiger
p2393
(lp2394
g165
ag34
ag166
ag892
asVFrench horn
p2395
(lp2396
g52
ag314
ag260
asVtextbook
p2397
(lp2398
g89
ag127
asS'breve'
p2399
(lp2400
g145
ag52
ag314
ag53
ag315
ag260
asVfoggy
p2401
(lp2402
g338
ag339
asVhang gliding
p2403
(lp2404
g152
asVbanana tree
p2405
(lp2406
g709
asVpilot
p2407
(lp2408
g148
ag149
asS'sound'
p2409
(lp2410
g145
ag52
ag314
ag53
ag315
ag260
asVcash
p2411
(lp2412
g255
ag327
asVeditorial
p2413
(lp2414
g205
asVLhasa Apso
p2415
(lp2416
g241
asVslippers
p2417
(lp2418
g42
ag372
asVelbow macaroni
p2419
(lp2420
g722
asVvest
p2421
(lp2422
g116
ag120
asVcanoe
p2423
(lp2424
g1017
asVSudan
p2425
(lp2426
g354
asVtelephone
p2427
(lp2428
g31
ag31
asVhand grenade
p2429
(lp2430
g803
asVTV room
p2431
(lp2432
g342
asVmuffins
p2433
(lp2434
g198
ag199
asVdressmaker's model
p2435
(lp2436
g1141
asVbeaver
p2437
(lp2438
g166
asVhelium
p2439
(lp2440
g56
asVbusy tone
p2441
(lp2442
g31
asVhelmet
p2443
(lp2444
g117
ag456
asVIsrael
p2445
(lp2446
g113
asVsmoking section
p2447
(lp2448
g39
asVdoctor
p2449
(lp2450
g148
ag149
ag300
ag301
asVpay
p2451
(lp2452
g255
asVfender
p2453
(lp2454
g490
ag169
asVbowl
p2455
(lp2456
g335
asVcheck
p2457
(lp2458
g465
ag466
asVepoch
p2459
(lp2460
g157
asVcappelletti
p2461
(lp2462
g722
asVbellboy
p2463
(lp2464
g412
asVfour times an hour
p2465
(lp2466
g79
asVupper jaw
p2467
(lp2468
g394
asS'week'
p2469
(lp2470
g250
ag157
asVat times
p2471
(lp2472
g79
asVelectric razor
p2473
(lp2474
g45
asVfirst molar
p2475
(lp2476
g63
asVcymbal
p2477
(lp2478
g145
ag52
ag53
ag260
asVGreat Basin Rattlesnake
p2479
(lp2480
g443
asVfruit
p2481
(lp2482
g480
ag610
ag667
ag320
ag72
ag399
ag709
ag73
asVbarber
p2483
(lp2484
g148
ag149
asVadvertisement
p2485
(lp2486
g205
asVcartoon
p2487
(lp2488
g205
asVtom-tom
p2489
(lp2490
g52
ag53
asVtwin room
p2491
(lp2492
g412
asVbagpipes
p2493
(lp2494
g52
asVranch
p2495
(lp2496
g430
ag217
ag431
asVUnited Kingdom
p2497
(lp2498
g112
ag113
asVveal
p2499
(lp2500
g135
asVtaxi
p2501
(lp2502
g130
ag131
ag28
asVpoach
p2503
(lp2504
g180
asVmoney
p2505
(lp2506
g255
ag327
asVneon
p2507
(lp2508
g56
asVactress
p2509
(lp2510
g148
ag149
asVkill
p2511
(lp2512
g226
asVounces
p2513
(lp2514
g25
asVBelgian
p2515
(lp2516
g504
asVoverdue
p2517
(lp2518
g327
asVmandolin
p2519
(lp2520
g145
ag52
asVrose
p2521
(lp2522
g109
ag109
ag841
asVinstrument
p2523
(lp2524
g145
asVthimble
p2525
(lp2526
g1141
asVvenison
p2527
(lp2528
g135
asVcatsup
p2529
(lp2530
g870
ag871
asVsore throat
p2531
(lp2532
g301
asVstopwatch
p2533
(lp2534
g157
asVbreak in
p2535
(lp2536
g226
asVgrip
p2537
(lp2538
g169
asVdeparture lounge
p2539
(lp2540
g6
asVsteel toed shoes
p2541
(lp2542
g372
asVManx
p2543
(lp2544
g892
asVoffence
p2545
(lp2546
g265
asS'fridge'
p2547
(lp2548
g516
asVevery year
p2549
(lp2550
g79
asVdeliver mail
p2551
(lp2552
g483
asS'world'
p2553
(lp2554
g112
ag354
ag113
ag504
ag982
asVlegal age
p2555
(lp2556
g39
asVfurniture
p2557
(lp2558
g59
ag60
ag220
ag221
asVarsonist
p2559
(lp2560
g763
asVGreyhound
p2561
(lp2562
g241
asVleek
p2563
(lp2564
g1103
asVrazor blade
p2565
(lp2566
g45
asVtsunami
p2567
(lp2568
g85
asVstraight hair
p2569
(lp2570
g66
asS'srydent'
p2571
(lp2572
g90
asVblackberry
p2573
(lp2574
g320
asVsingle quotation marks
p2575
(lp2576
g501
asVtwelve
p2577
(lp2578
g15
asVgrub
p2579
(lp2580
g291
asVimprisonment
p2581
(lp2582
g265
asVlobster
p2583
(lp2584
g165
ag34
ag909
ag910
asVcontainer truck
p2585
(lp2586
g28
asVdiving
p2587
(lp2588
g417
asVmugger
p2589
(lp2590
g763
asVlentils
p2591
(lp2592
g247
asVAdam's apple
p2593
(lp2594
g394
asVlegal
p2595
(lp2596
g822
asVmoon
p2597
(lp2598
g157
ag85
asVrecorder
p2599
(lp2600
g52
ag315
asVsousaphone
p2601
(lp2602
g52
ag314
asVsalad plate
p2603
(lp2604
g1116
asVknife
p2605
(lp2606
g180
ag335
ag465
ag134
ag345
ag466
ag822
ag803
asVwheat
p2607
(lp2608
g296
asVarrow
p2609
(lp2610
g841
asVraincoat
p2611
(lp2612
g42
ag116
ag120
asVeach
p2613
(lp2614
g69
asVbroker
p2615
(lp2616
g148
ag149
asVVietnam
p2617
(lp2618
g112
ag113
asVcustoms officer
p2619
(lp2620
g6
asVcycling
p2621
(lp2622
g152
ag153
asVstrainer
p2623
(lp2624
g180
asVdefrost heater
p2625
(lp2626
g516
asVsoccer field
p2627
(lp2628
g90
asVstone
p2629
(lp2630
g229
ag803
asVpackage
p2631
(lp2632
g39
asVjeep
p2633
(lp2634
g28
asVisland
p2635
(lp2636
g19
asVlopping shears
p2637
(lp2638
g391
asVshrimp
p2639
(lp2640
g34
ag909
ag208
ag910
asVgums
p2641
(lp2642
g394
ag124
asVmugging
p2643
(lp2644
g670
asVwolf
p2645
(lp2646
g165
ag34
ag166
asVtoothpaste
p2647
(lp2648
g124
asVchive
p2649
(lp2650
g1103
asVroad
p2651
(lp2652
g160
asVshoplifting
p2653
(lp2654
g670
asVbutter compartment
p2655
(lp2656
g516
asVT-bone
p2657
(lp2658
g285
asVtitanium
p2659
(lp2660
g529
ag229
asVplayground
p2661
(lp2662
g90
asVwhip cream
p2663
(lp2664
g72
ag73
asVburglar
p2665
(lp2666
g148
ag149
ag822
ag763
asS'weight'
p2667
(lp2668
g25
asVjunk mail
p2669
(lp2670
g483
asVstraight razor
p2671
(lp2672
g45
asVcan opener
p2673
(lp2674
g180
asS'volumne'
p2675
(lp2676
g25
asVcarbon dioxide
p2677
(lp2678
g56
asVhen
p2679
(lp2680
g323
ag35
ag324
ag36
asVvalley
p2681
(lp2682
g18
ag19
asVBlack-tailed Rattlesnake
p2683
(lp2684
g443
asVsmuggling
p2685
(lp2686
g670
asVpitcher
p2687
(lp2688
g335
asVeyeliner
p2689
(lp2690
g594
ag1373
asS'most days'
p2691
(lp2692
g96
asVmobile home
p2693
(lp2694
g193
asVsoprano
p2695
(lp2696
g145
asVcycle
p2697
(lp2698
g157
asVcurtain
p2699
(lp2700
g59
ag60
asVroom service
p2701
(lp2702
g412
asVIrish Setter
p2703
(lp2704
g241
asVbarber shop
p2705
(lp2706
g88
ag299
asVfraud
p2707
(lp2708
g670
asS'new year'
p2709
(lp2710
g1278
asVcirculation
p2711
(lp2712
g205
asVcomics
p2713
(lp2714
g205
asVdiving board
p2715
(lp2716
g417
asVbaseball cat
p2717
(lp2718
g117
ag456
asVstrawberry
p2719
(lp2720
g610
ag320
asVsuitcase
p2721
(lp2722
g244
asVschoolboy
p2723
(lp2724
g436
asVsecond molar
p2725
(lp2726
g63
asVtoilet
p2727
(lp2728
g59
ag60
asVgong
p2729
(lp2730
g52
ag53
ag260
asVcinema
p2731
(lp2732
g299
asVdeer
p2733
(lp2734
g165
ag34
asVtennis shoes
p2735
(lp2736
g372
asVThursday
p2737
(lp2738
g250
asVnickel
p2739
(lp2740
g529
asVcream
p2741
(lp2742
g594
ag946
ag947
asS'periodic table'
p2743
(lp2744
g529
asVshort grain rice
p2745
(lp2746
g296
asVbackstroke
p2747
(lp2748
g417
ag700
asVrubber
p2749
(lp2750
g118
ag229
asS'beverage'
p2751
(lp2752
g367
asVweeder
p2753
(lp2754
g391
asVpuppy
p2755
(lp2756
g165
ag34
asVblackboard eraser
p2757
(lp2758
g89
asValmanac
p2759
(lp2760
g127
asVWestern Diamondback Rattlesnake
p2761
(lp2762
g443
asVteeth
p2763
(lp2764
g185
ag185
ag186
ag187
ag63
ag124
asVpear
p2765
(lp2766
g610
ag320
asVcarpenter
p2767
(lp2768
g148
ag149
asVsquash
p2769
(lp2770
g152
ag154
asVduffle bag
p2771
(lp2772
g244
asVbrandy
p2773
(lp2774
g471
ag367
asVconcrete mixer
p2775
(lp2776
g28
asVpeak
p2777
(lp2778
g19
asVrevolve
p2779
(lp2780
g157
asS'building'
p2781
(lp2782
g88
ag299
ag48
ag60
asVsardine
p2783
(lp2784
g909
ag910
asVMexican
p2785
(lp2786
g504
asVMyanmar
p2787
(lp2788
g113
asVrear window
p2789
(lp2790
g490
asVmask
p2791
(lp2792
g594
asVdog paddle
p2793
(lp2794
g417
asVtreason
p2795
(lp2796
g670
asVplatter
p2797
(lp2798
g1116
asVresolution
p2799
(lp2800
g1278
asVCanada
p2801
(lp2802
g354
asVall
p2803
(lp2804
g69
asVFox Terrier
p2805
(lp2806
g241
asVpheasant
p2807
(lp2808
g35
ag36
asVmonth
p2809
(lp2810
g157
asVfirst premolar
p2811
(lp2812
g63
asVzinc
p2813
(lp2814
g529
asVdahlia
p2815
(lp2816
g109
asVdish
p2817
(lp2818
g335
ag134
asVcarpet
p2819
(lp2820
g59
ag60
asVtaxicab
p2821
(lp2822
g28
asVapartment
p2823
(lp2824
g60
asVbaggage carrier
p2825
(lp2826
g169
asVspirit
p2827
(lp2828
g540
asS'dairy'
p2829
(lp2830
g946
ag947
asVrobber
p2831
(lp2832
g763
asVArizona Black Rattlesnake
p2833
(lp2834
g443
asVdressing
p2835
(lp2836
g465
ag466
asVsmile
p2837
(lp2838
g124
asVwhite bread
p2839
(lp2840
g198
ag199
asVshoplifter
p2841
(lp2842
g763
asVSchnauzer
p2843
(lp2844
g241
asVturnips
p2845
(lp2846
g607
asVsong
p2847
(lp2848
g145
asVscrewdriver
p2849
(lp2850
g140
asS'fat'
p2851
(lp2852
g73
asVnearly always
p2853
(lp2854
g79
asVfan
p2855
(lp2856
g59
ag60
ag516
asS'headgear'
p2857
(lp2858
g117
ag456
asVfloor tile
p2859
(lp2860
g48
ag49
asVAiredale
p2861
(lp2862
g241
asVsecond premolar
p2863
(lp2864
g63
asS'farms'
p2865
(lp2866
g323
asVunderclothes
p2867
(lp2868
g42
asVgrandfather
p2869
(lp2870
g76
asVtrench
p2871
(lp2872
g116
ag120
asVsand
p2873
(lp2874
g229
asVsaxophone
p2875
(lp2876
g145
ag52
ag315
asVstudy
p2877
(lp2878
g342
asVperiodontal
p2879
(lp2880
g124
asVorange tree
p2881
(lp2882
g709
asVmanslaughter
p2883
(lp2884
g670
asVturn signal
p2885
(lp2886
g143
asVAiredale Terrier
p2887
(lp2888
g241
asVten
p2889
(lp2890
g14
ag15
asVcarry-on bag
p2891
(lp2892
g244
asVtea
p2893
(lp2894
g465
ag471
ag466
ag367
asVgrasshopper
p2895
(lp2896
g291
ag555
asVtwice a month
p2897
(lp2898
g79
asVlawyer
p2899
(lp2900
g148
ag149
ag822
ag822
ag265
asVMerry Christmas
p2901
(lp2902
g82
asVUzbekistan
p2903
(lp2904
g354
asVtenor
p2905
(lp2906
g145
asS'menswear'
p2907
(lp2908
g120
asVclock
p2909
(lp2910
g89
asVsun
p2911
(lp2912
g85
asVstool
p2913
(lp2914
g220
ag221
asVplatinum blonde hair
p2915
(lp2916
g66
asVnurse
p2917
(lp2918
g148
ag149
asVwrecker
p2919
(lp2920
g28
asVacknowledgments
p2921
(lp2922
g22
asS'parts of the body'
p2923
(lp2924
g187
asVtoes
p2925
(lp2926
g185
ag186
ag187
ag188
asS'newspaper'
p2927
(lp2928
g205
asVtrunk
p2929
(lp2930
g143
ag144
ag490
ag244
asVtortoise
p2931
(lp2932
g34
asVTwin Spotted Rattlesnake
p2933
(lp2934
g443
asVvegetarian
p2935
(lp2936
g134
asVzip code
p2937
(lp2938
g483
asVsoldier
p2939
(lp2940
g148
ag149
asVairport
p2941
(lp2942
g88
ag299
ag6
asVdogsled
p2943
(lp2944
g131
asVlasagna
p2945
(lp2946
g722
asVhamster
p2947
(lp2948
g165
ag34
asVpick
p2949
(lp2950
g288
asVcowboy hat
p2951
(lp2952
g217
asVfoxglove
p2953
(lp2954
g109
asS'musical instrument'
p2955
(lp2956
g145
ag52
ag314
ag53
ag315
ag260
asVvending machine
p2957
(lp2958
g39
asS'family'
p2959
(lp2960
g237
ag238
ag76
asS'stave'
p2961
(lp2962
g145
ag52
ag314
ag53
ag315
ag260
asValuminium
p2963
(lp2964
g529
asVFourth of July
p2965
(lp2966
g202
asVocelot
p2967
(lp2968
g166
asVNigeria
p2969
(lp2970
g112
asVherring
p2971
(lp2972
g909
ag910
asVEurope
p2973
(lp2974
g982
asVeye
p2975
(lp2976
g187
ag394
asVColorado Desert Sidewinder
p2977
(lp2978
g443
asVtwo
p2979
(lp2980
g14
ag15
asVSpaniel
p2981
(lp2982
g241
asVgum-line
p2983
(lp2984
g124
asVfragrance
p2985
(lp2986
g594
asVRussian
p2987
(lp2988
g504
asVraft
p2989
(lp2990
g1017
asS'injury'
p2991
(lp2992
g300
asVladybug
p2993
(lp2994
g291
ag291
asVdiamond
p2995
(lp2996
g229
asVdoor
p2997
(lp2998
g59
ag490
ag60
asVcheck book
p2999
(lp3000
g327
asVoboe
p3001
(lp3002
g145
ag52
ag315
ag260
asVPhilippines
p3003
(lp3004
g112
asVfaucet
p3005
(lp3006
g60
asVchimpanzee
p3007
(lp3008
g165
ag34
asVrib eye
p3009
(lp3010
g285
asVMorocco
p3011
(lp3012
g354
ag113
asVgrapefruit knife
p3013
(lp3014
g345
asVsuite
p3015
(lp3016
g412
asVnineteen
p3017
(lp3018
g15
asS'town'
p3019
(lp3020
g88
ag160
asVgrill
p3021
(lp3022
g180
ag134
asVnone
p3023
(lp3024
g69
asVhour
p3025
(lp3026
g157
asVlocker room
p3027
(lp3028
g90
asVdew
p3029
(lp3030
g85
asVcocktail party
p3031
(lp3032
g105
ag106
asVmall
p3033
(lp3034
g88
asVMartian
p3035
(lp3036
g540
asVnine
p3037
(lp3038
g14
ag15
asVdump truck
p3039
(lp3040
g28
asVden
p3041
(lp3042
g342
asVseagull
p3043
(lp3044
g35
ag36
asVscramble
p3045
(lp3046
g180
asS'history'
p3047
(lp3048
g99
asVshark
p3049
(lp3050
g165
ag34
ag909
ag910
asVhamburger
p3051
(lp3052
g465
ag135
ag466
asVdragonfly
p3053
(lp3054
g291
ag555
asVbaggage claim check
p3055
(lp3056
g6
asVNepal
p3057
(lp3058
g354
asVlife guard
p3059
(lp3060
g417
asVsphere
p3061
(lp3062
g278
asVlisted number
p3063
(lp3064
g31
asVrainstorm
p3065
(lp3066
g85
asS'numbers'
p3067
(lp3068
g14
ag15
asVschoolgirl
p3069
(lp3070
g436
asVpond
p3071
(lp3072
g18
ag19
asVairplane
p3073
(lp3074
g130
ag311
asVVenezuelan
p3075
(lp3076
g504
asVdress
p3077
(lp3078
g42
asVbasketball shoes
p3079
(lp3080
g372
asVhomicide
p3081
(lp3082
g670
asVseaplane
p3083
(lp3084
g1017
asVtriathlon
p3085
(lp3086
g153
asVcourt
p3087
(lp3088
g265
asVfront tire
p3089
(lp3090
g169
asVcast iron
p3091
(lp3092
g229
asVspeedboat
p3093
(lp3094
g1017
asVrye
p3095
(lp3096
g296
ag296
asVoccasionally
p3097
(lp3098
g96
ag79
asVtepee
p3099
(lp3100
g193
asVgoat
p3101
(lp3102
g165
ag323
ag34
ag324
asVEnglish muffins
p3103
(lp3104
g198
ag199
asVplant
p3105
(lp3106
g288
asVsandwich
p3107
(lp3108
g208
asValmost always
p3109
(lp3110
g79
asS'most of the time'
p3111
(lp3112
g96
asVdaisy
p3113
(lp3114
g109
asVplane
p3115
(lp3116
g140
asVblood
p3117
(lp3118
g187
ag232
asVsoftball
p3119
(lp3120
g152
ag153
asVSwiss
p3121
(lp3122
g504
asVSyria
p3123
(lp3124
g113
asVV-necked sweater
p3125
(lp3126
g116
ag120
asVsalt shaker
p3127
(lp3128
g1116
asVcoat
p3129
(lp3130
g42
ag82
asVred hair
p3131
(lp3132
g66
asVorchestra bells
p3133
(lp3134
g52
ag53
asVvolleyball
p3135
(lp3136
g152
ag153
ag154
asVdragon
p3137
(lp3138
g540
asVhalibut
p3139
(lp3140
g909
ag910
asS'breads'
p3141
(lp3142
g198
asVegg
p3143
(lp3144
g208
asVpatio
p3145
(lp3146
g342
asVsoon
p3147
(lp3148
g211
ag96
asVradar
p3149
(lp3150
g85
asVNew Year's Day
p3151
(lp3152
g1278
asVpepper shaker
p3153
(lp3154
g1116
asVclarinet
p3155
(lp3156
g145
ag52
ag315
ag260
asVMarch
p3157
(lp3158
g306
asVgrand piano
p3159
(lp3160
g52
asVheron
p3161
(lp3162
g35
ag36
asVpeanuts
p3163
(lp3164
g208
asVnuclear bomb
p3165
(lp3166
g803
asVsoccer
p3167
(lp3168
g152
ag154
asVsauce
p3169
(lp3170
g134
ag870
ag871
asS'carpentry'
p3171
(lp3172
g140
asVbackache
p3173
(lp3174
g301
asS'food'
p3175
(lp3176
g180
ag480
ag335
ag610
ag465
ag564
ag134
ag285
ag320
ag208
ag466
ag946
ag399
ag709
asVtape measure
p3177
(lp3178
g1141
asVSiberian
p3179
(lp3180
g892
asVear muffs
p3181
(lp3182
g117
ag456
asVfoot
p3183
(lp3184
g185
ag186
ag187
ag188
ag25
asVvalentine
p3185
(lp3186
g841
ag841
asVlawn edger
p3187
(lp3188
g391
asValways
p3189
(lp3190
g211
ag96
ag79
asVlater than
p3191
(lp3192
g96
asVdrake
p3193
(lp3194
g35
ag36
asVlawn rake
p3195
(lp3196
g391
asVmango tree
p3197
(lp3198
g709
asVathletics
p3199
(lp3200
g152
ag153
asVbiscuits
p3201
(lp3202
g198
ag199
asVtrailer
p3203
(lp3204
g193
asVnicotine
p3205
(lp3206
g39
asVaccelerator
p3207
(lp3208
g143
ag144
asVhouse
p3209
(lp3210
g88
ag59
ag299
ag60
ag342
ag193
ag193
asVfish
p3211
(lp3212
g165
ag34
ag909
ag208
ag399
ag910
asVberet
p3213
(lp3214
g117
ag456
asVgarden hoe
p3215
(lp3216
g391
asS'ball'
p3217
(lp3218
g154
asVfist
p3219
(lp3220
g330
asS'measurement'
p3221
(lp3222
g25
asVinsurance
p3223
(lp3224
g483
asS'cheque book'
p3225
(lp3226
g327
asS'flower'
p3227
(lp3228
g109
ag841
asVlipstick
p3229
(lp3230
g594
ag1373
asVlots of
p3231
(lp3232
g69
asVpigeon
p3233
(lp3234
g34
asVdugout
p3235
(lp3236
g589
asVsizzle cymbal
p3237
(lp3238
g52
ag53
asVhill
p3239
(lp3240
g18
ag19
asVcyclone
p3241
(lp3242
g85
asVmittens
p3243
(lp3244
g82
asVUkraine
p3245
(lp3246
g354
ag113
asVfiber
p3247
(lp3248
g229
asVbass
p3249
(lp3250
g909
ag145
ag910
asVboarding pass
p3251
(lp3252
g6
asVreference book
p3253
(lp3254
g127
asVtable tennis
p3255
(lp3256
g152
ag153
ag154
asVcockroach
p3257
(lp3258
g291
ag555
asVUnited States
p3259
(lp3260
g112
asS'qualify'
p3261
(lp3262
g91
asVcookie
p3263
(lp3264
g480
asVash
p3265
(lp3266
g3
ag39
asVtrick or treat
p3267
(lp3268
g507
asVblister
p3269
(lp3270
g300
asValbatross
p3271
(lp3272
g35
ag36
asVAlgeria
p3273
(lp3274
g354
asVstampede
p3275
(lp3276
g217
asVconference call
p3277
(lp3278
g31
asVbumper
p3279
(lp3280
g143
ag144
ag490
asVlute
p3281
(lp3282
g52
asS'castle'
p3283
(lp3284
g99
asVcurly hair
p3285
(lp3286
g66
asVbody check
p3287
(lp3288
g6
asVcopper
p3289
(lp3290
g529
ag229
asVstepmother
p3291
(lp3292
g237
ag238
asVcrew-neck sweater
p3293
(lp3294
g116
ag120
asVdoughnuts
p3295
(lp3296
g198
ag72
ag199
ag73
asVskirt marker
p3297
(lp3298
g1141
asVtelephone operator
p3299
(lp3300
g31
asVplum tree
p3301
(lp3302
g709
asVfeet
p3303
(lp3304
g185
ag186
ag187
ag188
ag372
asVsailor
p3305
(lp3306
g148
ag149
asVpedal
p3307
(lp3308
g169
asVnarcissus
p3309
(lp3310
g109
asVbath tub
p3311
(lp3312
g59
ag60
asVspeedometer
p3313
(lp3314
g143
asVmaple
p3315
(lp3316
g3
asVhorse
p3317
(lp3318
g165
ag130
ag323
ag34
ag217
ag131
ag324
asVroad grader
p3319
(lp3320
g28
asS'temperature'
p3321
(lp3322
g338
ag85
ag339
asVjet
p3323
(lp3324
g130
ag311
asVtwenty
p3325
(lp3326
g15
asVbrisket
p3327
(lp3328
g285
asVshooting
p3329
(lp3330
g153
asVscallion
p3331
(lp3332
g1103
asVpaint
p3333
(lp3334
g60
asVstorm
p3335
(lp3336
g85
asVcastanet
p3337
(lp3338
g260
asVmoat
p3339
(lp3340
g99
ag100
asVbanana
p3341
(lp3342
g610
ag320
asVstore
p3343
(lp3344
g160
asVheadache
p3345
(lp3346
g301
asVbow and arrow
p3347
(lp3348
g803
asVdrapes
p3349
(lp3350
g60
asVhotel
p3351
(lp3352
g412
asVpark
p3353
(lp3354
g160
asVhouse dressing
p3355
(lp3356
g430
ag431
asVdentist
p3357
(lp3358
g148
ag63
ag149
ag124
asVtyphoon
p3359
(lp3360
g85
asVrifle
p3361
(lp3362
g217
ag803
asVinterviewer
p3363
(lp3364
g205
asVstairs
p3365
(lp3366
g59
ag60
asVMojave Desert Sidewinder
p3367
(lp3368
g443
asVtortellini
p3369
(lp3370
g722
asVlegs
p3371
(lp3372
g185
ag186
ag187
ag188
asValmost never
p3373
(lp3374
g212
ag79
asS'bag'
p3375
(lp3376
g244
asVbox end wrench
p3377
(lp3378
g140
asS'outdoors'
p3379
(lp3380
g19
asVsweet potato
p3381
(lp3382
g564
ag607
ag1024
asVweapon
p3383
(lp3384
g822
ag803
asVpickpocket
p3385
(lp3386
g763
asS'headwear'
p3387
(lp3388
g117
ag456
asVfootnote
p3389
(lp3390
g22
asVwhite board
p3391
(lp3392
g89
asS'juicy'
p3393
(lp3394
g610
asVblack cat
p3395
(lp3396
g507
asVjuice
p3397
(lp3398
g471
ag367
asVgasket
p3399
(lp3400
g516
asS'organs'
p3401
(lp3402
g232
asVsell
p3403
(lp3404
g288
asVdepartment store
p3405
(lp3406
g88
ag299
asVcardigan
p3407
(lp3408
g116
ag120
asVUkrainian
p3409
(lp3410
g504
asVspaghetti
p3411
(lp3412
g722
asVcave
p3413
(lp3414
g19
ag193
asVtrowel
p3415
(lp3416
g391
asVcouch
p3417
(lp3418
g59
ag60
asVsweet pickle
p3419
(lp3420
g870
ag871
asVlip
p3421
(lp3422
g187
ag394
asVonce a year
p3423
(lp3424
g79
asVbanjo
p3425
(lp3426
g145
ag52
asVbrace
p3427
(lp3428
g140
asVgym
p3429
(lp3430
g90
asVhourly
p3431
(lp3432
g79
asVblackboard
p3433
(lp3434
g89
asVeggs
p3435
(lp3436
g399
asVflute
p3437
(lp3438
g145
ag52
ag315
ag260
asVsalmon
p3439
(lp3440
g909
ag910
asS'cigarette'
p3441
(lp3442
g39
asVcrow's feet
p3443
(lp3444
g394
asVchard
p3445
(lp3446
g654
asVoyster
p3447
(lp3448
g34
ag909
ag910
asVarchery
p3449
(lp3450
g153
asVtouch tone phone
p3451
(lp3452
g31
asVgrams
p3453
(lp3454
g25
asVGreen Snake
p3455
(lp3456
g766
asVEgypt
p3457
(lp3458
g112
ag113
asVclear
p3459
(lp3460
g338
ag339
asVsometimes
p3461
(lp3462
g211
ag96
ag212
ag79
asVcover
p3463
(lp3464
g288
asVPO box
p3465
(lp3466
g483
asVhyena
p3467
(lp3468
g166
asVtrain station
p3469
(lp3470
g88
ag160
ag299
asVat the same time as
p3471
(lp3472
g96
asVtenor drum
p3473
(lp3474
g52
ag53
asVhips
p3475
(lp3476
g185
asVserving bowl
p3477
(lp3478
g1116
asVhumid
p3479
(lp3480
g338
ag339
asVcereal
p3481
(lp3482
g208
ag399
asVgold
p3483
(lp3484
g529
ag229
asVsparrow
p3485
(lp3486
g34
ag35
ag36
asVswelling
p3487
(lp3488
g300
asVgreen tea
p3489
(lp3490
g471
ag367
asS'semibreve'
p3491
(lp3492
g145
ag52
ag314
ag53
ag315
ag260
asVmelody
p3493
(lp3494
g145
asVfine
p3495
(lp3496
g265
asS'occupation'
p3497
(lp3498
g148
ag149
asVchimes
p3499
(lp3500
g157
ag52
ag53
asVsideboard
p3501
(lp3502
g220
ag221
asVcopyright
p3503
(lp3504
g22
asVtimbales
p3505
(lp3506
g52
ag53
asVjustice
p3507
(lp3508
g265
ag265
asVcondor
p3509
(lp3510
g35
ag36
asVscooter
p3511
(lp3512
g131
ag28
asS'writer'
p3513
(lp3514
g22
ag127
asVrear brake
p3515
(lp3516
g169
asVflugelhorn
p3517
(lp3518
g52
ag314
asVcircle
p3519
(lp3520
g278
asVporcupine
p3521
(lp3522
g34
ag166
asVtriangle
p3523
(lp3524
g278
ag52
ag53
ag260
asS'liquid'
p3525
(lp3526
g471
asVsunny
p3527
(lp3528
g338
ag85
ag339
asVThanksgiving
p3529
(lp3530
g202
asVGreen Mambas
p3531
(lp3532
g643
asVsmall intestine
p3533
(lp3534
g232
asVsport coat
p3535
(lp3536
g116
ag120
asVbasement
p3537
(lp3538
g59
ag60
ag342
asVduring
p3539
(lp3540
g211
ag96
asVsilk
p3541
(lp3542
g118
asVchimney
p3543
(lp3544
g60
asVLabor Day
p3545
(lp3546
g202
asVspikes
p3547
(lp3548
g372
asVabominable snowman
p3549
(lp3550
g540
asVperfume
p3551
(lp3552
g594
asVinvestigate
p3553
(lp3554
g226
asVgloves
p3555
(lp3556
g42
asVair conditioner
p3557
(lp3558
g60
asVriver
p3559
(lp3560
g18
ag909
ag19
ag417
ag910
asVmouthwash
p3561
(lp3562
g124
asVknickers
p3563
(lp3564
g119
ag121
asVcrane truck
p3565
(lp3566
g28
asS'sew'
p3567
(lp3568
g1141
ag118
asS'scenery'
p3569
(lp3570
g18
asVseventeen
p3571
(lp3572
g15
asVmeteorology
p3573
(lp3574
g85
asVequinox
p3575
(lp3576
g157
asVblack hair
p3577
(lp3578
g66
asVprincipal
p3579
(lp3580
g436
asVham knife
p3581
(lp3582
g345
asVFrance
p3583
(lp3584
g112
ag113
asVgoing away party
p3585
(lp3586
g105
ag106
asVtracing wheel
p3587
(lp3588
g1141
asVChinese cabbage
p3589
(lp3590
g607
ag654
asVsea
p3591
(lp3592
g18
ag909
ag19
ag910
asVjury
p3593
(lp3594
g265
asVcommemorative stamp
p3595
(lp3596
g483
asVarm
p3597
(lp3598
g186
ag187
asVknees
p3599
(lp3600
g185
ag186
ag187
ag188
asVbaritone
p3601
(lp3602
g145
ag52
ag314
asVpostal clerk
p3603
(lp3604
g483
asVweeding hoe
p3605
(lp3606
g391
asVthongs
p3607
(lp3608
g372
asVplywood
p3609
(lp3610
g48
ag60
ag49
asVweekly
p3611
(lp3612
g79
asVnumerous
p3613
(lp3614
g69
asVrecently
p3615
(lp3616
g211
ag96
ag212
asVasphalt shingle
p3617
(lp3618
g48
ag49
asVmailbox
p3619
(lp3620
g483
asVspray
p3621
(lp3622
g288
asVseeder
p3623
(lp3624
g391
asVhubcap
p3625
(lp3626
g143
ag490
asVcondo
p3627
(lp3628
g193
asVzipper
p3629
(lp3630
g1141
asVmain course
p3631
(lp3632
g134
asVbronze
p3633
(lp3634
g529
ag229
asVboth
p3635
(lp3636
g69
asVrestaurant
p3637
(lp3638
g88
ag299
ag134
ag285
ag466
asVpink grapefruit
p3639
(lp3640
g667
asVsuede
p3641
(lp3642
g118
asVeggplant
p3643
(lp3644
g564
ag607
asVvault
p3645
(lp3646
g255
asVpin cushion
p3647
(lp3648
g1141
asVpendulum
p3649
(lp3650
g157
asVTurkish
p3651
(lp3652
g504
asVbattery
p3653
(lp3654
g143
asVsweet
p3655
(lp3656
g841
asVloan
p3657
(lp3658
g255
asS'harbour'
p3659
(lp3660
g1412
asVT-strap shoes
p3661
(lp3662
g372
asVbadminton
p3663
(lp3664
g153
asVsimply
p3665
(lp3666
g212
asVweasel
p3667
(lp3668
g34
asVchurch
p3669
(lp3670
g88
ag299
asVdouble-edge blade
p3671
(lp3672
g45
asVsingle with bath
p3673
(lp3674
g412
asVhovercraft
p3675
(lp3676
g589
ag1017
asVbelt
p3677
(lp3678
g42
ag116
ag120
asVplatinum
p3679
(lp3680
g529
asVsuspenders
p3681
(lp3682
g116
ag120
asVbody lotion
p3683
(lp3684
g594
asVmiddle finger
p3685
(lp3686
g330
asVBulldog
p3687
(lp3688
g241
asVdibble
p3689
(lp3690
g391
asVbuzzard
p3691
(lp3692
g35
ag36
asVbrick
p3693
(lp3694
g60
ag229
asVpartly
p3695
(lp3696
g212
asVsquirrel
p3697
(lp3698
g165
ag34
asVkilograms
p3699
(lp3700
g25
asS'orchestral'
p3701
(lp3702
g260
asS'gas'
p3703
(lp3704
g56
asVcoffee shop
p3705
(lp3706
g412
asVliver
p3707
(lp3708
g232
asVpedestrian crossing
p3709
(lp3710
g160
asVinstructor
p3711
(lp3712
g436
asVbean sprouts
p3713
(lp3714
g247
asVevery-time
p3715
(lp3716
g79
asVwavy hair
p3717
(lp3718
g66
asVdill pickle
p3719
(lp3720
g870
ag871
asVbill
p3721
(lp3722
g465
ag466
asVtelephone booth
p3723
(lp3724
g31
asVaquatics
p3725
(lp3726
g153
asVscuba diving
p3727
(lp3728
g152
asVmoustache
p3729
(lp3730
g187
asS'swim'
p3731
(lp3732
g417
ag700
asVpound
p3733
(lp3734
g25
asVItaly
p3735
(lp3736
g112
ag113
asVcentury
p3737
(lp3738
g157
asVmoth
p3739
(lp3740
g291
asVwisdom teeth
p3741
(lp3742
g63
asVquail
p3743
(lp3744
g35
ag36
asVcarbon
p3745
(lp3746
g229
asVEaster
p3747
(lp3748
g202
asVchauffeur
p3749
(lp3750
g148
ag149
asVdeath penalty
p3751
(lp3752
g265
asVshirt
p3753
(lp3754
g42
ag116
ag120
asVdial phone
p3755
(lp3756
g31
asVnon-smoker
p3757
(lp3758
g39
asVbutcher
p3759
(lp3760
g148
ag149
asVchicory
p3761
(lp3762
g654
asVspade
p3763
(lp3764
g391
asVviola
p3765
(lp3766
g145
ag260
asS'ruler'
p3767
(lp3768
g25
asVcomposition
p3769
(lp3770
g145
asVirregular shape
p3771
(lp3772
g278
asVhallway
p3773
(lp3774
g59
ag342
asS'fatty'
p3775
(lp3776
g73
asVsnail
p3777
(lp3778
g165
ag34
ag291
asVmountain
p3779
(lp3780
g18
ag19
asVpomegranate
p3781
(lp3782
g320
asVleopard
p3783
(lp3784
g34
ag166
asVyesterday
p3785
(lp3786
g211
ag96
asVcement
p3787
(lp3788
g48
ag60
ag229
ag49
asVcucumber
p3789
(lp3790
g564
ag607
asVbirch
p3791
(lp3792
g3
asVsandals
p3793
(lp3794
g372
asValibi
p3795
(lp3796
g822
asVwerewolf
p3797
(lp3798
g540
asVcheek
p3799
(lp3800
g187
ag394
asVconcrete
p3801
(lp3802
g60
asVCongo
p3803
(lp3804
g112
asVdinner party
p3805
(lp3806
g105
ag105
ag106
ag106
asVcrayfish
p3807
(lp3808
g909
ag910
asS'pollen'
p3809
(lp3810
g109
asVchord
p3811
(lp3812
g145
asVcornet
p3813
(lp3814
g52
ag314
ag260
asS'shape'
p3815
(lp3816
g278
asVatomic
p3817
(lp3818
g157
asVonce upon a time
p3819
(lp3820
g96
asS'continent'
p3821
(lp3822
g982
asVcut
p3823
(lp3824
g300
asVcup
p3825
(lp3826
g335
ag465
ag134
ag1116
ag466
ag124
asVdoor handle
p3827
(lp3828
g490
asVJapanese Bobtail
p3829
(lp3830
g892
asVgrapefruit
p3831
(lp3832
g610
ag667
ag320
asVsun burn
p3833
(lp3834
g300
asVGermany
p3835
(lp3836
g112
ag113
asVkumquat
p3837
(lp3838
g667
ag320
asVcommunity service
p3839
(lp3840
g265
asVbreaststroke
p3841
(lp3842
g417
ag700
asVprecipitation
p3843
(lp3844
g85
asVPakistan
p3845
(lp3846
g112
ag113
asVrotate
p3847
(lp3848
g157
asVvibraphone
p3849
(lp3850
g52
ag53
asS'shapes'
p3851
(lp3852
g278
asVeel
p3853
(lp3854
g909
ag910
asVnipple
p3855
(lp3856
g188
asVland mine
p3857
(lp3858
g803
asVmoccasins
p3859
(lp3860
g372
asVwalrus
p3861
(lp3862
g34
asVtrack and field
p3863
(lp3864
g152
asVChristmas party
p3865
(lp3866
g105
ag106
asVPekingese
p3867
(lp3868
g241
asVoften
p3869
(lp3870
g211
ag96
ag79
asVsea mail
p3871
(lp3872
g483
asVbarbecue party
p3873
(lp3874
g105
ag106
asVsome
p3875
(lp3876
g69
asVback
p3877
(lp3878
g185
ag186
ag187
ag188
asS'phone'
p3879
(lp3880
g31
asVFahrenheit
p3881
(lp3882
g85
asVlong grain rice
p3883
(lp3884
g296
asVlips
p3885
(lp3886
g185
asVcicada
p3887
(lp3888
g555
asVpalm
p3889
(lp3890
g330
asVyouth hostel
p3891
(lp3892
g412
asVmirror
p3893
(lp3894
g59
ag60
asVcandle
p3895
(lp3896
g82
asVlightning
p3897
(lp3898
g85
asVsaucer
p3899
(lp3900
g335
ag1116
asS'scale'
p3901
(lp3902
g25
asS'pet'
p3903
(lp3904
g241
asVpen
p3905
(lp3906
g89
asVsneakers
p3907
(lp3908
g372
asVsimmer
p3909
(lp3910
g180
asVslash
p3911
(lp3912
g501
asVradiator grill
p3913
(lp3914
g490
asVtemple
p3915
(lp3916
g394
ag299
asVnose
p3917
(lp3918
g185
ag186
ag187
ag394
ag188
asVrobbery
p3919
(lp3920
g670
asVbutter knife
p3921
(lp3922
g345
asVrug
p3923
(lp3924
g59
ag60
asVelementary school
p3925
(lp3926
g91
asVonce in a while
p3927
(lp3928
g96
ag79
asVBoa
p3929
(lp3930
g766
asVraspberry
p3931
(lp3932
g320
asVRussia
p3933
(lp3934
g112
ag113
asS'wildlife'
p3935
(lp3936
g166
asVcertificate
p3937
(lp3938
g689
asVstation-to-station call
p3939
(lp3940
g31
asVwrinkles
p3941
(lp3942
g394
asVhinge
p3943
(lp3944
g60
asVbeans
p3945
(lp3946
g564
ag607
ag399
asVgraduation party
p3947
(lp3948
g105
ag106
asVSiberian Husky
p3949
(lp3950
g241
asVbow tie
p3951
(lp3952
g116
ag120
asVrye bread
p3953
(lp3954
g198
ag199
asVexplanatory notes
p3955
(lp3956
g22
asS'brass'
p3957
(lp3958
g314
ag529
ag229
asVsourdough bread
p3959
(lp3960
g198
ag199
asVicebreaker
p3961
(lp3962
g589
asVholster
p3963
(lp3964
g217
asVpentagon
p3965
(lp3966
g278
asVrolls
p3967
(lp3968
g198
ag199
asVgeranium
p3969
(lp3970
g109
asVspike shoes
p3971
(lp3972
g372
asVfew
p3973
(lp3974
g69
asVparsnip
p3975
(lp3976
g1024
asVbowling alley
p3977
(lp3978
g88
ag299
asVsuit
p3979
(lp3980
g42
asVoils
p3981
(lp3982
g399
asVpastor
p3983
(lp3984
g148
ag149
asVt-shirt
p3985
(lp3986
g42
asVcloth
p3987
(lp3988
g1141
asVhail
p3989
(lp3990
g85
asVfront page
p3991
(lp3992
g205
asVcrane
p3993
(lp3994
g1412
asVmonthly
p3995
(lp3996
g79
asVmost times
p3997
(lp3998
g79
asVapricot
p3999
(lp4000
g320
asVAfrica
p4001
(lp4002
g982
asVglass cover
p4003
(lp4004
g516
asVheavy smoker
p4005
(lp4006
g39
asS'mobile'
p4007
(lp4008
g31
asVslander
p4009
(lp4010
g670
asVcontinuously
p4011
(lp4012
g79
asValarm
p4013
(lp4014
g822
ag157
asVstreetcar
p4015
(lp4016
g131
asVFather's Day
p4017
(lp4018
g202
asVcafe
p4019
(lp4020
g299
asVkidney
p4021
(lp4022
g135
asVcotton
p4023
(lp4024
g118
ag229
asVrainbow
p4025
(lp4026
g85
asVrainy
p4027
(lp4028
g338
ag85
ag339
asVlemon
p4029
(lp4030
g610
ag667
ag320
asVpeach
p4031
(lp4032
g610
ag320
asVMay
p4033
(lp4034
g306
asVscrape
p4035
(lp4036
g300
asVdrizzle
p4037
(lp4038
g85
asVmattock
p4039
(lp4040
g391
asVinformation desk
p4041
(lp4042
g412
asVfreighter
p4043
(lp4044
g1017
asVmayonnaise
p4045
(lp4046
g870
ag208
ag871
asVBanded Rock Rattlesnake
p4047
(lp4048
g443
asVbongos
p4049
(lp4050
g52
ag53
asVcherry tree
p4051
(lp4052
g709
asVcellar
p4053
(lp4054
g60
ag342
asVmustard
p4055
(lp4056
g870
ag871
asVin a few minutes
p4057
(lp4058
g96
asVprosecution
p4059
(lp4060
g265
asS'insect'
p4061
(lp4062
g291
ag555
asVreservation
p4063
(lp4064
g412
asVdesert
p4065
(lp4066
g18
ag19
asVrearview mirror
p4067
(lp4068
g143
ag144
asVfighter
p4069
(lp4070
g311
asVtrain
p4071
(lp4072
g130
ag131
asVparking meter
p4073
(lp4074
g160
asVlung cancer
p4075
(lp4076
g39
asVevery night
p4077
(lp4078
g79
asVonce
p4079
(lp4080
g79
asVoffice building
p4081
(lp4082
g88
ag299
asVscratch
p4083
(lp4084
g300
asVBengal
p4085
(lp4086
g892
asS'desserts'
p4087
(lp4088
g480
asVwindy
p4089
(lp4090
g338
ag85
ag339
asVgreen pepper
p4091
(lp4092
g564
ag607
asVtuba
p4093
(lp4094
g145
ag52
ag314
ag260
asVgolf
p4095
(lp4096
g152
ag154
asVwater pitcher
p4097
(lp4098
g1116
asVlab assistant
p4099
(lp4100
g436
asVbaseball
p4101
(lp4102
g152
ag153
ag154
asVmixing bowl
p4103
(lp4104
g180
asVstore detective
p4105
(lp4106
g822
asVbutter dish
p4107
(lp4108
g1116
asVfreon
p4109
(lp4110
g56
asVmosque
p4111
(lp4112
g299
asVfloss
p4113
(lp4114
g124
asS'literary'
p4115
(lp4116
g22
ag127
asVmorning edition
p4117
(lp4118
g205
asVpicture post car
p4119
(lp4120
g483
asVall the time
p4121
(lp4122
g79
asVevery week
p4123
(lp4124
g79
asVsecurity check
p4125
(lp4126
g6
asVCinco de Mayo
p4127
(lp4128
g202
asS'garden'
p4129
(lp4130
g391
ag3
ag109
ag288
asVthin spaghetti
p4131
(lp4132
g722
asVCanadian
p4133
(lp4134
g504
asVapartment building
p4135
(lp4136
g88
ag299
ag193
asVdessert
p4137
(lp4138
g465
ag134
ag72
ag466
ag73
asVspoon
p4139
(lp4140
g180
ag335
ag465
ag134
ag466
asVllama
p4141
(lp4142
g166
asVchick peas
p4143
(lp4144
g247
asVmolar
p4145
(lp4146
g124
asVstomach ache
p4147
(lp4148
g301
asVprivate parts
p4149
(lp4150
g188
asVasparagus
p4151
(lp4152
g564
ag607
asVknight
p4153
(lp4154
g99
ag100
asVnotes
p4155
(lp4156
g145
asVcoffee cake
p4157
(lp4158
g198
ag199
asVback page
p4159
(lp4160
g205
asVdry season
p4161
(lp4162
g85
asVverdict
p4163
(lp4164
g265
asVdrain pan
p4165
(lp4166
g516
asVTurkey
p4167
(lp4168
g112
ag113
asVBrussels sprouts
p4169
(lp4170
g607
asVcircular saw
p4171
(lp4172
g140
asVgraduate school
p4173
(lp4174
g91
asVcrow
p4175
(lp4176
g35
ag35
ag36
ag36
asVfrost
p4177
(lp4178
g82
ag85
asVboots
p4179
(lp4180
g42
ag372
ag82
asVpitch fork
p4181
(lp4182
g391
asVcrook
p4183
(lp4184
g148
ag149
asVdial tone
p4185
(lp4186
g31
asVC-clamp
p4187
(lp4188
g140
asVearth
p4189
(lp4190
g19
asVice
p4191
(lp4192
g82
ag85
asVpajamas
p4193
(lp4194
g42
asVindex
p4195
(lp4196
g22
asVsausage
p4197
(lp4198
g135
asVMalayan Krait
p4199
(lp4200
g643
asVvampire
p4201
(lp4202
g507
ag540
asVcell
p4203
(lp4204
g265
asVbird
p4205
(lp4206
g165
ag34
ag35
ag36
asS'body'
p4207
(lp4208
g185
ag186
ag187
ag187
ag188
ag232
asVdegree
p4209
(lp4210
g689
ag85
asVleg
p4211
(lp4212
g187
asVkangaroo
p4213
(lp4214
g165
ag34
ag166
asVkidnapper
p4215
(lp4216
g763
asVpie a la mode
p4217
(lp4218
g72
ag73
asVpunch
p4219
(lp4220
g471
ag367
asVlateral incisor
p4221
(lp4222
g63
asVsink
p4223
(lp4224
g59
ag60
asVoctave
p4225
(lp4226
g145
asVbegonia
p4227
(lp4228
g109
asVsing
p4229
(lp4230
g145
asVfifteen
p4231
(lp4232
g15
asVvinegar
p4233
(lp4234
g430
ag431
asVRidge-Nose Rattlesnake
p4235
(lp4236
g443
asVChinese
p4237
(lp4238
g504
asVaardvark
p4239
(lp4240
g166
asVcollect call
p4241
(lp4242
g31
asVchocolate chip cookie
p4243
(lp4244
g72
ag73
asVonce in a blue moon
p4245
(lp4246
g79
asVarmpit
p4247
(lp4248
g188
asVpopcorn
p4249
(lp4250
g247
asVnon-smoking section
p4251
(lp4252
g39
asVhexagon
p4253
(lp4254
g278
asVshovel
p4255
(lp4256
g391
ag288
ag82
asVapple
p4257
(lp4258
g610
ag320
asVblizzard
p4259
(lp4260
g82
ag85
asVspy
p4261
(lp4262
g763
asVDoberman
p4263
(lp4264
g241
asVpost card
p4265
(lp4266
g483
asVMother's Day
p4267
(lp4268
g202
asVpasta
p4269
(lp4270
g208
ag399
asVwork boots
p4271
(lp4272
g372
asVcrawdad
p4273
(lp4274
g909
ag910
asVcomposer
p4275
(lp4276
g145
ag260
asVduck
p4277
(lp4278
g165
ag323
ag34
ag35
ag324
ag36
asVoval
p4279
(lp4280
g278
asVcloud
p4281
(lp4282
g85
asVlime
p4283
(lp4284
g610
ag667
ag320
asVellipse
p4285
(lp4286
g278
asVrutabaga
p4287
(lp4288
g1024
asVPomeranian
p4289
(lp4290
g241
asVfire department
p4291
(lp4292
g88
ag299
asVillegal
p4293
(lp4294
g822
asVgolf shoes
p4295
(lp4296
g372
asVrubber boots
p4297
(lp4298
g372
asVfrog
p4299
(lp4300
g165
ag34
asVeleven
p4301
(lp4302
g15
asVcrab
p4303
(lp4304
g909
ag910
asS'vehicle'
p4305
(lp4306
g143
ag490
ag28
asVcrash cymbal
p4307
(lp4308
g52
asVcheeks
p4309
(lp4310
g185
asVsort
p4311
(lp4312
g288
asVpencil
p4313
(lp4314
g89
asVporch
p4315
(lp4316
g59
ag60
ag342
asVtax
p4317
(lp4318
g39
asVmusician
p4319
(lp4320
g148
ag149
ag145
asVtangerine
p4321
(lp4322
g610
ag667
ag320
asVWednesday
p4323
(lp4324
g250
asVinfection
p4325
(lp4326
g301
asVmissile
p4327
(lp4328
g803
asVpost office box
p4329
(lp4330
g483
asVfancy dress party
p4331
(lp4332
g105
ag106
asVarmadillo
p4333
(lp4334
g166
asVrabbit
p4335
(lp4336
g165
ag34
asVbrochure
p4337
(lp4338
g127
asVstarter
p4339
(lp4340
g134
asVaccount
p4341
(lp4342
g255
asS'animals'
p4343
(lp4344
g165
ag323
ag34
ag166
asVsalad
p4345
(lp4346
g335
ag134
ag208
ag430
ag431
asVathlete
p4347
(lp4348
g148
ag149
asVBrown Snake
p4349
(lp4350
g766
asS'citrus fruit'
p4351
(lp4352
g667
asVdonut
p4353
(lp4354
g480
ag72
ag73
asVarcher
p4355
(lp4356
g99
ag100
asVKing Cobra
p4357
(lp4358
g766
asVthin
p4359
(lp4360
g288
asVhip
p4361
(lp4362
g187
ag188
asVapple tree
p4363
(lp4364
g709
asVwharf
p4365
(lp4366
g1412
asVtar
p4367
(lp4368
g39
asVlock
p4369
(lp4370
g59
ag60
asS'halloween'
p4371
(lp4372
g507
asVBeagle
p4373
(lp4374
g241
asVcarrot
p4375
(lp4376
g564
ag607
ag1024
asVslip
p4377
(lp4378
g119
ag121
asVspruce
p4379
(lp4380
g3
asVAustralian
p4381
(lp4382
g504
asVskirt
p4383
(lp4384
g42
asS'Christmas'
p4385
(lp4386
g202
asVrape
p4387
(lp4388
g670
asVlamb
p4389
(lp4390
g323
ag324
asVMandarin orange
p4391
(lp4392
g667
asVclogs
p4393
(lp4394
g372
asVtrumpet
p4395
(lp4396
g145
ag52
ag314
ag260
asVsix
p4397
(lp4398
g14
ag15
asVcrash cymbals
p4399
(lp4400
g53
asVlamp
p4401
(lp4402
g59
ag60
ag220
ag221
asVforest
p4403
(lp4404
g18
ag19
asS'animal'
p4405
(lp4406
g165
ag323
ag34
ag166
ag35
ag892
ag643
ag241
ag291
ag443
ag766
ag324
asVdental surgeon
p4407
(lp4408
g124
asVbandana
p4409
(lp4410
g117
ag456
asVfurnace
p4411
(lp4412
g60
asS'buildings'
p4413
(lp4414
g88
ag160
asVcupboard
p4415
(lp4416
g220
ag221
asVkohlrabi
p4417
(lp4418
g1024
asS'farm'
p4419
(lp4420
g323
ag324
asVeyelash curler
p4421
(lp4422
g1373
asVthunderstorm
p4423
(lp4424
g85
asVBritish
p4425
(lp4426
g504
asVperjury
p4427
(lp4428
g670
asVnotebook
p4429
(lp4430
g89
asVwrist
p4431
(lp4432
g187
ag330
asVmaracas
p4433
(lp4434
g52
ag53
asVcabbage
p4435
(lp4436
g564
ag607
ag654
asVhawk
p4437
(lp4438
g35
ag36
asVtomato
p4439
(lp4440
g564
asS'cutlery'
p4441
(lp4442
g335
ag1116
asVcorral
p4443
(lp4444
g217
asVlinen
p4445
(lp4446
g118
ag229
asVbakery
p4447
(lp4448
g299
asVencyclopedia
p4449
(lp4450
g127
asVGreece
p4451
(lp4452
g113
asValloy
p4453
(lp4454
g229
asVaddiction
p4455
(lp4456
g39
asVmustache
p4457
(lp4458
g66
asVboxing
p4459
(lp4460
g153
asVthigh
p4461
(lp4462
g188
asVelectric guitar
p4463
(lp4464
g52
asVmeter
p4465
(lp4466
g25
asVBasenji
p4467
(lp4468
g241
asVlicense plate
p4469
(lp4470
g143
ag490
asVspatula
p4471
(lp4472
g180
asVcomma
p4473
(lp4474
g501
asVmotorcycle
p4475
(lp4476
g130
ag131
ag28
asVbadger
p4477
(lp4478
g166
asVswimming pool
p4479
(lp4480
g90
ag417
asVyellow pages
p4481
(lp4482
g31
asVevery month
p4483
(lp4484
g79
asVpermanent
p4485
(lp4486
g66
asVorange
p4487
(lp4488
g11
ag610
ag667
ag320
asVcriminal
p4489
(lp4490
g148
ag149
ag763
asVRat Snake
p4491
(lp4492
g766
asS'citrus'
p4493
(lp4494
g667
asS'material'
p4495
(lp4496
g229
asVswordfish
p4497
(lp4498
g909
ag910
asS'sweets'
p4499
(lp4500
g480
ag399
asVcontrbasson
p4501
(lp4502
g260
asVsnake
p4503
(lp4504
g165
ag34
ag166
ag643
ag443
ag766
asVkiss
p4505
(lp4506
g841
asVhands
p4507
(lp4508
g185
ag186
ag187
ag188
asVflea
p4509
(lp4510
g291
asVMemorial Day
p4511
(lp4512
g202
asVday
p4513
(lp4514
g157
asVbreakwater
p4515
(lp4516
g1412
asVroom number
p4517
(lp4518
g412
asVuniversity
p4519
(lp4520
g91
asVconvenience store
p4521
(lp4522
g88
ag299
asVlawn tennis
p4523
(lp4524
g154
asVCelsius
p4525
(lp4526
g85
asVbills
p4527
(lp4528
g255
asVprivate detective
p4529
(lp4530
g822
asVmobile phone
p4531
(lp4532
g31
asVlilac
p4533
(lp4534
g109
asVPoodle
p4535
(lp4536
g241
asVpantry
p4537
(lp4538
g342
asS'every day'
p4539
(lp4540
g96
ag79
asVthirteen
p4541
(lp4542
g15
asVsweatshirt
p4543
(lp4544
g42
asVsalesman
p4545
(lp4546
g148
ag149
asVnavel orange
p4547
(lp4548
g667
asVhippopotamus
p4549
(lp4550
g165
ag34
asVtabloid
p4551
(lp4552
g205
asVfedelini
p4553
(lp4554
g722
asVstaircase
p4555
(lp4556
g342
asVtwice
p4557
(lp4558
g79
asVbus terminal
p4559
(lp4560
g299
asVhand drill
p4561
(lp4562
g140
asVDesert Massasauga
p4563
(lp4564
g443
asVChina
p4565
(lp4566
g112
ag113
asVbarley
p4567
(lp4568
g296
asVwhitening
p4569
(lp4570
g124
asVred
p4571
(lp4572
g11
ag841
asVsoup bowl
p4573
(lp4574
g1116
asVIndonesia
p4575
(lp4576
g112
ag113
asVtempo
p4577
(lp4578
g145
asVshaving cream
p4579
(lp4580
g45
asVfourteen
p4581
(lp4582
g15
asVcowbell
p4583
(lp4584
g52
ag53
asVevery now and then
p4585
(lp4586
g79
asVevening edition
p4587
(lp4588
g205
asVtomato juice
p4589
(lp4590
g471
ag367
asVturtleneck sweater
p4591
(lp4592
g116
ag120
asVsour cream
p4593
(lp4594
g870
ag871
asVyard
p4595
(lp4596
g25
asVeyebrow pencil
p4597
(lp4598
g1373
asVpotato chips
p4599
(lp4600
g480
ag72
ag73
asVBoomslang
p4601
(lp4602
g643
asVtimer
p4603
(lp4604
g180
ag157
asVsnowstorm
p4605
(lp4606
g82
ag85
asVpersonal mail
p4607
(lp4608
g483
asS'length'
p4609
(lp4610
g25
asVpudding
p4611
(lp4612
g480
ag72
ag73
asS'qualification'
p4613
(lp4614
g91
asVchills
p4615
(lp4616
g301
asVmuseum
p4617
(lp4618
g88
ag299
asVwaitress
p4619
(lp4620
g148
ag149
ag134
asVgraduate assistant
p4621
(lp4622
g436
asVstep-uncle
p4623
(lp4624
g76
asVprobation
p4625
(lp4626
g265
asVvandal
p4627
(lp4628
g763
asVconga
p4629
(lp4630
g52
ag53
asVIran
p4631
(lp4632
g112
ag113
asVmonkey
p4633
(lp4634
g165
ag34
ag166
asS'festival'
p4635
(lp4636
g202
asVgalley
p4637
(lp4638
g589
asVforgery
p4639
(lp4640
g670
asVdress shoes
p4641
(lp4642
g372
asVankle
p4643
(lp4644
g187
asVIraq
p4645
(lp4646
g354
asVboil
p4647
(lp4648
g180
asVbeard
p4649
(lp4650
g187
ag66
asVstomach
p4651
(lp4652
g185
ag186
ag187
ag188
ag232
asVgear
p4653
(lp4654
g143
ag144
asVsquare
p4655
(lp4656
g278
asVshallot
p4657
(lp4658
g1103
asVshelf
p4659
(lp4660
g59
ag60
ag516
ag220
ag221
asVxylophone
p4661
(lp4662
g145
ag52
ag53
ag260
asVoffice party
p4663
(lp4664
g105
ag106
asVtree pruner
p4665
(lp4666
g391
asVTaipan
p4667
(lp4668
g643
asVferryboat
p4669
(lp4670
g1017
asVwigwam
p4671
(lp4672
g193
asVneck
p4673
(lp4674
g185
ag186
ag187
ag188
ag285
asVsteel
p4675
(lp4676
g529
ag229
asVprune
p4677
(lp4678
g320
asVgirdle
p4679
(lp4680
g119
ag121
asVshampoo
p4681
(lp4682
g594
asVlion
p4683
(lp4684
g165
ag34
ag166
asVbed
p4685
(lp4686
g59
ag60
ag220
ag221
asVbee
p4687
(lp4688
g165
ag34
ag291
ag555
ag109
asVdefense
p4689
(lp4690
g265
asVget away with
p4691
(lp4692
g226
asVtote bag
p4693
(lp4694
g244
asVthistle
p4695
(lp4696
g109
asVbulldozer
p4697
(lp4698
g28
asVearlier than
p4699
(lp4700
g96
asVdeodorant
p4701
(lp4702
g594
asVfreezer compartment
p4703
(lp4704
g516
asVrobot
p4705
(lp4706
g540
asVboning knife
p4707
(lp4708
g345
asVsnow-boarding
p4709
(lp4710
g152
asVthroat
p4711
(lp4712
g185
ag187
ag188
asVsidecar
p4713
(lp4714
g28
asVscrew
p4715
(lp4716
g60
asVbald head
p4717
(lp4718
g394
asVdredger
p4719
(lp4720
g589
asVbassoon
p4721
(lp4722
g145
ag52
ag315
ag260
asVhammer
p4723
(lp4724
g140
asVfire station
p4725
(lp4726
g160
asVquestion mark
p4727
(lp4728
g501
asVwaffles
p4729
(lp4730
g198
ag199
asVbagel
p4731
(lp4732
g208
asVmix
p4733
(lp4734
g288
asVtrespassing
p4735
(lp4736
g670
asVair mail
p4737
(lp4738
g483
asVjail
p4739
(lp4740
g822
ag670
ag265
asVparka
p4741
(lp4742
g116
ag120
asVsoap
p4743
(lp4744
g594
asVcapital punishment
p4745
(lp4746
g265
asVlecturer
p4747
(lp4748
g436
asVservice charge
p4749
(lp4750
g412
asS'sewing'
p4751
(lp4752
g1141
ag118
asVgarden line
p4753
(lp4754
g391
asVbook store
p4755
(lp4756
g88
ag299
asVevery Monday
p4757
(lp4758
g79
asVeight
p4759
(lp4760
g14
ag15
asVbrother-in-law
p4761
(lp4762
g76
asVtime zones
p4763
(lp4764
g6
asVcabinet
p4765
(lp4766
g220
ag221
asVsmall hand cultivator
p4767
(lp4768
g391
asVBurma
p4769
(lp4770
g112
asVimmigration counter
p4771
(lp4772
g6
asVpolyester
p4773
(lp4774
g229
ag937
asVlong ago
p4775
(lp4776
g96
asVspleen
p4777
(lp4778
g232
asVhot dog
p4779
(lp4780
g135
asVgather
p4781
(lp4782
g288
asVlocust
p4783
(lp4784
g555
asVface
p4785
(lp4786
g186
ag187
asS'pipe'
p4787
(lp4788
g39
asVmeasuring cup
p4789
(lp4790
g180
asVex-husband
p4791
(lp4792
g76
asVnormally
p4793
(lp4794
g212
ag79
asVSaturday
p4795
(lp4796
g250
asVtext
p4797
(lp4798
g22
ag31
asVlarch
p4799
(lp4800
g3
asVhardcover
p4801
(lp4802
g127
asVbedroom
p4803
(lp4804
g59
ag60
ag342
asVchicken
p4805
(lp4806
g165
ag323
ag34
ag134
ag285
ag135
ag324
asVdecade
p4807
(lp4808
g157
asVshield
p4809
(lp4810
g99
ag100
asVfront teeth
p4811
(lp4812
g63
asS'royal mail'
p4813
(lp4814
g483
asVaftershave
p4815
(lp4816
g594
asVtire
p4817
(lp4818
g143
ag490
ag169
asVfiberglass
p4819
(lp4820
g229
asVscorpion
p4821
(lp4822
g165
ag34
asVchicken wing
p4823
(lp4824
g135
asS'eat'
p4825
(lp4826
g180
ag335
ag610
ag465
ag564
ag466
asVbuttons
p4827
(lp4828
g1141
asVloafers
p4829
(lp4830
g372
asVdairy compartment
p4831
(lp4832
g516
asVfreckles
p4833
(lp4834
g394
asVpiano
p4835
(lp4836
g145
ag52
ag260
asVregularly
p4837
(lp4838
g212
ag79
asVhandle
p4839
(lp4840
g516
asVhijacking
p4841
(lp4842
g670
asVbeat
p4843
(lp4844
g145
asVTanzania
p4845
(lp4846
g354
asVbear
p4847
(lp4848
g165
ag34
ag166
asS'words'
p4849
(lp4850
g127
asVburglary
p4851
(lp4852
g670
asVmaster bedroom
p4853
(lp4854
g342
asVfore finger
p4855
(lp4856
g330
asVceiling tile
p4857
(lp4858
g48
ag49
asVItalian
p4859
(lp4860
g504
asVgray
p4861
(lp4862
g11
asVbreak the law
p4863
(lp4864
g226
asVSheepdog
p4865
(lp4866
g241
asVorgan
p4867
(lp4868
g145
asVbrain
p4869
(lp4870
g187
asVsynchronized swimming
p4871
(lp4872
g417
asVmotorboat
p4873
(lp4874
g589
ag1017
asVeyebrow
p4875
(lp4876
g394
asVmascara
p4877
(lp4878
g1373
asVsleigh bells
p4879
(lp4880
g82
asVcostume
p4881
(lp4882
g507
asVAfghanistan
p4883
(lp4884
g354
asVogre
p4885
(lp4886
g540
asVblack eye
p4887
(lp4888
g300
asS'canine'
p4889
(lp4890
g241
ag63
asVfreeze
p4891
(lp4892
g82
ag85
asVcomputer
p4893
(lp4894
g89
ag157
asS'sewing machine'
p4895
(lp4896
g1141
asVpowder
p4897
(lp4898
g1373
asVviolet
p4899
(lp4900
g109
ag109
asVdungeon
p4901
(lp4902
g99
ag100
asVwire
p4903
(lp4904
g60
asVHallowen party
p4905
(lp4906
g105
ag106
asVcloset
p4907
(lp4908
g59
ag60
ag342
ag220
ag221
asVPit Bull Terrier
p4909
(lp4910
g241
asVJuly
p4911
(lp4912
g306
asVpistol
p4913
(lp4914
g217
asVcross rib
p4915
(lp4916
g285
asVpants
p4917
(lp4918
g42
ag116
ag120
asVblinker
p4919
(lp4920
g143
ag144
asVcauliflower
p4921
(lp4922
g607
asVshallow end
p4923
(lp4924
g417
asS'job'
p4925
(lp4926
g148
ag149
asVkey
p4927
(lp4928
g59
ag60
asS'underwear'
p4929
(lp4930
g119
ag121
asVBorder Collie
p4931
(lp4932
g241
asVdrum
p4933
(lp4934
g145
ag52
ag53
asS'aircraft'
p4935
(lp4936
g311
asVhouse phone
p4937
(lp4938
g31
asS'grain'
p4939
(lp4940
g296
asVswallow
p4941
(lp4942
g34
ag35
ag36
asVauburn hair
p4943
(lp4944
g66
asVpicture book
p4945
(lp4946
g127
asVwall
p4947
(lp4948
g59
ag99
ag60
asVdenim
p4949
(lp4950
g118
asVovercoat
p4951
(lp4952
g116
ag120
asS'walk'
p4953
(lp4954
g372
asVApril Fools' Day
p4955
(lp4956
g202
asS'news'
p4957
(lp4958
g205
asVin the mornings
p4959
(lp4960
g96
asVtable
p4961
(lp4962
g59
ag60
ag220
ag221
asVundergraduate
p4963
(lp4964
g436
asVkindergarten
p4965
(lp4966
g91
asVmailman
p4967
(lp4968
g483
asVcavities
p4969
(lp4970
g124
asVhold up
p4971
(lp4972
g226
asVgondola
p4973
(lp4974
g589
asS'quaver'
p4975
(lp4976
g145
ag52
ag314
ag53
ag315
ag260
asVyam
p4977
(lp4978
g1024
asVAmerican Bobtail
p4979
(lp4980
g892
asVreindeer
p4981
(lp4982
g34
asS'smphony'
p4983
(lp4984
g260
asS'percussive'
p4985
(lp4986
g53
asVeraser
p4987
(lp4988
g89
asVpoet
p4989
(lp4990
g148
ag149
asVThailand
p4991
(lp4992
g112
ag113
asVhyacinth
p4993
(lp4994
g109
asVshoulders
p4995
(lp4996
g185
ag186
ag187
asVBloodhound
p4997
(lp4998
g241
asVhard rolls
p4999
(lp5000
g198
ag199
asVsausages
p5001
(lp5002
g134
asVhigh heel shoes
p5003
(lp5004
g372
asVgun
p5005
(lp5006
g822
ag217
ag803
asVbull
p5007
(lp5008
g323
ag324
asVbutane
p5009
(lp5010
g56
asVnovel
p5011
(lp5012
g127
asS'irregular'
p5013
(lp5014
g79
asVplain
p5015
(lp5016
g19
asVHalloween
p5017
(lp5018
g202
asVchalk
p5019
(lp5020
g89
asVanniversary party
p5021
(lp5022
g105
ag106
asVTaiwan
p5023
(lp5024
g354
ag113
asVMojave Rattlesnake
p5025
(lp5026
g643
ag443
asVfire fighter
p5027
(lp5028
g148
ag149
asS'ripe'
p5029
(lp5030
g610
asValmost
p5031
(lp5032
g212
asVsquid
p5033
(lp5034
g34
asVrooster
p5035
(lp5036
g323
ag34
ag324
asVAfghan Hound
p5037
(lp5038
g241
asVwhorl
p5039
(lp5040
g278
asVobituary
p5041
(lp5042
g205
asVterrorist
p5043
(lp5044
g763
asVwhite pages
p5045
(lp5046
g31
asVfish platter
p5047
(lp5048
g1116
asVheadlight
p5049
(lp5050
g143
ag144
ag169
asVwhite grapefruit
p5051
(lp5052
g667
asVcowboy boots
p5053
(lp5054
g372
ag217
asVdouble-breasted jacket
p5055
(lp5056
g116
ag120
asVinch
p5057
(lp5058
g25
asS'party'
p5059
(lp5060
g105
ag1278
ag106
asS'android'
p5061
(lp5062
g31
ag540
asVtomatoes
p5063
(lp5064
g607
asVkidnapping
p5065
(lp5066
g670
asVCanada Day
p5067
(lp5068
g202
asVflesh
p5069
(lp5070
g187
asVdrink
p5071
(lp5072
g465
ag471
ag466
ag367
asVdiploma
p5073
(lp5074
g689
asVoctagon
p5075
(lp5076
g278
asS'beast'
p5077
(lp5078
g540
asVmeat keeper
p5079
(lp5080
g516
asVstudent
p5081
(lp5082
g436
ag91
asVfrequently
p5083
(lp5084
g96
ag212
ag79
asVwhale
p5085
(lp5086
g34
asVmagician
p5087
(lp5088
g148
ag149
asVbroccoli
p5089
(lp5090
g564
ag607
asVpoultry
p5091
(lp5092
g399
asVscarcely
p5093
(lp5094
g212
asVcorrespondent
p5095
(lp5096
g205
asVsurfboard
p5097
(lp5098
g1017
asVdock
p5099
(lp5100
g1412
asS'colour'
p5101
(lp5102
g11
asVthree times a week
p5103
(lp5104
g79
asVscissor
p5105
(lp5106
g1141
asVgreat-grandmother
p5107
(lp5108
g76
asVstep-brother
p5109
(lp5110
g76
asVbirthday party
p5111
(lp5112
g105
ag105
ag106
ag106
asVmuscle
p5113
(lp5114
g187
asVgreen onion
p5115
(lp5116
g1103
asS'restuarant'
p5117
(lp5118
g465
asVsugar bowl
p5119
(lp5120
g1116
asVbread and butter plate
p5121
(lp5122
g1116
asVBA
p5123
(lp5124
g689
asVmaggot
p5125
(lp5126
g291
asVsister-in-law
p5127
(lp5128
g76
asVrear tire
p5129
(lp5130
g169
asVJapanese radish
p5131
(lp5132
g607
ag1024
asVSunday
p5133
(lp5134
g250
asS'rooms'
p5135
(lp5136
g59
ag342
asVby and by
p5137
(lp5138
g96
asVArgentina
p5139
(lp5140
g354
asVglue
p5141
(lp5142
g229
asVsplash cymbal
p5143
(lp5144
g52
ag53
asVbench saw
p5145
(lp5146
g140
asVbibliography
p5147
(lp5148
g22
asVpanther
p5149
(lp5150
g166
asVFriday
p5151
(lp5152
g250
asVsky
p5153
(lp5154
g85
asVlake
p5155
(lp5156
g18
ag19
ag417
asVketchup
p5157
(lp5158
g870
ag208
ag871
asVarrest
p5159
(lp5160
g226
asS'cosmetics'
p5161
(lp5162
g594
ag1373
asVAngora
p5163
(lp5164
g892
asVpersimmon
p5165
(lp5166
g610
ag320
asVraven
p5167
(lp5168
g35
ag36
asVrafter
p5169
(lp5170
g60
asVcurly lasagna
p5171
(lp5172
g722
asVGreek
p5173
(lp5174
g504
asVfats
p5175
(lp5176
g399
asVnewsstand
p5177
(lp5178
g205
ag412
asVfive
p5179
(lp5180
g14
ag15
asVdesk
p5181
(lp5182
g89
ag59
ag60
ag220
ag221
asVwatch tower
p5183
(lp5184
g99
ag100
asVdoughnut
p5185
(lp5186
g480
asVtick
p5187
(lp5188
g291
asVcheck-out
p5189
(lp5190
g412
asVonion
p5191
(lp5192
g564
ag607
ag1103
asVpamphlet
p5193
(lp5194
g127
asVstep-sister
p5195
(lp5196
g76
asVsofa
p5197
(lp5198
g59
ag60
asVmother-in-law
p5199
(lp5200
g76
asVcandy
p5201
(lp5202
g480
ag72
ag507
ag841
ag73
asVgarage
p5203
(lp5204
g59
ag342
asS'journalist'
p5205
(lp5206
g205
asVepoxy
p5207
(lp5208
g229
asVchick
p5209
(lp5210
g35
ag36
asVsprain
p5211
(lp5212
g300
asVside window
p5213
(lp5214
g490
asS'classical'
p5215
(lp5216
g260
asVkick-stand
p5217
(lp5218
g169
asVoutrigger
p5219
(lp5220
g589
asVthief
p5221
(lp5222
g763
asVlibrary
p5223
(lp5224
g88
ag299
ag90
asVoyster knife
p5225
(lp5226
g345
asVhair
p5227
(lp5228
g185
ag186
ag187
ag66
ag394
ag188
asVgarment bag
p5229
(lp5230
g244
asVgymnastics
p5231
(lp5232
g152
ag153
asVash tray
p5233
(lp5234
g39
asS'home'
p5235
(lp5236
g59
ag342
ag193
asVpruning shears
p5237
(lp5238
g391
asVpanty hose
p5239
(lp5240
g119
ag121
asS'transport'
p5241
(lp5242
g130
ag131
asVtire pump
p5243
(lp5244
g169
asVside mirror
p5245
(lp5246
g490
asS'shrub'
p5247
(lp5248
g391
asVlead
p5249
(lp5250
g529
asVbedding
p5251
(lp5252
g60
asVhurricane
p5253
(lp5254
g85
asVperforated hardboard
p5255
(lp5256
g48
ag49
asVfrom time to time
p5257
(lp5258
g96
asVtadpole
p5259
(lp5260
g909
ag910
asVgreat-grandfather
p5261
(lp5262
g76
asVtrout
p5263
(lp5264
g909
ag910
asVpepper
p5265
(lp5266
g335
ag134
ag870
ag871
asVmurderer
p5267
(lp5268
g763
asVlighthouse
p5269
(lp5270
g1412
asVpeas
p5271
(lp5272
g564
ag607
asVpaper
p5273
(lp5274
g229
asVpressure
p5275
(lp5276
g85
asVlittle finger
p5277
(lp5278
g330
asVTV guide
p5279
(lp5280
g205
asVhardhat
p5281
(lp5282
g117
ag456
asVSaint Bernard
p5283
(lp5284
g241
asS'imaginary'
p5285
(lp5286
g540
asVNewfoundland
p5287
(lp5288
g241
asVshort ribs
p5289
(lp5290
g285
asVpike
p5291
(lp5292
g909
ag910
asVsister
p5293
(lp5294
g237
ag238
ag76
asVaccount number
p5295
(lp5296
g327
asVsaddle
p5297
(lp5298
g169
ag217
asVDecember
p5299
(lp5300
g306
ag1278
ag82
asVbrown hair
p5301
(lp5302
g66
asVbulletin board
p5303
(lp5304
g89
asVstamp
p5305
(lp5306
g483
asVSouth America
p5307
(lp5308
g982
asVburglar alarm
p5309
(lp5310
g822
asVcranberry
p5311
(lp5312
g320
asVJapan
p5313
(lp5314
g112
ag113
asVtongue
p5315
(lp5316
g185
ag186
ag187
ag394
ag135
asVPointer
p5317
(lp5318
g241
asVswimming
p5319
(lp5320
g152
ag417
ag700
ag1017
asVowl
p5321
(lp5322
g165
ag34
asVbugle
p5323
(lp5324
g52
ag314
asVtenderloin
p5325
(lp5326
g285
asVcocoa
p5327
(lp5328
g471
ag367
asS'weather'
p5329
(lp5330
g338
ag85
ag339
asVlung
p5331
(lp5332
g232
asVshaving brush
p5333
(lp5334
g45
asS'female'
p5335
(lp5336
g1373
asVValentine's Day
p5337
(lp5338
g202
asVrowboat
p5339
(lp5340
g589
ag1017
asS'van'
p5341
(lp5342
g143
ag490
asVjunior college
p5343
(lp5344
g91
asVsnowplow
p5345
(lp5346
g28
asVrear turn signal
p5347
(lp5348
g490
asS'vegetables'
p5349
(lp5350
g564
ag134
ag607
ag399
ag1024
asVaccountant
p5351
(lp5352
g148
ag149
asVGolden Retriever
p5353
(lp5354
g241
asVNovember
p5355
(lp5356
g306
asVcatamaran
p5357
(lp5358
g1017
asVsemicircle
p5359
(lp5360
g278
asVcricket
p5361
(lp5362
g291
ag555
asVChow Chow
p5363
(lp5364
g241
asVSaint Patrick's Day
p5365
(lp5366
g202
asVshank
p5367
(lp5368
g285
asVbus
p5369
(lp5370
g130
ag131
ag28
asVTiger Snake
p5371
(lp5372
g643
asVbigamy
p5373
(lp5374
g670
asS'construction'
p5375
(lp5376
g48
ag60
asVroot canal
p5377
(lp5378
g124
asVNew Mexico Ridge-Nose Rattlesnake
p5379
(lp5380
g443
asVear
p5381
(lp5382
g187
ag394
asS'bug'
p5383
(lp5384
g291
ag555
asVwitness
p5385
(lp5386
g265
asS'count'
p5387
(lp5388
g69
asVcorn bread
p5389
(lp5390
g198
ag199
asVfront yard
p5391
(lp5392
g342
asVdaffodil
p5393
(lp5394
g109
asVparticle board
p5395
(lp5396
g48
ag49
asVbrow brush
p5397
(lp5398
g1373
asVcello
p5399
(lp5400
g145
ag52
asVlynx
p5401
(lp5402
g166
asVcake
p5403
(lp5404
g480
ag198
ag72
ag199
ag73
asVtrapezoid
p5405
(lp5406
g278
asS'condiment'
p5407
(lp5408
g870
ag871
asVBoxing Day
p5409
(lp5410
g202
asVsirloin
p5411
(lp5412
g285
asVbeetle
p5413
(lp5414
g291
asVpie
p5415
(lp5416
g480
ag480
ag198
ag72
ag199
ag73
asVpig
p5417
(lp5418
g165
ag323
ag34
ag324
asVutensils
p5419
(lp5420
g134
asVinn
p5421
(lp5422
g412
asVfather-in-law
p5423
(lp5424
g76
asVViper
p5425
(lp5426
g766
asS'education'
p5427
(lp5428
g436
ag689
ag90
ag91
asVvisa
p5429
(lp5430
g6
asVtaekwondo
p5431
(lp5432
g153
asS'dressed'
p5433
(lp5434
g116
asVoak
p5435
(lp5436
g3
asVlately
p5437
(lp5438
g211
ag96
asVbook
p5439
(lp5440
g89
ag22
ag127
ag127
ag501
asVellipses
p5441
(lp5442
g501
asVacrylic
p5443
(lp5444
g229
asVgas station
p5445
(lp5446
g88
ag299
asVponytail
p5447
(lp5448
g66
asVdresser
p5449
(lp5450
g60
ag220
ag221
asVhydrofoil
p5451
(lp5452
g1017
asVFebruary
p5453
(lp5454
g306
ag841
asVquartz
p5455
(lp5456
g157
asVstar
p5457
(lp5458
g278
asVevaporator coil
p5459
(lp5460
g516
asS'swimming strokes'
p5461
(lp5462
g700
asVmulch
p5463
(lp5464
g288
asVNorth Korea
p5465
(lp5466
g354
ag113
asVApril
p5467
(lp5468
g306
asVpumps
p5469
(lp5470
g372
asS'cheque'
p5471
(lp5472
g327
asVghost
p5473
(lp5474
g507
asVsphinx
p5475
(lp5476
g540
asVfertilize
p5477
(lp5478
g288
asVbaker
p5479
(lp5480
g148
ag149
asVpost office
p5481
(lp5482
g88
ag160
ag299
asVpupil
p5483
(lp5484
g436
asVeye shadow
p5485
(lp5486
g1373
asVmeasuring spoon
p5487
(lp5488
g180
asVsilica
p5489
(lp5490
g229
asVthermostat control
p5491
(lp5492
g516
asVbuoy
p5493
(lp5494
g1412
as.