(dp0
VCriminals
p1
(lp2
Varsonist
p3
aVblackmailer
p4
aVburglar
p5
aVhijacker
p6
aVkidnapper
p7
aVmugger
p8
aVmurderer
p9
aVpickpocket
p10
aVrobber
p11
aVshoplifter
p12
aVsmuggler
p13
aVspy
p14
aVterrorist
p15
aVthief
p16
aVvandal
p17
aS'crime'
p18
aS'criminal'
p19
aS'police'
p20
asVAches and Pains
p21
(lp22
Vbackache
p23
aVchills
p24
aVcough
p25
aVearache
p26
aVfever
p27
aVheadache
p28
aVinfection
p29
aVrunny nose
p30
aVsore throat
p31
aVstomach ache
p32
aS'doctor'
p33
aS'hospital'
p34
aS'illness'
p35
aS'ill'
p36
asVMen's Clothes
p37
(lp38
Vbelt
p39
aVbow tie
p40
aVboxer shorts
p41
aVbriefs
p42
aVbutton-down collar
p43
aVcardigan
p44
aVcrew-neck sweater
p45
aVdouble-breasted jacket
p46
aVnecktie
p47
aVovercoat
p48
aVpants
p49
aVparka
p50
aVraincoat
p51
aVshirt
p52
aVsocks
p53
aVsport coat
p54
aVsuit coat
p55
aVsuspenders
p56
aVtrench
p57
aVturtleneck sweater
p58
aVundershirt
p59
aVV-necked sweater
p60
aVvest
p61
aS'clothes'
p62
aS'menswear'
p63
asVGases
p64
(lp65
Vair
p66
aVbutane
p67
aVcarbon dioxide
p68
aVcarbon monoxide
p69
aVfreon
p70
aVhelium
p71
aVhydrogen
p72
aVmethane
p73
aVneon
p74
aVnitric oxide
p75
aVnitrogen
p76
aVoxygen
p77
aVpropane
p78
aS'gas'
p79
aS'gases'
p80
asVCrime
p81
(lp82
Valarm
p83
aValibi
p84
aVarmed
p85
aVbail
p86
aVburglar
p87
aVburglar alarm
p88
aVcar alarm
p89
aVgun
p90
aVillegal
p91
aVjail
p92
aVjudge
p93
aVknife
p94
aVlawyer
p95
aVlawyer
p96
aVlegal
p97
aVpolice
p98
aVpolice car
p99
aVprison
p100
aVprivate detective
p101
aVstore detective
p102
aVweapon
p103
aS'crime'
p104
asVBicycle Parts
p105
(lp106
Vair valve
p107
aVbaggage carrier
p108
aVbrake
p109
aVbrake lever
p110
aVchain
p111
aVchain guard
p112
aVfender
p113
aVfront brake
p114
aVfront tire
p115
aVgearshift
p116
aVgrip
p117
aVhandlebar
p118
aVheadlight
p119
aVkick-stand
p120
aVpedal
p121
aVrear brake
p122
aVrear tire
p123
aVsaddle
p124
aVtire
p125
aVtire pump
p126
asVAdverbs of Quantity
p127
(lp128
Vall
p129
aVany
p130
aVboth
p131
aVeach
p132
aVevery
p133
aVfew
p134
aVlots of
p135
aVmany
p136
aVnone
p137
aVnumerous
p138
aVseveral
p139
aVsome
p140
aS'count'
p141
aS'counting'
p142
asVNew Year's Day
p143
(lp144
Vresolution
p145
aVparty
p146
aVmidnight
p147
aVcalendar
p148
aVDecember
p149
aVJanuary
p150
aVholiday
p151
aVcelebrate
p152
aVcountdown
p153
aVNew Year's Day
p154
aS'new year'
p155
asVNumbers 1-20
p156
(lp157
Vone
p158
aVtwo
p159
aVthree
p160
aVfour
p161
aVfive
p162
aVsix
p163
aVseven
p164
aVeight
p165
aVnine
p166
aVten
p167
aVeleven
p168
aVtwelve
p169
aVthirteen
p170
aVfourteen
p171
aVfifteen
p172
aVsixteen
p173
aVseventeen
p174
aVeighteen
p175
aVnineteen
p176
aVtwenty
p177
aS'numbers'
p178
aS'counting'
p179
asVAirport Departure and Arrival
p180
(lp181
Vbaggage claim check
p182
aVboarding pass
p183
aVboarding time
p184
aVbody check
p185
aVcheck in
p186
aVcustoms
p187
aVcustoms declaration
p188
aVcustoms officer
p189
aVdeparture lounge
p190
aVdeparture time
p191
aVimmigration counter
p192
aVpassport
p193
aVpersonal effects
p194
aVsecurity check
p195
aVtime difference
p196
aVtime zones
p197
aVvisa
p198
aS'airport'
p199
asVBody
p200
(lp201
Vback
p202
aVcheeks
p203
aVchest
p204
aVchin
p205
aVears
p206
aVeyebrows
p207
aVeyes
p208
aVfeet
p209
aVfingers
p210
aVfoot
p211
aVforehead
p212
aVhair
p213
aVhands
p214
aVhead
p215
aVhips
p216
aVknees
p217
aVlegs
p218
aVlips
p219
aVmouth
p220
aVneck
p221
aVnose
p222
aVshoulders
p223
aVstomach
p224
aVteeth
p225
aVteeth
p226
aVthroat
p227
aVtoes
p228
aVtongue
p229
aVtooth
p230
aVwaist
p231
aS'body'
p232
aS'human body'
p233
asVKitchen Knives
p234
(lp235
Vboning knife
p236
aVbread knife
p237
aVbutcher knife
p238
aVbutter knife
p239
aVcleaver
p240
aVfilleting knife
p241
aVgrapefruit knife
p242
aVham knife
p243
aVkitchen knife
p244
aVoyster knife
p245
aVparing knife
p246
aVsteak knife
p247
aS'knife'
p248
aS'knives'
p249
asVTypes of Schools
p250
(lp251
Vcollege
p252
aVelementary school
p253
aVgraduate school
p254
aVhigh school
p255
aVjunior college
p256
aVjunior high school
p257
aVkindergarten
p258
aVnursery
p259
aVtechnical school
p260
aVuniversity
p261
aS'educate'
p262
aS'education'
p263
aS'qualification'
p264
aS'qualify'
p265
aS'school'
p266
aS'student'
p267
aS'teacher'
p268
asVMakeup
p269
(lp270
Vblush brush
p271
aVbrow brush
p272
aVeye shadow
p273
aVeyebrow pencil
p274
aVeyelash curler
p275
aVeyeliner
p276
aVlipstick
p277
aVliquid foundation
p278
aVmascara
p279
aVpowder
p280
aVpowder puff
p281
aS'makeup'
p282
aS'cosmetics'
p283
aS'feminine'
p284
aS'female'
p285
asVWater Transportation
p286
(lp287
Vcanoe
p288
aVcatamaran
p289
aVdinghy
p290
aVferry
p291
aVferryboat
p292
aVfreighter
p293
aVhovercraft
p294
aVhydrofoil
p295
aVkayak
p296
aVmotorboat
p297
aVpassenger ship
p298
aVraft
p299
aVrowboat
p300
aVsailboat
p301
aVseaplane
p302
aVship
p303
aVspeedboat
p304
aVsubmarine
p305
aVsurfboard
p306
aVswimming
p307
aVyacht
p308
aS'boat'
p309
aS'ship'
p310
asVTrees
p311
(lp312
Vash
p313
aVbeech
p314
aVbirch
p315
aVconifer
p316
aVfir
p317
aVlarch
p318
aVmaple
p319
aVoak
p320
aVpine
p321
aVspruce
p322
aVsycamore
p323
aVweeping willow
p324
aVwillow
p325
aVyew
p326
aV
p327
aS'tree'
p328
aS'garden'
p329
asVHolidays
p330
(lp331
VApril Fools' Day
p332
aVBoxing Day
p333
aVCanada Day
p334
aVCarnival
p335
aVCinco de Mayo
p336
aVColumbus Day
p337
aVEaster
p338
aVFather's Day
p339
aVFourth of July
p340
aVGroundhog Day
p341
aVHalloween
p342
aVHanukkah
p343
aVLabor Day
p344
aVMemorial Day
p345
aVMother's Day
p346
aVPresidents' Day
p347
aVSaint Patrick's Day
p348
aVThanksgiving
p349
aVValentine's Day
p350
aVVeterans Day
p351
aVYom Kippur
p352
aS'holiday'
p353
aS'festival'
p354
aS'calendar'
p355
aS'Christmas'
p356
aS'Xmas'
p357
asVPost Office
p358
(lp359
Vletter
p360
aVpost card
p361
aVmail
p362
aVpost office box
p363
aVPO box
p364
aVstamp
p365
aVdeliver mail
p366
aVaddress
p367
aVreturn address
p368
aVzip code
p369
aVinsurance
p370
aVprinted matter
p371
aVjunk mail
p372
aVpersonal mail
p373
aVpostal money order
p374
aVair mail
p375
aVsea mail
p376
aVmailman
p377
aVpostal clerk
p378
aVpicture post car
p379
aVpostage
p380
aVcancelled stamp
p381
aVcommemorative stamp
p382
aVpostbox
p383
aVmailbox
p384
aVstamp machine
p385
aS'postage'
p386
aS'post'
p387
aS'royal mail'
p388
asVBuildings & Places
p389
(lp390
Vairport
p391
aVapartment building
p392
aVbank
p393
aVbarber shop
p394
aVbook store
p395
aVbowling alley
p396
aVbus stop
p397
aVchurch
p398
aVconvenience store
p399
aVdepartment store
p400
aVfire department
p401
aVgas station
p402
aVhospital
p403
aVhouse
p404
aVlibrary
p405
aVmovie theater
p406
aVmuseum
p407
aVoffice building
p408
aVpost office
p409
aVrestaurant
p410
aVschool
p411
aVmall
p412
aVsupermarket
p413
aVtrain station
p414
aS'building'
p415
aS'buildings'
p416
aS'town'
p417
aS'city'
p418
asVMeasuring Time
p419
(lp420
Valarm
p421
aVatomic
p422
aVcell phone
p423
aVcentury
p424
aVchimes
p425
aVchronometer
p426
aVcomputer
p427
aVcycle
p428
aVdate
p429
aVday
p430
aVdecade
p431
aVdigital
p432
aVepoch
p433
aVequinox
p434
aVera
p435
aVfortnight
p436
aVhour
p437
aVhourglass
p438
aVmillennium
p439
aVmillisecond
p440
aVminute
p441
aVmonth
p442
aVmoon
p443
aVpendulum
p444
aVquartz
p445
aVrevolve
p446
aVrotate
p447
aVseason
p448
aVsecond
p449
aVstopwatch
p450
aVsundial
p451
aVtimer
p452
aVwatch
p453
aVweek
p454
aVyear
p455
aVzone
p456
aS'time'
p457
asVPeople in Education
p458
(lp459
Vgraduate assistant
p460
aVgraduate student
p461
aVhead teacher
p462
aVheadmaster
p463
aVinstructor
p464
aVlab assistant
p465
aVlecturer
p466
aVpresident
p467
aVprincipal
p468
aVpupil
p469
aVschoolboy
p470
aVschoolgirl
p471
aVstudent
p472
aVteacher
p473
aVundergraduate
p474
aVvice-president
p475
aS'education'
p476
asVHuman Body
p477
(lp478
Varmpit
p479
aVback
p480
aVbuttock
p481
aVchest
p482
aVears
p483
aVeyes
p484
aVfeet
p485
aVfingers
p486
aVfoot
p487
aVforehead
p488
aVhair
p489
aVhands
p490
aVhead
p491
aVhip
p492
aVknees
p493
aVlegs
p494
aVmouth
p495
aVnavel
p496
aVneck
p497
aVnipple
p498
aVnose
p499
aVprivate parts
p500
aVshoulder
p501
aVstomach
p502
aVthigh
p503
aVthroat
p504
aVtoes
p505
aVwaist
p506
aS'body'
p507
aS'human body'
p508
asVDog Breeds
p509
(lp510
VAfghan Hound
p511
aVAiredale
p512
aVAiredale Terrier
p513
aVBasenji
p514
aVBasset Hound
p515
aVBeagle
p516
aVBloodhound
p517
aVBorder Collie
p518
aVBoxer
p519
aVBulldog
p520
aVChihuahua
p521
aVChow Chow
p522
aVCocker Spaniel
p523
aVCorgi
p524
aVDachshund
p525
aVDalmatian
p526
aVDoberman
p527
aVFox Terrier
p528
aVGerman Shepherd
p529
aVGolden Retriever
p530
aVGreat Dane
p531
aVGreyhound
p532
aVIrish Setter
p533
aVLabrador
p534
aVLhasa Apso
p535
aVNewfoundland
p536
aVPekingese
p537
aVPit Bull Terrier
p538
aVPointer
p539
aVPomeranian
p540
aVPoodle
p541
aVSaint Bernard
p542
aVSchnauzer
p543
aVScottish Terrier
p544
aVSheepdog
p545
aVShih Tzu
p546
aVSiberian Husky
p547
aVSpaniel
p548
aVSpitz
p549
aS'dog'
p550
aS'canine'
p551
aS'animal'
p552
aS'pet'
p553
asVPercussion Instruments
p554
(lp555
Vagogo bells
p556
aVbass drum
p557
aVbell lyre
p558
aVbongos
p559
aVcastanets
p560
aVceleste
p561
aVchimes
p562
aVclaves
p563
aVconga
p564
aVcowbell
p565
aVcrash cymbals
p566
aVcymbal
p567
aVcymbals
p568
aVdrum
p569
aVdrum set
p570
aVglockenspiel
p571
aVgong
p572
aVkettledrum
p573
aVmaracas
p574
aVmarimba
p575
aVorchestra bells
p576
aVride cymbal
p577
aVscraper
p578
aVsizzle cymbal
p579
aVsnare drum
p580
aVsplash cymbal
p581
aVsteel drums
p582
aVtenor drum
p583
aVtimbales
p584
aVtimpani
p585
aVtom-tom
p586
aVtriangle
p587
aVvibraphone
p588
aVxylophone
p589
aS'percussion'
p590
aS'percussive'
p591
aS'music'
p592
aS'musical instrument'
p593
aS'musical'
p594
aS'stave'
p595
aS'crotchet'
p596
aS'quaver'
p597
aS'semibreve'
p598
aS'breve'
p599
aS'sound'
p600
asVMeasurements
p601
(lp602
Vinch
p603
aVfoot
p604
aVyard
p605
aVmile
p606
aVpint
p607
aVquart
p608
aVgallon
p609
aVounces
p610
aVpound
p611
aVton
p612
aVmillimeter
p613
aVcentimeter
p614
aVmeter
p615
aVkilometer
p616
aVlier
p617
aVgrams
p618
aVkilograms
p619
aS'measurement'
p620
aS'volumne'
p621
aS'length'
p622
aS'weight'
p623
aS'ruler'
p624
aS'scale'
p625
asVCondiments
p626
(lp627
Vrelish
p628
aVsweet pickle
p629
aVdill pickle
p630
aVketchup
p631
aVmustard
p632
aVmayonnaise
p633
aVcatsup
p634
aVolive
p635
aVsour cream
p636
aVsalt
p637
aVpepper
p638
aVsauce
p639
aS'condiment'
p640
asVRestaurant
p641
(lp642
Vbill
p643
aVbreakfast
p644
aVcheck
p645
aVcup
p646
aVdessert
p647
aVdinner
p648
aVdressing
p649
aVdrink
p650
aVfork
p651
aVhamburger
p652
aVknife
p653
aVlunch
p654
aVmenu
p655
aVnapkin
p656
aVorder
p657
aVsalt
p658
aVspoon
p659
aVwater
p660
aVcoffee
p661
aVtea
p662
aS'restaurant'
p663
aS'food'
p664
aS'eat'
p665
asVFarm Animals
p666
(lp667
Vbull
p668
aVcalf
p669
aVcat
p670
aVchicken
p671
aVcow
p672
aVdonkey
p673
aVduck
p674
aVgoat
p675
aVgoose
p676
aVhen
p677
aVhorse
p678
aVlamb
p679
aVpig
p680
aVrooster
p681
aVsheep
p682
aVturkey
p683
aS'farm'
p684
aS'animal'
p685
asVSwimming Strokes
p686
(lp687
Vbackstroke
p688
aVbreaststroke
p689
aVbutterfly
p690
aVcrawl
p691
aVsidestroke
p692
aS'swim'
p693
aS'swimming'
p694
aS'swimming strokes'
p695
asVMusical Instruments
p696
(lp697
Vaccordion
p698
aVagogo bells
p699
aVbagpipes
p700
aVbanjo
p701
aVbaritone
p702
aVbass drum
p703
aVbassoon
p704
aVbell lyre
p705
aVbongos
p706
aVbugle
p707
aVcastanets
p708
aVceleste
p709
aVcello
p710
aVchimes
p711
aVclarinet
p712
aVclaves
p713
aVconga
p714
aVcornet
p715
aVcowbell
p716
aVcrash cymbal
p717
aVcymbal
p718
aVdrum
p719
aVdrum set
p720
aVelectric guitar
p721
aVeuphonium
p722
aVflugelhorn
p723
aVflute
p724
aVFrench horn
p725
aVglockenspiel
p726
aVgong
p727
aVgrand piano
p728
aVguitar
p729
aVharmonica
p730
aVharp
p731
aVkettledrum
p732
aVlute
p733
aVmandolin
p734
aVmaracas
p735
aVmarimba
p736
aVoboe
p737
aVorchestra bells
p738
aVpiano
p739
aVpiccolo
p740
aVrecorder
p741
aVride cymbal
p742
aVsaxophone
p743
aVscraper
p744
aVsizzle cymbal
p745
aVsnare drum
p746
aVsousaphone
p747
aVsplash cymbal
p748
aVsteel drums
p749
aVtenor drum
p750
aVtimbales
p751
aVtimpani
p752
aVtom-tom
p753
aVtriangle
p754
aVtrombone
p755
aVtrumpet
p756
aVtuba
p757
aVvibraphone
p758
aVviolin
p759
aVxylophone
p760
aS'music'
p761
aS'musical instrument'
p762
aS'musical'
p763
aS'stave'
p764
aS'crotchet'
p765
aS'quaver'
p766
aS'semibreve'
p767
aS'breve'
p768
aS'sound'
p769
asVBuildings in the City
p770
(lp771
Vairport
p772
aVapartment building
p773
aVbakery
p774
aVbank
p775
aVbarber shop
p776
aVbook store
p777
aVbowling alley
p778
aVbus terminal
p779
aVcafe
p780
aVcathedral
p781
aVchurch
p782
aVcinema
p783
aVconvenience store
p784
aVdepartment store
p785
aVfire department
p786
aVgas station
p787
aVhospital
p788
aVhouse
p789
aVlibrary
p790
aVmosque
p791
aVmovie theater
p792
aVmuseum
p793
aVoffice building
p794
aVpost office
p795
aVrestaurant
p796
aVschool building
p797
aVshopping mall
p798
aVshrine
p799
aVsupermarket
p800
aVtemple
p801
aVtrain station
p802
aS'building'
p803
aS'city'
p804
asVNewspaper
p805
(lp806
Vadvertisement
p807
aVadvice column
p808
aVback page
p809
aVcartoon
p810
aVcirculation
p811
aVcolumnist
p812
aVcomics
p813
aVcorrespondent
p814
aVeditor
p815
aVeditorial
p816
aVevening edition
p817
aVextra
p818
aVfeature
p819
aVfront page
p820
aVheadline
p821
aVinterviewer
p822
aVlead story
p823
aVmorning edition
p824
aVnewspaper office
p825
aVnewsprint
p826
aVnewsstand
p827
aVobituary
p828
aVphotographer
p829
aVreporter
p830
aVtabloid
p831
aVTV guide
p832
aS'newspaper'
p833
aS'news'
p834
aS'journalist'
p835
aS'paparazzi'
p836
asVBreads
p837
(lp838
Vbiscuits
p839
aVbrown bread
p840
aVcake
p841
aVcheese sticks
p842
aVcoffee cake
p843
aVcookies
p844
aVcorn bread
p845
aVcrackers
p846
aVcroissant
p847
aVdoughnuts
p848
aVEnglish muffins
p849
aVgarlic bread
p850
aVhard rolls
p851
aVmuffins
p852
aVpancakes
p853
aVpie
p854
aVrolls
p855
aVrye bread
p856
aVsourdough bread
p857
aVsweet rolls
p858
aVwaffles
p859
aVwheat bread
p860
aVwhite bread
p861
aS'bread'
p862
aS'pastry'
p863
asVSwimming
p864
(lp865
Vbackstroke
p866
aVbreaststroke
p867
aVbutterfly
p868
aVcrawl
p869
aVdeep end
p870
aVdiving
p871
aVdiving board
p872
aVdog paddle
p873
aVlake
p874
aVlife guard
p875
aVocean
p876
aVriver
p877
aVshallow end
p878
aVsidestroke
p879
aVswimming lane
p880
aVswimming pool
p881
aVsynchronized swimming
p882
aVturn
p883
aVwater
p884
aS'swim'
p885
aS'swimming'
p886
asVInternal Organs
p887
(lp888
Vappendix
p889
aVdiaphragm
p890
aVgall bladder
p891
aVhearts
p892
aVlarge intestine
p893
aVliver
p894
aVlung
p895
aVpancreas
p896
aVsmall intestine
p897
aVspleen
p898
aVstomach
p899
aS'organs'
p900
aS'body'
p901
aS'blood'
p902
asVNatural Materials Used in Clothes
p903
(lp904
Vcotton
p905
aVdenim
p906
aVleather
p907
aVlinen
p908
aVrubber
p909
aVsilk
p910
aVstraw
p911
aVsuede
p912
aVwool
p913
aVwoolen
p914
aS'sewing'
p915
aS'materials'
p916
aS'sew'
p917
aS'clothes'
p918
aS'clothing'
p919
asVJobs and Occupations
p920
(lp921
Vaccountant
p922
aVactor
p923
aVactress
p924
aVathlete
p925
aVauthor
p926
aVbaker
p927
aVbanker
p928
aVbarber
p929
aVbeautician
p930
aVbroker
p931
aVburglar
p932
aVbutcher
p933
aVcarpenter
p934
aVchauffeur
p935
aVchef
p936
aVclerk
p937
aVcoach
p938
aVcraftsman
p939
aVcriminal
p940
aVcrook
p941
aVdentist
p942
aVdoctor
p943
aVeditor
p944
aVengineer
p945
aVfarmer
p946
aVfire fighter
p947
aVfisherman
p948
aVjudge
p949
aVlawyer
p950
aVmagician
p951
aVmechanic
p952
aVmusician
p953
aVnurse
p954
aVpharmacist
p955
aVpilot
p956
aVpoet
p957
aVpoliceman
p958
aVpolitician
p959
aVprinter
p960
aVprofessor
p961
aVrabbi
p962
aVpriest
p963
aVpastor
p964
aVsailor
p965
aVsalesman
p966
aVshoemaker
p967
aVsoldier
p968
aVtailor
p969
aVteacher
p970
aVveterinarian
p971
aVwaiter
p972
aVwaitress
p973
aVwatchmaker
p974
aS'job'
p975
aS'occupation'
p976
asVJustice System
p977
(lp978
Vappeal
p979
aVcapital punishment
p980
aVcaution
p981
aVcell
p982
aVcommunity service
p983
aVcorporal punishment
p984
aVcourt
p985
aVcourt case
p986
aVdeath penalty
p987
aVdefense
p988
aVfine
p989
aVjail
p990
aVguilty
p991
aVimprisonment
p992
aVinnocent
p993
aVjudge
p994
aVjury
p995
aVjustice
p996
aVlawyer
p997
aVoffence
p998
aVprison
p999
aVprobation
p1000
aVprosecution
p1001
aVpunishment
p1002
aVsentence
p1003
aVtrial
p1004
aVverdict
p1005
aVwitness
p1006
aS'justice'
p1007
asVTelephone
p1008
(lp1009
Varea code
p1010
aVbusy tone
p1011
aVcell phone
p1012
aVcollect call
p1013
aVconference call
p1014
aVcredit card call
p1015
aVdesk phone
p1016
aVdial phone
p1017
aVdial tone
p1018
aVhouse phone
p1019
aVinterntional call
p1020
aVlisted number
p1021
aVlocal call
p1022
aVlong-distance call
p1023
aVmobile phone
p1024
aVperson-to-person call
p1025
aVrecorded message
p1026
aVstation-to-station call
p1027
aVtelephone
p1028
aVtelephone book
p1029
aVtelephone booth
p1030
aVtelephone card
p1031
aVtelephone operator
p1032
aVtouch tone phone
p1033
aVunlisted number
p1034
aVwhite pages
p1035
aVyellow pages
p1036
aS'telephone'
p1037
aS'phone'
p1038
aS'mobile'
p1039
aS'android'
p1040
aS'text'
p1041
aS'text message'
p1042
asVParty Names
p1043
(lp1044
Vbarbecue party
p1045
aVanniversary party
p1046
aVbirthday party
p1047
aVcocktail party
p1048
aVdinner party
p1049
aVfancy dress party
p1050
aVwedding party
p1051
aVHallowen party
p1052
aVChristmas party
p1053
aVoffice party
p1054
aVgoodbye party
p1055
aVwelcome party
p1056
aVbirthday party
p1057
aVMother's Day party
p1058
aVFather's Day party
p1059
aVgoing away party
p1060
aVdinner party
p1061
aVgraduation party
p1062
aS'party'
p1063
aS'celebration'
p1064
asVParts of the Body - Level 1 Words
p1065
(lp1066
Varm
p1067
aVback
p1068
aVears
p1069
aVeyes
p1070
aVface
p1071
aVfeet
p1072
aVfingers
p1073
aVfoot
p1074
aVhair
p1075
aVhands
p1076
aVhead
p1077
aVknees
p1078
aVlegs
p1079
aVmouth
p1080
aVneck
p1081
aVnose
p1082
aVshoulders
p1083
aVskin
p1084
aVstomach
p1085
aVteeth
p1086
aVthumbs
p1087
aVtoes
p1088
aVtongue
p1089
aVtooth
p1090
aS'body'
p1091
asVDesserts
p1092
(lp1093
Vapple pie
p1094
aVbirthday cake
p1095
aVcake
p1096
aVcandy
p1097
aVchocolate cake
p1098
aVchocolate bar
p1099
aVchocolate chip cookie
p1100
aVcookies
p1101
aVdonut
p1102
aVdoughnuts
p1103
aVfruit
p1104
aVice cream
p1105
aVmuffin
p1106
aVpie
p1107
aVpie a la mode
p1108
aVpotato chips
p1109
aVpudding
p1110
aVsweet rolls
p1111
aVwhip cream
p1112
aS'dessert'
p1113
aS'fatty'
p1114
aS'obese'
p1115
aS'fat'
p1116
asVAdverbs Which Usually Come Before the Verb
p1117
(lp1118
Valmost
p1119
aValmost never
p1120
aVfrequently
p1121
aVgenerally
p1122
aVhardly
p1123
aVhardly ever
p1124
aVmerely
p1125
aVnearly
p1126
aVnever
p1127
aVnormally
p1128
aVpartly
p1129
aVrarely
p1130
aVrecently
p1131
aVregularly
p1132
aVscarcely
p1133
aVseldom
p1134
aVsimply
p1135
aVsometimes
p1136
asVCowboys
p1137
(lp1138
Vbrand
p1139
aVbullet
p1140
aVcorral
p1141
aVcowboy boots
p1142
aVcowboy hat
p1143
aVgun
p1144
aVgun belt
p1145
aVherd
p1146
aVholster
p1147
aVhorse
p1148
aVlasso
p1149
aVpistol
p1150
aVranch
p1151
aVrifle
p1152
aVrodeo
p1153
aVsaddle
p1154
aVstampede
p1155
aVten-gallon hat
p1156
aS'cowboy'
p1157
asVOlympic Sports
p1158
(lp1159
Vaquatics
p1160
aVarchery
p1161
aVathletics
p1162
aVbadminton
p1163
aVbaseball
p1164
aVbasketball
p1165
aVboxing
p1166
aVcanoeing
p1167
aVcycling
p1168
aVequestrian
p1169
aVfencing
p1170
aVfootball
p1171
aVgymnastics
p1172
aVhandball
p1173
aVhockey
p1174
aVjudo
p1175
aVmodern pentathlon
p1176
aVrowing
p1177
aVsailing
p1178
aVshooting
p1179
aVsoftball
p1180
aVtable tennis
p1181
aVtaekwondo
p1182
aVtennis
p1183
aVtriathlon
p1184
aVvolleyball
p1185
aVweightlifting
p1186
aS'sport'
p1187
asVLand Transportation
p1188
(lp1189
Vbicycle
p1190
aVbus
p1191
aVcar
p1192
aVdogsled
p1193
aVhorse
p1194
aVmotorcycle
p1195
aVscooter
p1196
aVstreetcar
p1197
aVsubway
p1198
aVtaxi
p1199
aVtrain
p1200
aVtruck
p1201
aS'transport'
p1202
asVHair Types
p1203
(lp1204
Vauburn hair
p1205
aVbangs
p1206
aVbeard
p1207
aVblack hair
p1208
aVblond hair
p1209
aVbrown hair
p1210
aVcurly hair
p1211
aVgray hair
p1212
aVkinky hair
p1213
aVmustache
p1214
aVpermanent
p1215
aVpigtails
p1216
aVplatinum blonde hair
p1217
aVponytail
p1218
aVred hair
p1219
aVsideburns
p1220
aVstraight hair
p1221
aVwavy hair
p1222
aS'hair'
p1223
aS'head'
p1224
asVVegetables
p1225
(lp1226
Vasparagus
p1227
aVbeans
p1228
aVbeet
p1229
aVbroccoli
p1230
aVBrussels sprouts
p1231
aVcabbage
p1232
aVcarrot
p1233
aVcauliflower
p1234
aVcelery
p1235
aVChinese cabbage
p1236
aVcorn
p1237
aVcucumber
p1238
aVeggplant
p1239
aVgreen pepper
p1240
aVJapanese radish
p1241
aVkale
p1242
aVlettuce
p1243
aVokra
p1244
aVonion
p1245
aVpeas
p1246
aVpotato
p1247
aVpumpkins
p1248
aVradish
p1249
aVspinach
p1250
aVsweet potato
p1251
aVtomatoes
p1252
aVturnips
p1253
aS'vegetables'
p1254
aS'vegetable'
p1255
aS'veg'
p1256
aS'healthy'
p1257
asVFood Pyramid
p1258
(lp1259
Vbeans
p1260
aVbread
p1261
aVcereal
p1262
aVeggs
p1263
aVfats
p1264
aVfish
p1265
aVfruit
p1266
aVmeat
p1267
aVnuts
p1268
aVoils
p1269
aVpasta
p1270
aVpoultry
p1271
aVrice
p1272
aVsweets
p1273
aVvegetables
p1274
aS'food'
p1275
asVSports
p1276
(lp1277
Vathletics
p1278
aVbaseball
p1279
aVbasketball
p1280
aVbowling
p1281
aVcar racing
p1282
aVcycling
p1283
aVfootball
p1284
aVgolf
p1285
aVgymnastics
p1286
aVhandball
p1287
aVhang gliding
p1288
aVhockey
p1289
aVhorse racing
p1290
aVjogging
p1291
aVmotorcycle racing
p1292
aVpara gliding
p1293
aVpolo
p1294
aVrugby
p1295
aVscuba diving
p1296
aVskiing
p1297
aVskin diving
p1298
aVsnow-boarding
p1299
aVsoccer
p1300
aVsoftball
p1301
aVsquash
p1302
aVswimming
p1303
aVtable tennis
p1304
aVtennis
p1305
aVtrack and field
p1306
aVvolleyball
p1307
aS'sport'
p1308
asVWeapons
p1309
(lp1310
Vatomic bomb
p1311
aVblowgun
p1312
aVbomb
p1313
aVbow and arrow
p1314
aVcannon
p1315
aVclub
p1316
aVgun
p1317
aVhand grenade
p1318
aVknife
p1319
aVland mine
p1320
aVmissile
p1321
aVnuclear bomb
p1322
aVrevolver
p1323
aVrifle
p1324
aVspear
p1325
aVstone
p1326
aVsword
p1327
aVtank
p1328
aS'weapon'
p1329
asVThe Basic Colors
p1330
(lp1331
Vblack
p1332
aVblue
p1333
aVbrown
p1334
aVgray
p1335
aVgreen
p1336
aVorange
p1337
aVpink
p1338
aVpurple
p1339
aVred
p1340
aVwhite
p1341
aVyellow
p1342
aS'colour'
p1343
aS'color'
p1344
asVRoot Vegetables
p1345
(lp1346
Vbeet
p1347
aVcarrot
p1348
aVJapanese radish
p1349
aVkohlrabi
p1350
aVparsnip
p1351
aVpotato
p1352
aVradish
p1353
aVrutabaga
p1354
aVsweet potato
p1355
aVyam
p1356
aS'vegetables'
p1357
asVCar Parts (American English Version)
p1358
(lp1359
Vaccelerator
p1360
aVblinker
p1361
aVbrake
p1362
aVbumper
p1363
aVclutch
p1364
aVdashboard
p1365
aVgear
p1366
aVheadlight
p1367
aVhorn
p1368
aVrearview mirror
p1369
aVtrunk
p1370
aVwheel
p1371
aVwheels
p1372
aVwindshield
p1373
asVAnimals in a Zoo
p1374
(lp1375
Vaardvark
p1376
aVbear
p1377
aVcamel
p1378
aVcrocodile
p1379
aVelephant
p1380
aVgiraffe
p1381
aVkangaroo
p1382
aVleopard
p1383
aVlion
p1384
aVllama
p1385
aVmonkey
p1386
aVostrich
p1387
aVrhinoceros
p1388
aVsnake
p1389
aVtiger
p1390
aVwolf
p1391
aVzebra
p1392
aVanteater
p1393
aVarmadillo
p1394
aVbaboon
p1395
aVbadger
p1396
aVbeaver
p1397
aVcheetah
p1398
aVcougar
p1399
aVgazelle
p1400
aVgorilla
p1401
aVocelot
p1402
aVpanda
p1403
aVpanther
p1404
aVporcupine
p1405
aVwallaby
p1406
aVzebra
p1407
aVpuma
p1408
aVlynx
p1409
aVbobcat
p1410
aVjaguar
p1411
aVhyena
p1412
aValligator
p1413
aS'zoo'
p1414
aS'animals'
p1415
aS'animal'
p1416
aS'wildlife'
p1417
aS'safari'
p1418
asVHead
p1419
(lp1420
VAdam's apple
p1421
aVbald head
p1422
aVcheek
p1423
aVchin
p1424
aVcrow's feet
p1425
aVdimple
p1426
aVear
p1427
aVeye
p1428
aVeyebrow
p1429
aVforehead
p1430
aVfreckles
p1431
aVgums
p1432
aVhead
p1433
aVlip
p1434
aVlower jaw
p1435
aVmole
p1436
aVmouth
p1437
aVnose
p1438
aVpimple
p1439
aVtemple
p1440
aVtongue
p1441
aVtooth
p1442
aVupper jaw
p1443
aVwrinkles
p1444
aS'hair'
p1445
asVDowntown
p1446
(lp1447
Vpark
p1448
aVstore
p1449
aVpost office
p1450
aVbank
p1451
aVstreet
p1452
aVroad
p1453
aVparking meter
p1454
aVpedestrian crossing
p1455
aVbus stop
p1456
aVtrain station
p1457
aVfire station
p1458
aVpolice station
p1459
aS'town'
p1460
aS'buildings'
p1461
asVPasta Types
p1462
(lp1463
Vcappelletti
p1464
aVcurly lasagna
p1465
aVelbow macaroni
p1466
aVfedelini
p1467
aVlasagna
p1468
aVnoodles
p1469
aVravioli
p1470
aVribbed macaroni
p1471
aVspaghetti
p1472
aVthin macaroni
p1473
aVthin spaghetti
p1474
aVtortellini
p1475
aVturrets
p1476
aVvermicelli
p1477
asVWoodwind Instruments
p1478
(lp1479
Vbassoon
p1480
aVflute
p1481
aVpiccolo
p1482
aVclarinet
p1483
aVoboe
p1484
aVrecorder
p1485
aVsaxophone
p1486
aS'woodwind'
p1487
aS'music'
p1488
aS'musical instrument'
p1489
aS'musical'
p1490
aS'stave'
p1491
aS'crotchet'
p1492
aS'quaver'
p1493
aS'semibreve'
p1494
aS'breve'
p1495
aS'sound'
p1496
asVDinnerware
p1497
(lp1498
Vbread and butter plate
p1499
aVbutter dish
p1500
aVcoffee mug
p1501
aVcup
p1502
aVfish platter
p1503
aVgravy boat and stand
p1504
aVpepper shaker
p1505
aVplatter
p1506
aVrim soup bowl
p1507
aVsalad bowl
p1508
aVsalad plate
p1509
aVsalt shaker
p1510
aVsaucer
p1511
aVserving bowl
p1512
aVsoup bowl
p1513
aVsugar bowl
p1514
aVtea cup
p1515
aVwater pitcher
p1516
aS'cutlery'
p1517
aS'crockery'
p1518
asVHuman Teeth
p1519
(lp1520
Vadult teeth
p1521
aVbaby teeth
p1522
aVback teeth
p1523
aVcanine
p1524
aVcentral incisor
p1525
aVfirst molar
p1526
aVfirst premolar
p1527
aVfront teeth
p1528
aVlateral incisor
p1529
aVsecond molar
p1530
aVsecond premolar
p1531
aVthird molar
p1532
aVwisdom teeth
p1533
aS'teeth'
p1534
aS'mouth'
p1535
aS'dentist'
p1536
asVShaving
p1537
(lp1538
Vdisposable razor
p1539
aVdouble-edge blade
p1540
aVdouble-edge razor
p1541
aVelectric razor
p1542
aVrazor blade
p1543
aVshaving brush
p1544
aVshaving cream
p1545
aVshaving mug
p1546
aVstraight razor
p1547
aS'shave'
p1548
aS'shaving'
p1549
asVCat Breeds
p1550
(lp1551
VAbyssinian
p1552
aVAmerican Bobtail
p1553
aVAngora
p1554
aVBalinese
p1555
aVBengal
p1556
aVHimalayan
p1557
aVJapanese Bobtail
p1558
aVManx
p1559
aVPersian
p1560
aVSiamese
p1561
aVSiberian
p1562
aVSphynx
p1563
aS'tiger'
p1564
aS'cat'
p1565
aS'animal'
p1566
aS'feline'
p1567
asVPaying Bills
p1568
(lp1569
Vaccount number
p1570
aVamount due
p1571
aVcash
p1572
aVcheck book
p1573
aVcredit card
p1574
aVoverdue
p1575
aVwrite a check
p1576
aS'money'
p1577
aS'cheque'
p1578
aS'cheque book'
p1579
asVBulb Vegetables
p1580
(lp1581
Vchive
p1582
aVgarlic
p1583
aVgreen onion
p1584
aVleek
p1585
aVonion
p1586
aVscallion
p1587
aVshallot
p1588
aS'vegetable'
p1589
asVHarbor
p1590
(lp1591
Vbreakwater
p1592
aVbuoy
p1593
aVcrane
p1594
aVdock
p1595
aVlighthouse
p1596
aVship
p1597
aVshipyard
p1598
aVtugboat
p1599
aVwharf
p1600
aS'harbour'
p1601
aS'harbor'
p1602
asVSymphony Orchestra Instruments
p1603
(lp1604
Vbass drum
p1605
aVbassoon
p1606
aVclarinet
p1607
aVcontrbasson
p1608
aVcornet
p1609
aVcymbal
p1610
aVdouble bass
p1611
aVflute
p1612
aVFrench horn
p1613
aVgong
p1614
aVharp
p1615
aVoboe
p1616
aVpiano
p1617
aVpiccolo
p1618
aVcastanet
p1619
aVsnare drum
p1620
aVtimpani
p1621
aVtriangle
p1622
aVtrombone
p1623
aVtrumpet
p1624
aVtuba
p1625
aVviola
p1626
aVviolin
p1627
aVxylophone
p1628
aS'smphony'
p1629
aS'orchestral'
p1630
aS'orchestra'
p1631
aS'composer'
p1632
aS'classical'
p1633
aS'music'
p1634
aS'musical instrument'
p1635
aS'musical'
p1636
aS'stave'
p1637
aS'crotchet'
p1638
aS'quaver'
p1639
aS'semibreve'
p1640
aS'breve'
p1641
aS'sound'
p1642
asVLargest Countries in Population (26-50)
p1643
(lp1644
VUkraine
p1645
aVSouth Africa
p1646
aVColombia
p1647
aVSudan
p1648
aVSpain
p1649
aVArgentina
p1650
aVPoland
p1651
aVTanzania
p1652
aVKenya
p1653
aVMorocco
p1654
aVCanada
p1655
aVAlgeria
p1656
aVAfghanistan
p1657
aVPeru
p1658
aVNepal
p1659
aVUganda
p1660
aVUzbekistan
p1661
aVSaudi Arabia
p1662
aVIraq
p1663
aVVenezuela
p1664
aVMalaysia
p1665
aVNorth Korea
p1666
aVTaiwan
p1667
aVGhana
p1668
aVRomania
p1669
aS'countries'
p1670
aS'world'
p1671
aS'geography'
p1672
aS'country'
p1673
asVMaterials
p1674
(lp1675
Vacrylic
p1676
aValloy
p1677
aValuminum
p1678
aVbrass
p1679
aVbrick
p1680
aVbronze
p1681
aVcarbon
p1682
aVcardboard
p1683
aVcast iron
p1684
aVcement
p1685
aVceramics
p1686
aVcopper
p1687
aVcotton
p1688
aVdiamond
p1689
aVepoxy
p1690
aVfiber
p1691
aVfiberglass
p1692
aVglass
p1693
aVglue
p1694
aVgold
p1695
aViron
p1696
aVleather
p1697
aVlinen
p1698
aVnylon
p1699
aVpaper
p1700
aVpolyester
p1701
aVrubber
p1702
aVsand
p1703
aVsilica
p1704
aVsilver
p1705
aVskin
p1706
aVsteel
p1707
aVstone
p1708
aVtitanium
p1709
aVvinyl
p1710
aVviscose
p1711
aVwood
p1712
aVwool
p1713
aS'material'
p1714
asVGardening Verbs
p1715
(lp1716
Vcover
p1717
aVfertilize
p1718
aVgather
p1719
aVhoe
p1720
aVmix
p1721
aVmulch
p1722
aVpick
p1723
aVplant
p1724
aVplow
p1725
aVrake
p1726
aVsell
p1727
aVshovel
p1728
aVsort
p1729
aVsow
p1730
aVspray
p1731
aVthin
p1732
aVtie
p1733
aVtransplant
p1734
aVwater
p1735
aS'garden'
p1736
aS'gardening'
p1737
asVCountries with the Largest Armed Forces (2004)
p1738
(lp1739
VChina
p1740
aVUnited States of America
p1741
aVIndia
p1742
aVNorth Korea
p1743
aVRussia
p1744
aVSouth Korea
p1745
aVPakistan
p1746
aVIran
p1747
aVTurkey
p1748
aVVietnam
p1749
aVMyanmar
p1750
aVEgypt
p1751
aVTaiwan
p1752
aVSyria
p1753
aVThailand
p1754
aVUkraine
p1755
aVIndonesia
p1756
aVGermany
p1757
aVBrazil
p1758
aVFrance
p1759
aVEhtiopia
p1760
aVJapan
p1761
aVItaly
p1762
aVUnited Kingdom
p1763
aVSaudi Arabia
p1764
aVMorocco
p1765
aVMexico
p1766
aVSpain
p1767
aVGreece
p1768
aVIsrael
p1769
aS'countries'
p1770
aS'world'
p1771
aS'geography'
p1772
aS'country'
p1773
asVSalad Dressing
p1774
(lp1775
Vblue cheese
p1776
aVFrench dressing
p1777
aVhouse dressing
p1778
aVthousand island
p1779
aVvinegar
p1780
aVranch
p1781
aVoil and vinegar
p1782
aS'salad'
p1783
asVDinner Table
p1784
(lp1785
Vbowl
p1786
aVcup
p1787
aVdish
p1788
aVfork
p1789
aVglass
p1790
aVknife
p1791
aVmug
p1792
aVnapkin
p1793
aVpepper
p1794
aVpitcher
p1795
aVplate
p1796
aVsalad
p1797
aVsalt
p1798
aVsaucer
p1799
aVspoon
p1800
aVsugar
p1801
aS'kitchen'
p1802
aS'eat'
p1803
aS'food'
p1804
aS'cutlery'
p1805
aS'crockery'
p1806
asVSnakes
p1807
(lp1808
VBoa
p1809
aVBrown Snake
p1810
aVCobra
p1811
aVCoral Snake
p1812
aVGreen Snake
p1813
aVKing Cobra
p1814
aVPython
p1815
aVRat Snake
p1816
aVRattlesnake
p1817
aVViper
p1818
aS'snake'
p1819
aS'animal'
p1820
aS'slither'
p1821
asVInsects
p1822
(lp1823
Vant
p1824
aVbee
p1825
aVbeetle
p1826
aVbutterfly
p1827
aVcaterpillar
p1828
aVcentipede
p1829
aVcockroach
p1830
aVcricket
p1831
aVdragonfly
p1832
aVflea
p1833
aVfly
p1834
aVgrasshopper
p1835
aVgrub
p1836
aVladybug
p1837
aVladybug
p1838
aVmaggot
p1839
aVmosquito
p1840
aVmoth
p1841
aVsnail
p1842
aVspider
p1843
aVtermite
p1844
aVtick
p1845
aVwasp
p1846
aS'insect'
p1847
aS'bug'
p1848
aS'animal'
p1849
aS'creepy crawly'
p1850
asVCrimes
p1851
(lp1852
Varson
p1853
aVassault
p1854
aVbigamy
p1855
aVblackmail
p1856
aVbribery
p1857
aVburglary
p1858
aVchild abuse
p1859
aVconspiracy
p1860
aVespionage
p1861
aVforgery
p1862
aVfraud
p1863
aVgenocide
p1864
aVhijacking
p1865
aVhomicide
p1866
aVkidnapping
p1867
aVmanslaughter
p1868
aVmugging
p1869
aVmurder
p1870
aVperjury
p1871
aVrape
p1872
aVriot
p1873
aVrobbery
p1874
aVshoplifting
p1875
aVslander
p1876
aVsmuggling
p1877
aVtreason
p1878
aVtrespassing
p1879
aS'crime'
p1880
aS'jail'
p1881
aS'police'
p1882
aS'investigation'
p1883
asVMetals
p1884
(lp1885
Vgold
p1886
aVsilver
p1887
aViron
p1888
aValuminium
p1889
aVcopper
p1890
aVsteel
p1891
aVbrass
p1892
aVtin
p1893
aVzinc
p1894
aVlead
p1895
aVnickel
p1896
aVplatinum
p1897
aVtitanium
p1898
aVmercury
p1899
aVbronze
p1900
aS'metal'
p1901
aS'periodic table'
p1902
asVShapes
p1903
(lp1904
Vcircle
p1905
aVcone
p1906
aVcylinder
p1907
aVellipse
p1908
aVhexagon
p1909
aVirregular shape
p1910
aVoctagon
p1911
aVoval
p1912
aVparallelogram
p1913
aVpentagon
p1914
aVpyramid
p1915
aVrectangle
p1916
aVsemicircle
p1917
aVsphere
p1918
aVsquare
p1919
aVstar
p1920
aVtrapezoid
p1921
aVtriangle
p1922
aVwedge
p1923
aVwhorl
p1924
aS'shape'
p1925
aS'forms'
p1926
aS'shapes'
p1927
asVDrinks and Beverages
p1928
(lp1929
Vbeer
p1930
aVbrandy
p1931
aVcocoa
p1932
aVcocktail
p1933
aVcoffee
p1934
aVcoke
p1935
aVgreen tea
p1936
aVice coffee
p1937
aVice tea
p1938
aVjuice
p1939
aVlemonade
p1940
aVliquor
p1941
aVmilk
p1942
aVmilkshake
p1943
aVorange juice
p1944
aVpunch
p1945
aVsoda
p1946
aVsoft drink
p1947
aVtea
p1948
aVtomato juice
p1949
aVwater
p1950
aVwhiskey
p1951
aVwine
p1952
aS'drink'
p1953
aS'thirsty'
p1954
aS'thirst'
p1955
aS'beverage'
p1956
aS'gulp'
p1957
aS'slurp'
p1958
asVNationalites
p1959
(lp1960
VAmerican
p1961
aVArmenian
p1962
aVAustralian
p1963
aVBelgian
p1964
aVBritish
p1965
aVCanadian
p1966
aVChinese
p1967
aVCuban
p1968
aVGerman
p1969
aVGreek
p1970
aVGuatemalan
p1971
aVItalian
p1972
aVKorean
p1973
aVMexican
p1974
aVNorwegian
p1975
aVRomanian
p1976
aVRussian
p1977
aVSwedish
p1978
aVSwiss
p1979
aVTurkish
p1980
aVUkrainian
p1981
aVVenezuelan
p1982
aVYugoslavian
p1983
aS'countries'
p1984
aS'world'
p1985
aS'geography'
p1986
aS'country'
p1987
aS'nationality'
p1988
aS'nation'
p1989
asVBrass Instruments
p1990
(lp1991
Vbaritone
p1992
aVbugle
p1993
aVcornet
p1994
aVeuphonium
p1995
aVflugelhorn
p1996
aVFrench horn
p1997
aVsousaphone
p1998
aVtrombone
p1999
aVtrumpet
p2000
aVtuba
p2001
aS'brass'
p2002
aS'music'
p2003
aS'musical instrument'
p2004
aS'musical'
p2005
aS'stave'
p2006
aS'crotchet'
p2007
aS'quaver'
p2008
aS'semibreve'
p2009
aS'breve'
p2010
aS'sound'
p2011
asVGarden Tools
p2012
(lp2013
Vbulb dibble
p2014
aVdibble
p2015
aVgarden hoe
p2016
aVgarden line
p2017
aVhedge shears
p2018
aVhoe
p2019
aVlawn edger
p2020
aVlawn rake
p2021
aVlopping shears
p2022
aVmattock
p2023
aVpitch fork
p2024
aVpost-hole digger
p2025
aVpruning shears
p2026
aVrake
p2027
aVseeder
p2028
aVshovel
p2029
aVsmall hand cultivator
p2030
aVspade
p2031
aVspading fork
p2032
aVtree pruner
p2033
aVtrowel
p2034
aVweeder
p2035
aVweeding hoe
p2036
aS'garden'
p2037
aS'tool'
p2038
aS'gardening'
p2039
aS'shrub'
p2040
aS'bush'
p2041
asVSports Played with a Ball
p2042
(lp2043
Vbaseball
p2044
aVbasketball
p2045
aVfield hockey
p2046
aVfootball
p2047
aVgolf
p2048
aVhandball
p2049
aVlawn tennis
p2050
aVrugby
p2051
aVsoccer
p2052
aVsquash
p2053
aVtable tennis
p2054
aVtennis
p2055
aVvolleyball
p2056
aS'sport'
p2057
aS'ball'
p2058
asVBirds
p2059
(lp2060
Valbatross
p2061
aVbuzzard
p2062
aVchick
p2063
aVcondor
p2064
aVcormorant
p2065
aVcrow
p2066
aVcrow
p2067
aVdrake
p2068
aVduck
p2069
aVduckling
p2070
aVeagle
p2071
aVgander
p2072
aVgoose
p2073
aVgosling
p2074
aVgrouse
p2075
aVhawk
p2076
aVhen
p2077
aVheron
p2078
aVpartridge
p2079
aVpelican
p2080
aVpheasant
p2081
aVptarmigan
p2082
aVpuffin
p2083
aVquail
p2084
aVraven
p2085
aVseagull
p2086
aVsparrow
p2087
aVswallow
p2088
aVswan
p2089
aVturkey
p2090
aVvulture
p2091
aS'bird'
p2092
asVHotel
p2093
(lp2094
Vbellboy
p2095
aVcheck in
p2096
aVcheck-out
p2097
aVcoffee shop
p2098
aVdouble room
p2099
aVextra bed
p2100
aVhotel
p2101
aVinformation desk
p2102
aVinn
p2103
aVmoney exchange
p2104
aVmorning call
p2105
aVmotel
p2106
aVnewsstand
p2107
aVreservation
p2108
aVroom maid
p2109
aVroom number
p2110
aVroom service
p2111
aVservice charge
p2112
aVsingle room
p2113
aVsingle with bath
p2114
aVsuite
p2115
aVtwin room
p2116
aVyouth hostel
p2117
asVGeographic Features
p2118
(lp2119
Vbay
p2120
aVbeach
p2121
aVcave
p2122
aVcreek
p2123
aVdesert
p2124
aVearth
p2125
aVforest
p2126
aVhill
p2127
aVisland
p2128
aVlake
p2129
aVmountain
p2130
aVocean
p2131
aVpeak
p2132
aVplain
p2133
aVpond
p2134
aVriver
p2135
aVriverbed
p2136
aVsea
p2137
aVstream
p2138
aVswamp
p2139
aVvalley
p2140
aVwaterfall
p2141
aVwoods
p2142
aS'nature'
p2143
aS'geography'
p2144
aS'geographic'
p2145
aS'outdoors'
p2146
aS'natural'
p2147
asVCitrus Fruits
p2148
(lp2149
Vgrapefruit
p2150
aVkumquat
p2151
aVlemon
p2152
aVlime
p2153
aVMandarin orange
p2154
aVnavel orange
p2155
aVorange
p2156
aVpink grapefruit
p2157
aVtangerine
p2158
aVwhite grapefruit
p2159
aS'citrus'
p2160
aS'fruit'
p2161
aS'citrus fruit'
p2162
aS'tangy'
p2163
asVArtificial Materials
p2164
(lp2165
Vnylon
p2166
aVplastic
p2167
aVpolyester
p2168
aS'artificial'
p2169
asVMusic
p2170
(lp2171
Vaccordion
p2172
aValto
p2173
aVbanjo
p2174
aVbaritone
p2175
aVbass
p2176
aVbassoon
p2177
aVbeat
p2178
aVcello
p2179
aVchord
p2180
aVclarinet
p2181
aVclef
p2182
aVcomposer
p2183
aVcomposition
p2184
aVcymbal
p2185
aVdrum
p2186
aVflat
p2187
aVflute
p2188
aVguitar
p2189
aVharmonica
p2190
aVharp
p2191
aVhorn
p2192
aVinstrument
p2193
aVlyrics
p2194
aVmandolin
p2195
aVmelody
p2196
aVmusician
p2197
aVnotes
p2198
aVoboe
p2199
aVoctave
p2200
aVopera
p2201
aVorgan
p2202
aVpiano
p2203
aVpiccolo
p2204
aVrhythm
p2205
aVsaxophone
p2206
aVsing
p2207
aVsinger
p2208
aVsong
p2209
aVsoprano
p2210
aVtempo
p2211
aVtenor
p2212
aVtrombone
p2213
aVtrumpet
p2214
aVtuba
p2215
aVtune
p2216
aVviola
p2217
aVviolin
p2218
aVxylophone
p2219
aS'music'
p2220
aS'musical instrument'
p2221
aS'musical'
p2222
aS'stave'
p2223
aS'crotchet'
p2224
aS'quaver'
p2225
aS'semibreve'
p2226
aS'breve'
p2227
aS'sound'
p2228
asVCosmetics
p2229
(lp2230
Vaftershave
p2231
aVbody lotion
p2232
aVcream
p2233
aVdeodorant
p2234
aVeyeliner
p2235
aVfoundation
p2236
aVfragrance
p2237
aVlipstick
p2238
aVmakeup
p2239
aVmask
p2240
aVperfume
p2241
aVshampoo
p2242
aVsoap
p2243
aS'bathroom'
p2244
aS'cosmetics'
p2245
asVValentine's Day
p2246
(lp2247
Varrow
p2248
aVcandy
p2249
aVcard
p2250
aVchocolate
p2251
aVcupid
p2252
aVFebruary
p2253
aVflower
p2254
aVheart
p2255
aVhug
p2256
aVkiss
p2257
aVlove
p2258
aVred
p2259
aVrose
p2260
aVsweet
p2261
aVvalentine
p2262
aS'valentine'
p2263
aS'Valentines Day'
p2264
asVDairy Products
p2265
(lp2266
Vcheese
p2267
aVcream
p2268
aVice cream
p2269
aVmilk
p2270
aVyogurt
p2271
aS'dairy'
p2272
asVTransportation
p2273
(lp2274
Vairplane
p2275
aVbicycle
p2276
aVboat
p2277
aVbus
p2278
aVcar
p2279
aVhelicopter
p2280
aVhorse
p2281
aVjet
p2282
aVmotorcycle
p2283
aVship
p2284
aVsubway
p2285
aVtaxi
p2286
aVtrain
p2287
aVtruck
p2288
aS'transport'
p2289
aS'transportation'
p2290
aS'travel'
p2291
asVDays of the Week
p2292
(lp2293
VSunday
p2294
aVMonday
p2295
aVTuesday
p2296
aVWednesday
p2297
aVThursday
p2298
aVFriday
p2299
aVSaturday
p2300
aS'days'
p2301
aS'time'
p2302
aS'week'
p2303
asVSewing
p2304
(lp2305
Vbuttons
p2306
aVcloth
p2307
aVdressmaker's model
p2308
aVmagnet
p2309
aVneedle threader
p2310
aVneedles
p2311
aVpattern
p2312
aVpin cushion
p2313
aVpinking shears
p2314
aVpins
p2315
aVsafety pins
p2316
aVscissor
p2317
aVskirt marker
p2318
aVtape measure
p2319
aVthimble
p2320
aVtracing wheel
p2321
aVzipper
p2322
aS'sew'
p2323
aS'sewing'
p2324
aS'fabric'
p2325
aS'sewing machine'
p2326
asVAircraft
p2327
(lp2328
Vairbus
p2329
aVairship
p2330
aVbiplane
p2331
aVbomber
p2332
aVfighter
p2333
aVglider
p2334
aVhelicopter
p2335
aVjet
p2336
aVjumbo
p2337
aVtanker
p2338
aS'aircraft'
p2339
aS'airplane'
p2340
aS'aeroplane'
p2341
asVFruit Trees
p2342
(lp2343
Vapple tree
p2344
aVcherry tree
p2345
aVorange tree
p2346
aVpeach tree
p2347
aVgrapefruit tree
p2348
aVbanana tree
p2349
aVmango tree
p2350
aVnectarine tree
p2351
aVplum tree
p2352
aS'fruit'
p2353
aS'tree'
p2354
aS'food'
p2355
asVSmoking
p2356
(lp2357
Vaddiction
p2358
aVash
p2359
aVash tray
p2360
aVchain smoker
p2361
aVcigarette butt
p2362
aVfilter
p2363
aVheavy smoker
p2364
aVlegal age
p2365
aVlight smoker
p2366
aVlung cancer
p2367
aVnicotine
p2368
aVnon-smoker
p2369
aVnon-smoking section
p2370
aVpackage
p2371
aVpassive smoke
p2372
aVsmoke
p2373
aVsmoker
p2374
aVsmoking section
p2375
aVtar
p2376
aVtax
p2377
aVvending machine
p2378
aS'smoke'
p2379
aS'cigarette'
p2380
aS'pipe'
p2381
asVFlowers
p2382
(lp2383
Vbegonia
p2384
aVcarnation
p2385
aVcrocus
p2386
aVdaffodil
p2387
aVdahlia
p2388
aVdaisy
p2389
aVfoxglove
p2390
aVgeranium
p2391
aVgladiolus
p2392
aVhyacinth
p2393
aViris
p2394
aVjasmine
p2395
aVlilac
p2396
aVlily
p2397
aVmimosa
p2398
aVnarcissus
p2399
aVorchid
p2400
aVpansy
p2401
aVpeony
p2402
aVpoppy
p2403
aVrose
p2404
aVrose
p2405
aVsunflower
p2406
aVsunflower
p2407
aVthistle
p2408
aVtulip
p2409
aVviolet
p2410
aVviolet
p2411
aS'flower'
p2412
aS'garden'
p2413
aS'nature'
p2414
aS'butterfly'
p2415
aS'bee'
p2416
aS'pollen'
p2417
aS'nectar'
p2418
asVLargest Countries in Population (1-25)
p2419
(lp2420
VChina
p2421
aVIndia
p2422
aVUnited States
p2423
aVIndonesia
p2424
aVBrazil
p2425
aVPakistan
p2426
aVBangladesh
p2427
aVRussia
p2428
aVNigeria
p2429
aVJapan
p2430
aVMexico
p2431
aVPhilippines
p2432
aVVietnam
p2433
aVGermany
p2434
aVEgypt
p2435
aVEthiopia
p2436
aVTurkey
p2437
aVIran
p2438
aVThailand
p2439
aVCongo
p2440
aVFrance
p2441
aVUnited Kingdom
p2442
aVItaly
p2443
aVSouth Korea
p2444
aVBurma
p2445
aS'countries'
p2446
aS'world'
p2447
aS'geography'
p2448
aS'country'
p2449
asVRefrigerator
p2450
(lp2451
Vice cube tray
p2452
aVfreezer compartment
p2453
aVmeat keeper
p2454
aVdairy compartment
p2455
aVbutter compartment
p2456
aVhandle
p2457
aVgasket
p2458
aVfreezer door
p2459
aVswitch
p2460
aVstorage door
p2461
aVegg tray
p2462
aVcompressor
p2463
aVdefrost timer
p2464
aVfan
p2465
aVdrain pan
p2466
aVcrisper
p2467
aVglass cover
p2468
aVshelf
p2469
aVrefrigerator compartment
p2470
aVthermostat control
p2471
aVevaporator coil
p2472
aVcondenser coil
p2473
aVdefrost heater
p2474
aS'fridge'
p2475
asVFamily Members
p2476
(lp2477
Vaunt
p2478
aVbrother
p2479
aVcousin
p2480
aVdaughter
p2481
aVfather
p2482
aVgranddaughter
p2483
aVgrandmother
p2484
aVgrandson
p2485
aVmother
p2486
aVnephew
p2487
aVniece
p2488
aVsister
p2489
aVson
p2490
aVstepdaughter
p2491
aVstepmother
p2492
aVstepson
p2493
aVuncle
p2494
aS'family'
p2495
aS'relative'
p2496
asVAnimals
p2497
(lp2498
Valligator
p2499
aVant
p2500
aVbear
p2501
aVbee
p2502
aVbird
p2503
aVcamel
p2504
aVcat
p2505
aVcheetah
p2506
aVchicken
p2507
aVchimpanzee
p2508
aVcow
p2509
aVcrocodile
p2510
aVdeer
p2511
aVdog
p2512
aVdolphin
p2513
aVduck
p2514
aVeagle
p2515
aVelephant
p2516
aVfish
p2517
aVfly
p2518
aVfox
p2519
aVfrog
p2520
aVgiraffe
p2521
aVgoat
p2522
aVgoldfish
p2523
aVhamster
p2524
aVhippopotamus
p2525
aVhorse
p2526
aVkangaroo
p2527
aVkitten
p2528
aVleopard
p2529
aVlion
p2530
aVlizard
p2531
aVlobster
p2532
aVmonkey
p2533
aVoctopus
p2534
aVostrich
p2535
aVotter
p2536
aVowl
p2537
aVoyster
p2538
aVpanda
p2539
aVparrot
p2540
aVpelican
p2541
aVpig
p2542
aVpigeon
p2543
aVporcupine
p2544
aVpuppy
p2545
aVrabbit
p2546
aVrat
p2547
aVreindeer
p2548
aVrhinoceros
p2549
aVrooster
p2550
aVscorpion
p2551
aVseal
p2552
aVshark
p2553
aVsheep
p2554
aVshrimp
p2555
aVsnail
p2556
aVsnake
p2557
aVsparrow
p2558
aVspider
p2559
aVsquid
p2560
aVsquirrel
p2561
aVswallow
p2562
aVswan
p2563
aVtiger
p2564
aVtoad
p2565
aVtortoise
p2566
aVturtle
p2567
aVvulture
p2568
aVwalrus
p2569
aVweasel
p2570
aVwhale
p2571
aVwolf
p2572
aVzebra
p2573
aS'animals'
p2574
aS'animal'
p2575
asVAdverbs of Time
p2576
(lp2577
Vafter
p2578
aVafterwards
p2579
aValways
p2580
aVat the same time as
p2581
aVbefore
p2582
aVby and by
p2583
aVduring
p2584
aVearlier than
p2585
aVfor a long time
p2586
aVfrequently
p2587
aVfrom time to time
p2588
aVin a few minutes
p2589
aVin the mornings
p2590
aVlast week
p2591
aVlately
p2592
aVlater than
p2593
aVlong ago
p2594
aVmany times
p2595
aVmany years ago
p2596
aVnever
p2597
aVnow and then
p2598
aVoccasionally
p2599
aVoften
p2600
aVonce in a while
p2601
aVonce upon a time
p2602
aVrarely
p2603
aVrecently
p2604
aVsometimes
p2605
aVsoon
p2606
aVtoday
p2607
aVtomorrow
p2608
aVusually
p2609
aVyesterday
p2610
aS'time'
p2611
aS'every day'
p2612
aS'most days'
p2613
aS'most of the time'
p2614
asVDental Care
p2615
(lp2616
Vbreath
p2617
aVcavities
p2618
aVchew
p2619
aVcup
p2620
aVdental surgeon
p2621
aVdentist
p2622
aVenamel
p2623
aVerosion
p2624
aVfilling
p2625
aVfloss
p2626
aVfluoride
p2627
aVgingivitis
p2628
aVgum-line
p2629
aVgums
p2630
aVmolar
p2631
aVmouthwash
p2632
aVperiodontal
p2633
aVroot canal
p2634
aVsmile
p2635
aVteeth
p2636
aVtooth fairy
p2637
aVtoothbrush
p2638
aVtoothpaste
p2639
aVtoothpick
p2640
aVwhitening
p2641
aS'dental'
p2642
aS'mouth'
p2643
asVFish and Things That Live in Water
p2644
(lp2645
Vbass
p2646
aVcarp
p2647
aVcod
p2648
aVcrab
p2649
aVcrawdad
p2650
aVcrayfish
p2651
aVeel
p2652
aVhalibut
p2653
aVherring
p2654
aVlobster
p2655
aVoyster
p2656
aVperch
p2657
aVpike
p2658
aVsalmon
p2659
aVsardine
p2660
aVshark
p2661
aVshrimp
p2662
aVsturgeon
p2663
aVtadpole
p2664
aVtrout
p2665
aVtuna
p2666
aVswordfish
p2667
aS'fish'
p2668
aS'water'
p2669
aS'sea'
p2670
aS'ocean'
p2671
aS'river'
p2672
asVParts of a Book
p2673
(lp2674
Vacknowledgments
p2675
aVappendix
p2676
aVbibliography
p2677
aVcontents
p2678
aVcopyright
p2679
aVdedication
p2680
aVexplanatory notes
p2681
aVfootnote
p2682
aVindex
p2683
aVpreface
p2684
aVtext
p2685
aVtitle
p2686
aS'writer'
p2687
aS'book'
p2688
aS'literary'
p2689
aS'write'
p2690
aS'author'
p2691
asVBugs
p2692
(lp2693
Vbee
p2694
aVcaterpiller
p2695
aVcicada
p2696
aVcockroach
p2697
aVcricket
p2698
aVdragonfly
p2699
aVfly
p2700
aVgrasshopper
p2701
aVinsects
p2702
aVlocust
p2703
aVmosquito
p2704
aVspider
p2705
aVwasp
p2706
aS'bug'
p2707
aS'insect'
p2708
asVVehicles
p2709
(lp2710
Vambulance
p2711
aVbicycle
p2712
aVbulldozer
p2713
aVbus
p2714
aVcar
p2715
aVconcrete mixer
p2716
aVcontainer truck
p2717
aVcrane truck
p2718
aVdump truck
p2719
aVfire engine
p2720
aVjeep
p2721
aVminibus
p2722
aVmotorcycle
p2723
aVpolice car
p2724
aVroad grader
p2725
aVscooter
p2726
aVsidecar
p2727
aVsnowplow
p2728
aVsports car
p2729
aVtank
p2730
aVtaxi
p2731
aVtaxicab
p2732
aVtractor
p2733
aVwrecker
p2734
aS'vehicle'
p2735
asVCarpentry Tools
p2736
(lp2737
Vadjustable wrench
p2738
aVball peen hammer
p2739
aVbench saw
p2740
aVbox end wrench
p2741
aVbrace
p2742
aVC-clamp
p2743
aVcircular saw
p2744
aVdrill press
p2745
aVelectric drill
p2746
aVhacksaw
p2747
aVhammer
p2748
aVhand drill
p2749
aVhandsaw
p2750
aVlocking pliers
p2751
aVmallet
p2752
aVopen end wrench
p2753
aVplane
p2754
aVpliers
p2755
aVrib joint pliers
p2756
aVrouter
p2757
aVscrewdriver
p2758
aVvise
p2759
aS'carpentry'
p2760
asVCastles
p2761
(lp2762
Varcher
p2763
aVcannon
p2764
aVdrawbridge
p2765
aVdungeon
p2766
aVknight
p2767
aVmoat
p2768
aVsamurai
p2769
aVshield
p2770
aVsword
p2771
aVwatch tower
p2772
asVParts of the Hand
p2773
(lp2774
Vfist
p2775
aVfore finger
p2776
aVknuckle
p2777
aVlittle finger
p2778
aVmiddle finger
p2779
aVnail
p2780
aVpalm
p2781
aVthird finger
p2782
aVthumb
p2783
aVwrist
p2784
aS'hand'
p2785
aS'finger'
p2786
asVHouse
p2787
(lp2788
Vair conditioner
p2789
aVapartment
p2790
aVashtray
p2791
aVattic
p2792
aVbasement
p2793
aVbathroom
p2794
aVbath tub
p2795
aVbed
p2796
aVbedding
p2797
aVbedroom
p2798
aVblanket
p2799
aVbolt
p2800
aVbookcase
p2801
aVbrick
p2802
aVcarpet
p2803
aVceiling
p2804
aVcellar
p2805
aVcement
p2806
aVchair
p2807
aVchimney
p2808
aVcloset
p2809
aVconcrete
p2810
aVcouch
p2811
aVcurtain
p2812
aVcushion
p2813
aVdesk
p2814
aVdining room
p2815
aVdoor
p2816
aVdoorstep
p2817
aVdrapes
p2818
aVdresser
p2819
aVfan
p2820
aVfaucet
p2821
aVfireplace
p2822
aVfloor
p2823
aVfoundation
p2824
aVfurnace
p2825
aVfurniture
p2826
aVglass
p2827
aVhall
p2828
aVhinge
p2829
aVkey
p2830
aVlamp
p2831
aVliving room
p2832
aVlock
p2833
aVmirror
p2834
aVnail
p2835
aVpaint
p2836
aVpicture
p2837
aVplaster
p2838
aVplumbing
p2839
aVplywood
p2840
aVporch
p2841
aVrafter
p2842
aVroof
p2843
aVroom
p2844
aVrug
p2845
aVscrew
p2846
aVshelf
p2847
aVsink
p2848
aVsofa
p2849
aVstairs
p2850
aVtable
p2851
aVtoilet
p2852
aVwall
p2853
aVwindow
p2854
aVwire
p2855
aVwood
p2856
aS'house'
p2857
aS'building'
p2858
aS'construction'
p2859
asVHalloween
p2860
(lp2861
Vbat
p2862
aVblack cat
p2863
aVcandy
p2864
aVcarve
p2865
aVcostume
p2866
aVDracula
p2867
aVghost
p2868
aVOctober
p2869
aVpumpkin
p2870
aVtrick or treat
p2871
aVvampire
p2872
aVwitch
p2873
aS'halloween'
p2874
asVRattlesnakes
p2875
(lp2876
VArizona Black Rattlesnake
p2877
aVBanded Rock Rattlesnake
p2878
aVBlack-tailed Rattlesnake
p2879
aVColorado Desert Sidewinder
p2880
aVDesert Massasauga
p2881
aVGrand Canyon Rattlesnake
p2882
aVGreat Basin Rattlesnake
p2883
aVHopi Rattlesnake
p2884
aVMojave Desert Sidewinder
p2885
aVMojave Rattlesnake
p2886
aVNew Mexico Ridge-Nose Rattlesnake
p2887
aVPrairie Rattlesnake
p2888
aVRidge-Nose Rattlesnake
p2889
aVSonoran Desert Sidewinder
p2890
aVSouthwestern Speckled Rattlesnake
p2891
aVTiger Rattlesnake
p2892
aVTwin Spotted Rattlesnake
p2893
aVWestern Diamondback Rattlesnake
p2894
aS'snake'
p2895
aS'animal'
p2896
asVTypes of Houses
p2897
(lp2898
Vapartment building
p2899
aVcave
p2900
aVcondo
p2901
aVhouse
p2902
aVhut
p2903
aVigloo
p2904
aVmobile home
p2905
aVtent
p2906
aVtepee
p2907
aVtrailer
p2908
aVwigwam
p2909
aVyurt
p2910
aS'house'
p2911
aS'home'
p2912
asVOutside of a Car
p2913
(lp2914
Vbumper
p2915
aVdoor
p2916
aVdoor handle
p2917
aVexhaust pipe
p2918
aVfender
p2919
aVfront turn signal
p2920
aVgas tank cap
p2921
aVhood
p2922
aVhubcap
p2923
aVlicense plate
p2924
aVradiator grill
p2925
aVrear turn signal
p2926
aVrear window
p2927
aVside mirror
p2928
aVside window
p2929
aVtaillight
p2930
aVtire
p2931
aVtrunk
p2932
aVwindshield
p2933
aVwindshield wiper
p2934
aS'car'
p2935
aS'van'
p2936
aS'vehicle'
p2937
asVRooms and Places in a House
p2938
(lp2939
Vattic
p2940
aVbasement
p2941
aVbathroom
p2942
aVbedroom
p2943
aVcellar
p2944
aVcloset
p2945
aVden
p2946
aVdining room
p2947
aVfront yard
p2948
aVgarage
p2949
aVhall
p2950
aVhallway
p2951
aVkitchen
p2952
aVlaundry
p2953
aVliving room
p2954
aVmaster bedroom
p2955
aVoffice
p2956
aVpantry
p2957
aVpatio
p2958
aVplayroom
p2959
aVporch
p2960
aVstaircase
p2961
aVstudy
p2962
aVsun room
p2963
aVTV room
p2964
aVworkshop
p2965
aS'room'
p2966
aS'rooms'
p2967
aS'house'
p2968
aS'home'
p2969
asVCrime Verbs
p2970
(lp2971
Varrest
p2972
aVban
p2973
aVbreak in
p2974
aVbreak out
p2975
aVbreak the law
p2976
aVburgle
p2977
aVcharge
p2978
aVcommit a crime
p2979
aVescape
p2980
aVget away
p2981
aVget away with
p2982
aVhold up
p2983
aVinvestigate
p2984
aVkill
p2985
aVmurder
p2986
aVrob
p2987
aVsteal
p2988
aVstrangle
p2989
asVTypes of Books
p2990
(lp2991
Valmanac
p2992
aVbest seller
p2993
aVbook
p2994
aVbooklet
p2995
aVbrochure
p2996
aVcomic book
p2997
aVdictionary
p2998
aVencyclopedia
p2999
aVhardcover
p3000
aVmagazine
p3001
aVnovel
p3002
aVpaperback
p3003
aVperiodical
p3004
aVpamphlet
p3005
aVpicture book
p3006
aVreference book
p3007
aVtextbook
p3008
aS'writer'
p3009
aS'literary'
p3010
aS'words'
p3011
aS'write'
p3012
aS'book'
p3013
aS'author'
p3014
asVInjuries
p3015
(lp3016
Vblack eye
p3017
aVblister
p3018
aVbroken bone
p3019
aVbruise
p3020
aVburn
p3021
aVcut
p3022
aVdislocation
p3023
aVfracture
p3024
aVlump
p3025
aVscrape
p3026
aVscratch
p3027
aVsplinter
p3028
aVsprain
p3029
aVsun burn
p3030
aVswelling
p3031
aS'injury'
p3032
aS'doctor'
p3033
aS'hospital'
p3034
aS'ill'
p3035
aS'illness'
p3036
asVDegrees in Education
p3037
(lp3038
VB.Sc.
p3039
aVBA
p3040
aVcertificate
p3041
aVdegree
p3042
aVdiploma
p3043
aVM.sc.
p3044
aVMA
p3045
aVPh.D.
p3046
aS'education'
p3047
asVImaginary People and Animals
p3048
(lp3049
Vcapricorn
p3050
aVabominable snowman
p3051
aVandroid
p3052
aVdragon
p3053
aVMartian
p3054
aVmermaid
p3055
aVnessie
p3056
aVogre
p3057
aVphoenix
p3058
aVrobot
p3059
aVsnowman
p3060
aVsphinx
p3061
aVspirit
p3062
aVunicorn
p3063
aVvampire
p3064
aVwerewolf
p3065
aS'imaginary'
p3066
aS'beast'
p3067
aS'fiction'
p3068
asVParts of the Body
p3069
(lp3070
Vankle
p3071
aVarm
p3072
aVback
p3073
aVbeard
p3074
aVblood
p3075
aVbody
p3076
aVbone
p3077
aVbrain
p3078
aVcheek
p3079
aVchest
p3080
aVchin
p3081
aVear
p3082
aVears
p3083
aVelbow
p3084
aVeye
p3085
aVeyes
p3086
aVface
p3087
aVfeet
p3088
aVfinger
p3089
aVfingers
p3090
aVflesh
p3091
aVfoot
p3092
aVhair
p3093
aVhand
p3094
aVhands
p3095
aVhead
p3096
aVheart
p3097
aVhip
p3098
aVknee
p3099
aVknees
p3100
aVleg
p3101
aVlegs
p3102
aVlip
p3103
aVmoustache
p3104
aVmouth
p3105
aVmuscle
p3106
aVnail
p3107
aVneck
p3108
aVnose
p3109
aVshoulder
p3110
aVshoulders
p3111
aVskin
p3112
aVstomach
p3113
aVteeth
p3114
aVthroat
p3115
aVthumb
p3116
aVthumbs
p3117
aVtoe
p3118
aVtoes
p3119
aVtongue
p3120
aVtooth
p3121
aVwrist
p3122
aS'body'
p3123
aS'parts of the body'
p3124
asVCooking
p3125
(lp3126
Vbake
p3127
aVboil
p3128
aVbroil
p3129
aVcan opener
p3130
aVfry
p3131
aVgrill
p3132
aVmeasuring cup
p3133
aVmeasuring spoon
p3134
aVmicrowave
p3135
aVmixing bowl
p3136
aVpaper towels
p3137
aVpoach
p3138
aVpotholder
p3139
aVroast
p3140
aVrolling pin
p3141
aVscramble
p3142
aVsimmer
p3143
aVknife
p3144
aVspoon
p3145
aVspatula
p3146
aVsteam
p3147
aVstrainer
p3148
aVtimer
p3149
aVfork
p3150
aS'cook'
p3151
aS'cooking'
p3152
aS'kitchen'
p3153
aS'eat'
p3154
aS'food'
p3155
asVCuts of Beef
p3156
(lp3157
Vblade
p3158
aVbrisket
p3159
aVchuck short rib
p3160
aVcross rib
p3161
aVflank
p3162
aVneck
p3163
aVplate
p3164
aVporterhouse
p3165
aVrib eye
p3166
aVshank
p3167
aVshort ribs
p3168
aVshoulder
p3169
aVsirloin
p3170
aVsirloin tip
p3171
aVstrip loin
p3172
aVT-bone
p3173
aVtenderloin
p3174
aVwing
p3175
aS'meat'
p3176
aS'beef'
p3177
aS'pork'
p3178
aS'chicken'
p3179
aS'restaurant'
p3180
aS'food'
p3181
aS'meaty'
p3182
aS'meat eater'
p3183
asVRelatives
p3184
(lp3185
Vfather
p3186
aVmother
p3187
aVbrother
p3188
aVsister
p3189
aVson
p3190
aVdaughter
p3191
aVgrandmother
p3192
aVgrandfather
p3193
aVgrandson
p3194
aVgranddaughter
p3195
aVuncle
p3196
aVaunt
p3197
aVcousin
p3198
aVnephew
p3199
aVniece
p3200
aVfather-in-law
p3201
aVmother-in-law
p3202
aVbrother-in-law
p3203
aVsister-in-law
p3204
aVgreat-grandfather
p3205
aVgreat-grandmother
p3206
aVstep-daughter
p3207
aVstep-father
p3208
aVstep-mother
p3209
aVstep-brother
p3210
aVstep-sister
p3211
aVstep-son
p3212
aVstep-uncle
p3213
aVstep-aunt
p3214
aVstep-grandfather
p3215
aVstep-grandmother
p3216
aVhalf-brother
p3217
aVhalf-sister
p3218
aVex-husband
p3219
aVex-wife
p3220
aS'family'
p3221
aS'relative'
p3222
asVWinter 
p3223
(lp3224
Vblizzard
p3225
aVboots
p3226
aVcandle
p3227
aVchill
p3228
aVcoat
p3229
aVcold
p3230
aVDecember
p3231
aVfireplace
p3232
aVfreeze
p3233
aVfrost
p3234
aVhat
p3235
aVice
p3236
aVMerry Christmas
p3237
aVmittens
p3238
aVscarf
p3239
aVseason
p3240
aVshovel
p3241
aVskates
p3242
aVsled
p3243
aVsleigh bells
p3244
aVsnowflake
p3245
aVsnowman
p3246
aVsnowstorm
p3247
aVwinter
p3248
aS'winter'
p3249
asVContinents
p3250
(lp3251
VAfrica
p3252
aVAntarctica
p3253
aVAsia
p3254
aVAustralia
p3255
aVEurope
p3256
aVNorth America
p3257
aVSouth America
p3258
aS'continent'
p3259
aS'country'
p3260
aS'world'
p3261
aS'geography'
p3262
asVFood
p3263
(lp3264
Vbagel
p3265
aVbread
p3266
aVcereal
p3267
aVcheese
p3268
aVcroissant
p3269
aVegg
p3270
aVfish
p3271
aVketchup
p3272
aVmayonnaise
p3273
aVnoodles
p3274
aVpancakes
p3275
aVpasta
p3276
aVpeanuts
p3277
aVrice
p3278
aVroll
p3279
aVsalad
p3280
aVsandwich
p3281
aVshrimp
p3282
aVtoast
p3283
aS'food'
p3284
asVCatering
p3285
(lp3286
Vbacon
p3287
aVbeer
p3288
aVbreakfast
p3289
aVbuffet
p3290
aVcheese
p3291
aVchicken
p3292
aVchocolate
p3293
aVcook
p3294
aVcooking
p3295
aVcourse
p3296
aVcup
p3297
aVdessert
p3298
aVdining room
p3299
aVdinner
p3300
aVdish
p3301
aVfood
p3302
aVfork
p3303
aVfreezer
p3304
aVglass
p3305
aVgrill
p3306
aVhygienic
p3307
aVkitchen
p3308
aVknife
p3309
aVlunch
p3310
aVmain course
p3311
aVmeal
p3312
aVmenu
p3313
aVnapkin
p3314
aVpastry
p3315
aVpepper
p3316
aVplate
p3317
aVrestaurant
p3318
aVrice
p3319
aVroast
p3320
aVsalad
p3321
aVsalt
p3322
aVsauce
p3323
aVsausages
p3324
aVslices
p3325
aVsoup
p3326
aVspoon
p3327
aVstarter
p3328
aVutensils
p3329
aVvegetables
p3330
aVvegetarian
p3331
aVwaiter
p3332
aVwaitress
p3333
aVwine
p3334
asVSchool Rooms and Places
p3335
(lp3336
Vbaseball field
p3337
aVbathroom
p3338
aVcafeteria
p3339
aVclassroom
p3340
aVgym
p3341
aVlab
p3342
aVlibrary
p3343
aVlocker room
p3344
aVoffice
p3345
aVplayground
p3346
aVprincipal's room
p3347
aVsoccer field
p3348
aVswimming pool
p3349
aVteacher's room
p3350
aS'school'
p3351
aS'srydent'
p3352
aS'teacher'
p3353
aS'education'
p3354
asVFruit
p3355
(lp3356
Vapple
p3357
aVapricot
p3358
aVbanana
p3359
aVblackberry
p3360
aVblueberry
p3361
aVcherry
p3362
aVcranberry
p3363
aVcurrant
p3364
aVfig
p3365
aVgrape
p3366
aVgrapefruit
p3367
aVgrapes
p3368
aVkiwi
p3369
aVkumquat
p3370
aVlemon
p3371
aVlime
p3372
aVmelon
p3373
aVnectarine
p3374
aVorange
p3375
aVpeach
p3376
aVpear
p3377
aVpersimmon
p3378
aVpineapple
p3379
aVplum
p3380
aVpomegranate
p3381
aVprune
p3382
aVraspberry
p3383
aVstrawberry
p3384
aVtangerine
p3385
aVwatermelon
p3386
aS'fruit'
p3387
aS'food'
p3388
asVDeadliest Snakes in the World
p3389
(lp3390
VAustralian Brown Snake
p3391
aVBlack Mamba
p3392
aVBoomslang
p3393
aVCoral Snake
p3394
aVDeath Adder
p3395
aVGreen Mambas
p3396
aVInland Taipan
p3397
aVMalayan Krait
p3398
aVMojave Rattlesnake
p3399
aVSaw Scaled Viper
p3400
aVTaipan
p3401
aVTiger Snake
p3402
aS'snake'
p3403
aS'animal'
p3404
aS'slither'
p3405
asVHeadgear
p3406
(lp3407
Vbandana
p3408
aVbaseball cat
p3409
aVberet
p3410
aVcap
p3411
aVear muffs
p3412
aVhat
p3413
aVhelmet
p3414
aVscarf
p3415
aVhardhat
p3416
aS'headwear'
p3417
aS'headgear'
p3418
asVBank
p3419
(lp3420
Vaccount
p3421
aVbills
p3422
aVborrow
p3423
aVcash
p3424
aVcashier
p3425
aVcoins
p3426
aVcredit
p3427
aVcredit card
p3428
aVcurrency
p3429
aVdeposit
p3430
aVinterest
p3431
aVloan
p3432
aVmoney
p3433
aVmortgage
p3434
aVpay
p3435
aVsavings
p3436
aVvault
p3437
asVClassroom
p3438
(lp3439
Vblackboard
p3440
aVblackboard eraser
p3441
aVbook
p3442
aVbookcase
p3443
aVbulletin board
p3444
aVcalendar
p3445
aVchair
p3446
aVchalk
p3447
aVclock
p3448
aVcomputer
p3449
aVdesk
p3450
aVdictionary
p3451
aVeraser
p3452
aVmap
p3453
aVnotebook
p3454
aVpen
p3455
aVpencil
p3456
aVpencil sharpener
p3457
aVtextbook
p3458
aVwhite board
p3459
aS'school'
p3460
aS'classroom'
p3461
asVUnderwear
p3462
(lp3463
Vbra
p3464
aVbriefs
p3465
aVgirdle
p3466
aVknickers
p3467
aVpanties
p3468
aVpanty hose
p3469
aVslip
p3470
aVtights
p3471
aVunderpants
p3472
aVundershirt
p3473
aS'underwear'
p3474
aS'clothes'
p3475
asVMonths
p3476
(lp3477
VJanuary
p3478
aVFebruary
p3479
aVMarch
p3480
aVApril
p3481
aVMay
p3482
aVJune
p3483
aVJuly
p3484
aVAugust
p3485
aVSeptember
p3486
aVOctober
p3487
aVNovember
p3488
aVDecember
p3489
aS'months'
p3490
aS'time'
p3491
aS'year'
p3492
asVMeat
p3493
(lp3494
Vbacon
p3495
aVbeef
p3496
aVchicken
p3497
aVchicken breast
p3498
aVchicken leg
p3499
aVchicken wing
p3500
aVham
p3501
aVhamburger
p3502
aVheart
p3503
aVhot dog
p3504
aVkidney
p3505
aVlamb chop
p3506
aVmutton
p3507
aVpork
p3508
aVroast
p3509
aVsausage
p3510
aVsteak
p3511
aVtongue
p3512
aVturkey
p3513
aVveal
p3514
aVvenison
p3515
aS'meat'
p3516
aS'carnivore'
p3517
asVGrains
p3518
(lp3519
Vbarley
p3520
aVcorn
p3521
aVmillet
p3522
aVoats
p3523
aVrice
p3524
aVrye
p3525
aVbrown rice
p3526
aVshort grain rice
p3527
aVlong grain rice
p3528
aVrye
p3529
aVsoy beans
p3530
aVwheat
p3531
aS'grain'
p3532
aS'farming'
p3533
aS'bread'
p3534
asVLuggage
p3535
(lp3536
Vcarry-on bag
p3537
aVduffle bag
p3538
aVgarment bag
p3539
aVknapsack
p3540
aVluggage carrier
p3541
aVmakeup case
p3542
aVsuitcase
p3543
aVtote bag
p3544
aVtrunk
p3545
aS'luggage'
p3546
aS'bag'
p3547
asVClothes and Things We Wear
p3548
(lp3549
Vbelt
p3550
aVboots
p3551
aVcap
p3552
aVcoat
p3553
aVdress
p3554
aVgloves
p3555
aVhat
p3556
aVjacket
p3557
aVjeans
p3558
aVpajamas
p3559
aVpants
p3560
aVraincoat
p3561
aVscarf
p3562
aVshirt
p3563
aVshoes
p3564
aVskirt
p3565
aVslacks
p3566
aVslippers
p3567
aVsocks
p3568
aVstockings
p3569
aVsuit
p3570
aVsweater
p3571
aVsweatshirt
p3572
aVt-shirt
p3573
aVtie
p3574
aVtrousers
p3575
aVunderclothes
p3576
aVunderpants
p3577
aVundershirt
p3578
aS'clothes'
p3579
aS'wear'
p3580
asVFrequency Words and Phrases
p3581
(lp3582
Va few times
p3583
aVall day
p3584
aVall the time
p3585
aValmost always
p3586
aValmost never
p3587
aValways
p3588
aVat times
p3589
aVconstantly
p3590
aVcontinuously
p3591
aVdaily
p3592
aVevery hour
p3593
aVevery Monday
p3594
aVevery month
p3595
aVevery night
p3596
aVevery now and then
p3597
aVevery third day
p3598
aVevery two months
p3599
aVevery week
p3600
aVevery year
p3601
aVevery-time
p3602
aVfour times
p3603
aVfour times an hour
p3604
aVfrequently
p3605
aVgenerally
p3606
aVhardly ever
p3607
aVhourly
p3608
aVmany times
p3609
aVmonthly
p3610
aVmost times
p3611
aVnearly always
p3612
aVnever
p3613
aVnormally
p3614
aVnot often
p3615
aVnow and then
p3616
aVoccasionally
p3617
aVoff and on
p3618
aVoften
p3619
aVon the first of every month
p3620
aVonce
p3621
aVonce a year
p3622
aVonce in a blue moon
p3623
aVonce in a while
p3624
aVquite often
p3625
aVrarely
p3626
aVregularly
p3627
aVseldom
p3628
aVseveral times
p3629
aVsometimes
p3630
aVthree times
p3631
aVthree times a week
p3632
aVtwice
p3633
aVtwice a month
p3634
aVusually
p3635
aVvery often
p3636
aVweekly
p3637
aVyearly
p3638
aS'time'
p3639
aS'every day'
p3640
aS'regular'
p3641
aS'irregular'
p3642
asVFurniture in a House
p3643
(lp3644
Varmchair
p3645
aVbaby bed
p3646
aVbed
p3647
aVbookcase
p3648
aVcabinet
p3649
aVchair
p3650
aVchest
p3651
aVcloset
p3652
aVcupboard
p3653
aVdesk
p3654
aVdresser
p3655
aVhall stand
p3656
aVlamp
p3657
aVseat
p3658
aVshelf
p3659
aVsideboard
p3660
aVstool
p3661
aVtable
p3662
aS'furniture'
p3663
asVNumbers 1-10
p3664
(lp3665
Vone
p3666
aVtwo
p3667
aVthree
p3668
aVfour
p3669
aVfive
p3670
aVsix
p3671
aVseven
p3672
aVeight
p3673
aVnine
p3674
aVten
p3675
aS'numbers'
p3676
aS'counting'
p3677
asVPunctuation Marks
p3678
(lp3679
Vasterisk
p3680
aVbrackets
p3681
aVcolon
p3682
aVcomma
p3683
aVdash
p3684
aVellipses
p3685
aVexclamation point
p3686
aVparentheses
p3687
aVperiod
p3688
aVquestion mark
p3689
aVquotation marks
p3690
aVsemicolon
p3691
aVsingle quotation marks
p3692
aVslash
p3693
aS'writing'
p3694
aS'book'
p3695
aS'write'
p3696
aS'author'
p3697
asVLeaf Vegetables
p3698
(lp3699
VBrussel sprouts
p3700
aVcabbage
p3701
aVcelery
p3702
aVchard
p3703
aVchicory
p3704
aVChinese cabbage
p3705
aVkale
p3706
aVspinach
p3707
aVwater cress
p3708
asVWeather
p3709
(lp3710
Vclear
p3711
aVcloudy
p3712
aVcold
p3713
aVcool
p3714
aVfoggy
p3715
aVhot
p3716
aVhumid
p3717
aVrainy
p3718
aVsnowy
p3719
aVstormy
p3720
aVsunny
p3721
aVwarm
p3722
aVwindy
p3723
aS'weather'
p3724
aS'temperature'
p3725
asVSeed Vegetables
p3726
(lp3727
Vbean sprouts
p3728
aVbroad beans
p3729
aVchick peas
p3730
aVcorn
p3731
aVgreen beans
p3732
aVlentils
p3733
aVpopcorn
p3734
aVsnow peas
p3735
aVsoybeans
p3736
aS'seed'
p3737
asVShip Types
p3738
(lp3739
Vbarge
p3740
aVdredger
p3741
aVdugout
p3742
aVgalley
p3743
aVgondola
p3744
aVhovercraft
p3745
aVicebreaker
p3746
aVkayak
p3747
aVmotorboat
p3748
aVoutrigger
p3749
aVrafts
p3750
aVrowboat
p3751
aVsampan
p3752
aVsubmarine
p3753
aVtanker
p3754
aVtugboat
p3755
aS'boat'
p3756
aS'ship'
p3757
asVBuilding Material
p3758
(lp3759
Vfloor tile
p3760
aVasphalt shingle
p3761
aVwood shingle
p3762
aVfoam insulation
p3763
aVfiberglass insulation
p3764
aVcement
p3765
aVplaster
p3766
aVparticle board
p3767
aVperforated hardboard
p3768
aVplywood
p3769
aVplasterboard
p3770
aVmetal lath
p3771
aVflooring
p3772
aVceiling tile
p3773
asVShoes and Footwear
p3774
(lp3775
Vbasketball shoes
p3776
aVboots
p3777
aVcasual shoes
p3778
aVclogs
p3779
aVcowboy boots
p3780
aVdress shoes
p3781
aVgolf shoes
p3782
aVhigh heel shoes
p3783
aVloafers
p3784
aVmoccasins
p3785
aVpumps
p3786
aVrubber boots
p3787
aVsandals
p3788
aVshoes
p3789
aVslippers
p3790
aVsneakers
p3791
aVspike shoes
p3792
aVspikes
p3793
aVsteel toed shoes
p3794
aVT-strap shoes
p3795
aVtennis shoes
p3796
aVthongs
p3797
aVtraining shoes
p3798
aVwork boots
p3799
aS'feet'
p3800
aS'footwear'
p3801
aS'walking'
p3802
aS'walk'
p3803
asVGeography
p3804
(lp3805
Vbeach
p3806
aVdesert
p3807
aVforest
p3808
aVhill
p3809
aVmountain
p3810
aVocean
p3811
aVpond
p3812
aVriver
p3813
aVlake
p3814
aVsea
p3815
aVstream
p3816
aVvalley
p3817
aVwaterfall
p3818
aVwoods
p3819
aS'landscape'
p3820
aS'geography'
p3821
aS'nature'
p3822
aS'scenery'
p3823
as.