(dp0
S'concept'
p1
(lp2
(F0.8014307446941195
S'thought'
p3
tp4
a(F0.8014307446941195
S'idea'
p5
tp6
a(F0.7647072773622363
S'sort'
p7
tp8
asS'month'
p9
(lp10
(F0.8010694722468383
S'period'
p11
tp12
a(F0.6593170198780934
S'evening'
p13
tp14
a(F0.6046574170356518
S'year'
p15
tp16
asS'manager'
p17
(lp18
(F1.0
S'director'
p19
tp20
a(F0.8755217462319297
S'executive'
p21
tp22
a(F0.8242907738798414
S'president'
p23
tp24
asS'coach'
p25
(lp26
(F0.5659701089144288
g21
tp27
a(F0.5424099114491975
g17
tp28
a(F0.5424099114491975
g19
tp29
asS'skin'
p30
(lp31
(F0.8296254619205752
S'hair'
p32
tp33
a(F0.5398687152727242
S'hand'
p34
tp35
a(F0.5089297231750731
S'eye'
p36
tp37
asS'chair'
p38
(lp39
(F0.7503429008301038
S'bed'
p40
tp41
a(F0.42398322786519216
S'weapon'
p42
tp43
a(F0.41485406869499103
S'machine'
p44
tp45
asS'father'
p46
(lp47
(F0.9304489598134645
S'parent'
p48
tp49
a(F0.8901911403328263
S'mother'
p50
tp51
a(F0.7169526851463575
S'partner'
p52
tp53
asS'environment'
p54
(lp55
(F0.7924830692651061
S'thing'
p56
tp57
a(F0.7076286595357172
S'challenge'
p58
tp59
a(F0.5824175889925362
S'condition'
p60
tp61
asS'charge'
p62
(lp63
(F0.7871173214705074
S'attack'
p64
tp65
a(F0.42375701049961084
S'work'
p66
tp67
a(F0.3981299963742934
S'job'
p68
tp69
asS'program'
p70
(lp71
(F1.0
S'plan'
p72
tp73
a(F0.7553140030337475
g1
tp74
a(F0.6422456089895623
g3
tp75
asS'safety'
p76
(lp77
(F0.5659240449515706
S'need'
p78
tp79
a(F0.5593480808643873
S'interest'
p80
tp81
a(F0.5575757400825487
S'disease'
p82
tp83
asS'customer'
p84
(lp85
(F0.9669547113705591
S'consumer'
p86
tp87
a(F0.4167002128479812
S'person'
p88
tp89
a(F0.4167002128479812
S'individual'
p90
tp91
asS'woman'
p92
(lp93
(F0.8646461250847365
S'wife'
p94
tp95
a(F0.848819958439117
S'girl'
p96
tp97
a(F0.8135661736020644
S'daughter'
p98
tp99
asS'risk'
p100
(lp101
(F0.8898026768431843
S'threat'
p102
tp103
a(F0.3551874188013372
g88
tp104
a(F0.3551874188013372
g90
tp105
asS'song'
p106
(lp107
(F0.7768983539805909
S'section'
p108
tp109
a(F0.7524715310472055
S'music'
p110
tp111
a(F0.638027154612402
S'talk'
p112
tp113
asS'end'
p114
(lp115
(F0.7067424474508974
S'edge'
p116
tp117
a(F0.6661488317439225
S'side'
p118
tp119
a(F0.6395060019479504
S'top'
p120
tp121
asS'choice'
p122
(lp123
(F0.565931454194514
S'attention'
p124
tp125
a(F0.565684898015735
S'theory'
p126
tp127
a(F0.5629799171224987
S'sense'
p128
tp129
asS'fall'
p130
(lp131
(F0.8177351733482071
S'summer'
p132
tp133
a(F0.7714870973075931
S'spring'
p134
tp135
a(F0.5703188453272343
g11
tp136
asS'trouble'
p137
(lp138
(F0.4703508706597468
g3
tp139
a(F0.4703508706597468
g5
tp140
a(F0.45944860068793625
g1
tp141
asS'difference'
p142
(lp143
(F0.5585235792113853
S'power'
p144
tp145
a(F0.5269998988436531
S'ability'
p146
tp147
a(F0.5209384685155136
S'price'
p148
tp149
asS'minute'
p150
(lp151
(F0.7434491237814101
S'day'
p152
tp153
a(F0.6897094358188198
S'second'
p154
tp155
a(F0.6859382954619765
S'hour'
p156
tp157
asS'school'
p158
(lp159
(F0.7774342752839886
S'church'
p160
tp161
a(F0.770679968317305
S'company'
p162
tp163
a(F0.6105682113784259
S'organization'
p164
tp165
asS'level'
p166
(lp167
(F1.0
S'degree'
p168
tp169
a(F0.5934461721994013
S'color'
p170
tp171
a(F0.5764878987095932
S'age'
p172
tp173
asS'cause'
p174
(lp175
(F0.9167325383182364
S'factor'
p176
tp177
a(F0.5943684256336916
S'change'
p178
tp179
a(F0.5419128058589736
S'case'
p180
tp181
asS'list'
p182
(lp183
(F0.7450368698776124
S'news'
p184
tp185
a(F0.6487611633277937
S'statement'
p186
tp187
a(F0.6096149342421352
S'information'
p188
tp189
asS'brother'
p190
(lp191
(F0.6489423877949619
g52
tp192
a(F0.6323509436705459
g48
tp193
a(F0.6297296373067774
g94
tp194
asS'item'
p195
(lp196
(F0.49269587822460137
S'stuff'
p197
tp198
a(F0.49269587822460137
S'material'
p199
tp200
a(F0.48186655529371764
S'part'
p201
tp202
asS'race'
p203
(lp204
(F0.7113673186857049
S'campaign'
p205
tp206
a(F0.6435082725089416
S'performance'
p207
tp208
a(F0.6417697550437275
S'movie'
p209
tp210
asS'team'
p211
(lp212
(F0.6930963516610126
S'agency'
p213
tp214
a(F0.6792746825181492
S'nation'
p215
tp216
a(F0.6792746825181492
S'country'
p217
tp218
asS'radio'
p219
(lp220
(F0.9077900067824446
S'television'
p221
tp222
a(F0.9077900067824446
S'TV'
p223
tp224
a(F0.8389266320458705
S'call'
p225
tp226
asS'guy'
p227
(lp228
(F0.7084016757367071
S'man'
p229
tp230
a(F0.6727227342840321
S'son'
p231
tp232
a(F0.6374723281541451
S'boy'
p233
tp234
asS'force'
p235
(lp236
(F0.8085135364547245
S'control'
p237
tp238
a(F0.7827082308068287
S'authority'
p239
tp240
a(F0.5269718745247663
g144
tp241
asS'sign'
p242
(lp243
(F0.7491837659016793
S'record'
p244
tp245
a(F0.716827057710491
S'account'
p246
tp247
a(F0.671930216579673
S'note'
p248
tp249
asS'past'
p250
(lp251
(F0.6792264427254776
S'future'
p252
tp253
a(F0.6500799025254218
S'history'
p254
tp255
a(F0.45253593861459845
S'quality'
p256
tp257
asS'rate'
p258
(lp259
(F0.5397017525446022
g201
tp260
a(F0.480558885785867
g197
tp261
a(F0.480558885785867
g199
tp262
asS'street'
p263
(lp264
(F0.7741916497965166
S'road'
p265
tp266
a(F0.4013293503074475
S'structure'
p267
tp268
a(F0.35865228937463617
S'room'
p269
tp270
asS'design'
p271
(lp272
(F0.729505278413662
S'approach'
p273
tp274
a(F0.47986516127233586
g66
tp275
a(F0.4472635587578669
g68
tp276
asS'lawyer'
p277
(lp278
(F1.0
S'attorney'
p279
tp280
a(F0.7987589106061196
S'doctor'
p281
tp282
a(F0.7599649672403794
S'teacher'
p283
tp284
asS'investment'
p285
(lp286
(F0.5848886996503214
S'trade'
p287
tp288
a(F0.5813613898208357
S'deal'
p289
tp290
a(F0.5154041506168688
S'management'
p291
tp292
asg199
(lp293
(F1.0
g197
tp294
a(F0.6760936395339765
S'paper'
p295
tp296
a(F0.6696262721772185
S'card'
p297
tp298
asg144
(lp299
(F0.5606128724497275
g146
tp300
a(F0.5585235792113853
g142
tp301
a(F0.5537585946498134
g148
tp302
asg108
(lp303
(F0.7768983539805909
g106
tp304
a(F0.6521837176218026
S'option'
p305
tp306
a(F0.6183072873737987
S'act'
p307
tp308
asS'access'
p309
(lp310
(F0.8425300898618066
S'right'
p311
tp312
a(F0.6210345992359603
g1
tp313
a(F0.5770750851185265
g7
tp314
asS'public'
p315
(lp316
(F0.60495934244702
S'labor'
p317
tp318
a(F0.6023024821444246
S'population'
p319
tp320
a(F0.6013551315085922
S'generation'
p321
tp322
asS'version'
p323
(lp324
(F0.572194212472478
S'agreement'
p325
tp326
a(F0.5246744782688181
S'answer'
p327
tp328
a(F0.5134439108287072
g186
tp329
asS'capital'
p330
(lp331
(F0.6857684669322384
S'amount'
p332
tp333
a(F0.6692387290096546
S'income'
p334
tp335
a(F0.6246133295676805
S'resource'
p336
tp337
asS'ground'
p338
(lp339
(F0.2921213841489809
g88
tp340
a(F0.2921213841489809
g90
tp341
a(F0.24409472900977056
S'state'
p342
tp343
asS'bird'
p344
(lp345
(F0.6726945488709531
S'fish'
p346
tp347
a(F0.6428792628388408
S'dog'
p348
tp349
a(F0.42650114558362096
g88
tp350
asS'movement'
p351
(lp352
(F0.5626304741647228
S'development'
p353
tp354
a(F0.5492748718744065
S'decision'
p355
tp356
a(F0.5376140066813967
S'trip'
p357
tp358
asS'body'
p359
(lp360
(F0.6943649474581689
g32
tp361
a(F0.6936212551173419
S'world'
p362
tp363
a(F0.6641059385274451
S'star'
p364
tp365
asg168
(lp366
(F1.0
g166
tp367
a(F0.5934461721994013
g170
tp368
a(F0.5764878987095932
g172
tp369
asS'leg'
p370
(lp371
(F0.8751662889447862
S'arm'
p372
tp373
a(F0.7950564151670262
S'finger'
p374
tp375
a(F0.7176295886909448
g34
tp376
asS'water'
p377
(lp378
(F0.6879290426204853
S'oil'
p379
tp380
a(F0.6417305277837844
g295
tp381
a(F0.6373276693735412
g297
tp382
asS'Mr'
p383
(lp384
(F0.8743207992958687
S'name'
p385
tp386
a(F0.8479524663374881
S'Mrs'
p387
tp388
a(F0.7965114649758731
S'word'
p389
tp390
asg283
(lp391
(F0.8253712407549683
S'professor'
p392
tp393
a(F0.7723639543037186
g281
tp394
a(F0.7599649672403794
g277
tp395
asg178
(lp396
(F0.634516715193303
g180
tp397
a(F0.6290788211968202
S'death'
p398
tp399
a(F0.6208451305800524
S'success'
p400
tp401
asS'box'
p402
(lp403
(F0.6672013130553557
S'car'
p404
tp405
a(F0.5923198407328146
S'bag'
p406
tp407
a(F0.5448197872128415
S'cup'
p408
tp409
asg233
(lp410
(F0.7754964555915279
g229
tp411
a(F0.7329419385362672
g231
tp412
a(F0.6374723281541451
g227
tp413
asS'voice'
p414
(lp415
(F0.6976661546174885
S'sound'
p416
tp417
a(F0.4869238132665223
g170
tp418
a(F0.47871726527153136
g166
tp419
asg98
(lp420
(F0.8561496635740712
g231
tp421
a(F0.8135661736020644
g92
tp422
a(F0.7509054767196474
S'baby'
p423
tp424
asS'study'
p425
(lp426
(F0.7585885958695291
S'research'
p427
tp428
a(F0.7101956772830035
S'analysis'
p429
tp430
a(F0.6450605777878505
S'task'
p431
tp432
asS'experience'
p433
(lp434
(F0.5404438334983551
g3
tp435
a(F0.5404438334983551
g5
tp436
a(F0.5287681581957159
g1
tp437
asS'trial'
p438
(lp439
(F0.48762911478809423
g66
tp440
a(F0.45400099073165995
g68
tp441
a(F0.4475673267515712
S'effort'
p442
tp443
asg332
(lp444
(F0.853107553511927
g334
tp445
a(F0.7818971840520536
g336
tp446
a(F0.7599621084695399
S'cost'
p447
tp448
asS'action'
p449
(lp450
(F0.6819372518364331
S'activity'
p451
tp452
a(F0.5654167642238882
S'event'
p453
tp454
a(F0.5537630114146775
g66
tp455
asS'opinion'
p456
(lp457
(F0.6122677585712749
g3
tp458
a(F0.6122677585712749
g5
tp459
a(F0.5973254212274792
g1
tp460
asS'love'
p461
(lp462
(F0.7249325142018958
S'fear'
p463
tp464
a(F0.5614216568860938
S'hope'
p465
tp466
a(F0.5083843792549672
g60
tp467
asg205
(lp468
(F0.7113673186857049
g203
tp469
a(F0.6276264679709825
g207
tp470
a(F0.6259725946261137
g209
tp471
asS'market'
p472
(lp473
(F0.47363549046144504
g66
tp474
a(F0.4418468323462724
g68
tp475
a(F0.43575071866441617
g442
tp476
asS'use'
p477
(lp478
(F0.537394611533433
g66
tp479
a(F0.4968377702030062
g68
tp480
a(F0.4891430350327709
g442
tp481
asg36
(lp482
(F0.5885282641382223
g34
tp483
a(F0.5505442565641886
S'back'
p484
tp485
a(F0.5422526516902222
g374
tp486
asS'hospital'
p487
(lp488
(F0.7118283373031256
S'house'
p489
tp490
a(F0.7060930973972538
S'hotel'
p491
tp492
a(F0.6779516544516787
S'restaurant'
p493
tp494
asS'camera'
p495
(lp496
(F0.5913855770641977
S'phone'
p497
tp498
a(F0.5911149574685683
S'ball'
p499
tp500
a(F0.4129902963036894
g42
tp501
asg110
(lp502
(F0.8136580014846169
g108
tp503
a(F0.7524715310472055
g106
tp504
a(F0.7370403070234822
g112
tp505
asS'memory'
p506
(lp507
(F0.7064189724644688
S'image'
p508
tp509
a(F0.48302791002544554
g3
tp510
a(F0.48302791002544554
g5
tp511
asS'type'
p512
(lp513
(F0.8538234178681469
g7
tp514
a(F0.8538234178681469
S'kind'
p515
tp516
a(F0.6475690938894743
g1
tp517
asg7
(lp518
(F1.0
g515
tp519
a(F0.8538234178681469
g512
tp520
a(F0.7647072773622363
g1
tp521
asS'door'
p522
(lp523
(F0.5821467723096655
g269
tp524
a(F0.5792183451977376
S'building'
p525
tp526
a(F0.523259770676948
S'plant'
p527
tp528
asg162
(lp529
(F0.770679968317305
g158
tp530
a(F0.7360771733817164
g160
tp531
a(F0.5673209598986724
g164
tp532
asg497
(lp533
(F0.6318348226492779
g499
tp534
a(F0.5913855770641977
g495
tp535
a(F0.44583985047848373
g42
tp536
asS'American'
p537
(lp538
(F0.45777972268018446
g88
tp539
a(F0.45777972268018446
g90
tp540
a(F0.3770113703254509
S'worker'
p541
tp542
asS'adult'
p543
(lp544
(F0.58677478109146
g88
tp545
a(F0.58677478109146
g90
tp546
a(F0.4553491254263528
g541
tp547
asg423
(lp548
(F0.7781911314649977
g231
tp549
a(F0.7509054767196474
g98
tp550
a(F0.65635974423432
g52
tp551
asg442
(lp552
(F0.5931486641812583
g66
tp553
a(F0.5441236869064232
g68
tp554
a(F0.5290333809246476
g431
tp555
asS'town'
p556
(lp557
(F0.8335380150423949
S'city'
p558
tp559
a(F0.6297056807456556
g342
tp560
a(F0.6025734849563046
S'site'
p561
tp562
asg246
(lp563
(F0.8574682818937658
g244
tp564
a(F0.8380568228623989
g248
tp565
a(F0.716827057710491
g242
tp566
asg389
(lp567
(F0.8228820592434655
g385
tp568
a(F0.7965114649758731
g383
tp569
a(F0.7176536084975468
g387
tp570
asg269
(lp571
(F0.7607065062747976
S'kitchen'
p572
tp573
a(F0.734413178085743
g525
tp574
a(F0.6690797150006561
S'bar'
p575
tp576
asg156
(lp577
(F0.7916358955347383
g152
tp578
a(F0.7309882953787646
g154
tp579
a(F0.6859382954619765
g150
tp580
asS'science'
p581
(lp582
(F0.6273368294881337
g3
tp583
a(F0.6273368294881337
g5
tp584
a(F0.611659339061424
g1
tp585
asg58
(lp586
(F0.7076286595357172
g54
tp587
a(F0.6325361871404425
g56
tp588
a(F0.42887628720834736
g60
tp589
asg66
(lp590
(F0.6045014941821085
g68
tp591
a(F0.5931486641812583
g442
tp592
a(F0.5914666020366441
g451
tp593
asS'example'
p594
(lp595
(F0.7084793901100881
S'evidence'
p596
tp597
a(F0.7082646520313219
S'fact'
p598
tp599
a(F0.6414743093620311
S'pain'
p600
tp601
asg254
(lp602
(F0.6500799025254218
g250
tp603
a(F0.5814881223614652
g252
tp604
a(F0.366526552094411
g256
tp605
asg237
(lp606
(F0.8085135364547245
g235
tp607
a(F0.7994445856028497
g239
tp608
a(F0.5397268585374995
g144
tp609
asS'heart'
p610
(lp611
(F0.5631592914913948
g1
tp612
a(F0.496110135525341
g7
tp613
a(F0.496110135525341
g515
tp614
asS'figure'
p615
(lp616
(F0.6773430797726464
S'video'
p617
tp618
a(F0.39866749332832685
g186
tp619
a(F0.38681563123521934
g110
tp620
asS'process'
p621
(lp622
(F0.5443314068595211
g66
tp623
a(F0.5027612730486579
g68
tp624
a(F0.49488341919242984
g442
tp625
asS'tax'
p626
(lp627
(F0.6831957012856349
g447
tp628
a(F0.6530703052550765
g332
tp629
a(F0.6348874869321167
g334
tp630
asS'agent'
p631
(lp632
(F0.41888749593770536
g88
tp633
a(F0.41888749593770536
g90
tp634
a(F0.33598017818941434
g541
tp635
asS'way'
p636
(lp637
(F1.0
S'style'
p638
tp639
a(F0.5771537458938121
g170
tp640
a(F0.5656598494310664
g166
tp641
asg128
(lp642
(F0.5629799171224987
g122
tp643
a(F0.5347666611954253
g126
tp644
a(F0.5321294448023502
g124
tp645
asS'species'
p646
(lp647
(F0.42483333164224646
g164
tp648
a(F0.3921811041890717
S'people'
p649
tp650
a(F0.3891067941793941
S'collection'
p651
tp652
asS'garden'
p653
(lp654
(F0.7024361023217673
g561
tp655
a(F0.6931751692080672
S'field'
p656
tp657
a(F0.6373011628183203
g558
tp658
asg188
(lp659
(F0.7369024668405376
g186
tp660
a(F0.6218739077993048
g325
tp661
a(F0.6158136612229692
S'subject'
p662
tp663
asS'court'
p664
(lp665
(F0.805179219521056
S'Senate'
p666
tp667
a(F0.7811872158731489
S'Congress'
p668
tp669
a(F0.6334224276543673
S'community'
p670
tp671
asS'goal'
p672
(lp673
(F0.6760308775163651
g3
tp674
a(F0.6760308775163651
g5
tp675
a(F0.6578603965290785
g1
tp676
asS'discussion'
p677
(lp678
(F0.43811682312272043
g451
tp679
a(F0.4170819514123438
g449
tp680
a(F0.3814010100633251
g66
tp681
asS'magazine'
p682
(lp683
(F0.846231475539359
S'newspaper'
p684
tp685
a(F0.7137775732101767
S'book'
p686
tp687
a(F0.7033541627225943
g221
tp688
asS'owner'
p689
(lp690
(F0.4071083791562924
g88
tp691
a(F0.4071083791562924
g90
tp692
a(F0.3435483436840706
g541
tp693
asg44
(lp694
(F0.6513110342692224
g42
tp695
a(F0.6110126237285107
S'gun'
p696
tp697
a(F0.5594510889019829
S'computer'
p698
tp699
asS'forest'
p700
(lp701
(F0.700804039850722
S'class'
p702
tp703
a(F0.6499047508684551
S'set'
p704
tp705
a(F0.6261168905483744
S'data'
p706
tp707
asS'animal'
p708
(lp709
(F0.5814230122634463
g88
tp710
a(F0.5814230122634463
g90
tp711
a(F0.4297677353179763
g541
tp712
asS'interview'
p713
(lp714
(F0.8706253787843748
S'question'
p715
tp716
a(F0.5631290590363607
S'speech'
p717
tp718
a(F0.530750362075934
S'order'
p719
tp720
asS'economy'
p721
(lp722
(F0.7653367327286635
S'network'
p723
tp724
a(F0.5164580258935387
g164
tp725
a(F0.46898950296919967
g649
tp726
asg527
(lp727
(F0.6467203678750288
g269
tp728
a(F0.6431082638779374
g525
tp729
a(F0.5621440880065295
g489
tp730
asg651
(lp731
(F0.6450539171380336
g164
tp732
a(F0.5726602435483452
g649
tp733
a(F0.5325978339367561
S'institution'
p734
tp735
asg387
(lp736
(F0.8479524663374881
g383
tp737
a(F0.7802136887273532
g385
tp738
a(F0.7176536084975468
g389
tp739
asS'plane'
p740
(lp741
(F0.6998989278660095
g404
tp742
a(F0.4485466845024703
g42
tp743
a(F0.4383418185476863
g44
tp744
asS'blood'
p745
(lp746
(F0.5294089473160171
g197
tp747
a(F0.5294089473160171
g199
tp748
a(F0.48995829759909865
g295
tp749
asg23
(lp750
(F0.8594911031222024
g21
tp751
a(F0.8242907738798414
g17
tp752
a(F0.8242907738798414
g19
tp753
asS'law'
p754
(lp755
(F0.7230772984056973
g702
tp756
a(F0.66901598084931
g704
tp757
a(F0.643835631669637
g706
tp758
asg706
(lp759
(F0.7311190987149214
g702
tp760
a(F0.6758945141231598
g704
tp761
a(F0.643835631669637
g754
tp762
asS'response'
p763
(lp764
(F0.6212090491381832
S'energy'
p765
tp766
a(F0.6205919917254896
S'result'
p767
tp768
a(F0.6205919917254896
S'effect'
p769
tp770
asg229
(lp771
(F0.8282962453048486
g231
tp772
a(F0.7754964555915279
g233
tp773
a(F0.7729207377701456
g92
tp774
asS'light'
p775
(lp776
(F0.7675514238447316
S'heat'
p777
tp778
a(F0.7395163973633947
g765
tp779
a(F0.6896698819659539
S'wind'
p780
tp781
asg281
(lp782
(F0.7987589106061196
g277
tp783
a(F0.7987589106061196
g279
tp784
a(F0.7723639543037186
g283
tp785
asS'responsibility'
p786
(lp787
(F0.828648101813014
g291
tp788
a(F0.7486639050310997
S'administration'
p789
tp790
a(F0.6110985032795384
S'war'
p791
tp792
asS'dream'
p793
(lp794
(F0.6321529916082086
g124
tp795
a(F0.5501900765742808
S'score'
p796
tp797
a(F0.49018107067858274
g122
tp798
asg719
(lp799
(F0.592104094145303
g717
tp800
a(F0.5644616052977652
g715
tp801
a(F0.530750362075934
g713
tp802
asg780
(lp803
(F0.7377601174579622
g765
tp804
a(F0.6896698819659539
g775
tp805
a(F0.682722975328763
g767
tp806
asS'help'
p807
(lp808
(F0.5570546571469402
g66
tp809
a(F0.5135960598163045
g68
tp810
a(F0.5053777781023149
g442
tp811
asS'office'
p812
(lp813
(F0.8326040124670712
S'store'
p814
tp815
a(F0.5712224917564
g269
tp816
a(F0.5684026740818663
g525
tp817
asS'mission'
p818
(lp819
(F0.4971008373598058
g734
tp820
a(F0.4885295397455227
g164
tp821
a(F0.478971362928969
S'business'
p822
tp823
asg287
(lp824
(F0.6047401097039312
g289
tp825
a(F0.5848886996503214
g285
tp826
a(F0.5395542481441703
g291
tp827
asS'course'
p828
(lp829
(F0.4946196092868965
g66
tp830
a(F0.4600545820947172
g68
tp831
a(F0.4534494510191845
g442
tp832
asS'attitude'
p833
(lp834
(F0.5218277996081143
g3
tp835
a(F0.5218277996081143
g5
tp836
a(F0.5084425298073966
g1
tp837
asS'scientist'
p838
(lp839
(F0.5074821640257742
g88
tp840
a(F0.5074821640257742
g90
tp841
a(F0.40830583340646737
g541
tp842
asg638
(lp843
(F1.0
g636
tp844
a(F0.5771537458938121
g170
tp845
a(F0.5656598494310664
g166
tp846
asS'group'
p847
(lp848
(F0.25835642706124157
g453
tp849
a(F0.2337255476023788
S'knowledge'
p850
tp851
a(F0.23061916988564107
S'relation'
p852
tp853
asg317
(lp854
(F0.60495934244702
g315
tp855
a(F0.5343399990939877
g319
tp856
a(F0.5335942479959689
g321
tp857
asS'window'
p858
(lp859
(F0.5504126530413254
g269
tp860
a(F0.547794075993197
g525
tp861
a(F0.49747890122462846
g527
tp862
asS'production'
p863
(lp864
(F0.4363950717938722
g451
tp865
a(F0.4155212662120193
g449
tp866
a(F0.38009551497124505
g66
tp867
asg60
(lp868
(F0.6982811109091713
S'feeling'
p869
tp870
a(F0.6375993962106948
S'opportunity'
p871
tp872
a(F0.6375993962106948
S'chance'
p873
tp874
asS'policy'
p875
(lp876
(F0.8330784155924537
S'strategy'
p877
tp878
a(F0.6275081774607787
g1
tp879
a(F0.5453782950162649
g7
tp880
asg13
(lp881
(F0.7727596766147682
g11
tp882
a(F0.6593170198780934
g9
tp883
a(F0.5885470728431528
g15
tp884
asS'food'
p885
(lp886
(F0.8450483067099075
S'drug'
p887
tp888
a(F0.6279550533687795
S'dinner'
p889
tp890
a(F0.623088332369639
g197
tp891
asS'practice'
p892
(lp893
(F0.5638766926044597
g66
tp894
a(F0.5193896395028356
g68
tp895
a(F0.5109864174850401
g442
tp896
asS'number'
p897
(lp898
(F0.7577447956432506
S'majority'
p899
tp900
a(F0.6869832289982102
S'range'
p901
tp902
a(F0.6820381985217984
S'size'
p903
tp904
asS'break'
p905
(lp906
(F0.5444203493732285
g178
tp907
a(F0.5000817252480779
g180
tp908
a(F0.49669783818710717
g398
tp909
asg327
(lp910
(F0.6421233492990769
g325
tp911
a(F0.5854137431277829
g186
tp912
a(F0.5533501326607742
g188
tp913
asS'foot'
p914
(lp915
(F0.8170469963223683
g34
tp916
a(F0.7561945311428355
g374
tp917
a(F0.6631953298014394
S'face'
p918
tp919
asg575
(lp920
(F0.6690797150006561
g269
tp921
a(F0.5916526966138265
g572
tp922
a(F0.5141010264513043
g525
tp923
asg152
(lp924
(F0.7966630430400178
g154
tp925
a(F0.7916358955347383
g156
tp926
a(F0.7434491237814101
g150
tp927
asS'bank'
p928
(lp929
(F0.20217281244173607
g88
tp930
a(F0.20217281244173607
g90
tp931
asS'term'
p932
(lp933
(F0.7553293064497646
S'form'
p934
tp935
a(F0.678088720852767
g385
tp936
a(F0.6600803826609128
g383
tp937
asg385
(lp938
(F0.8743207992958687
g383
tp939
a(F0.8228820592434655
g389
tp940
a(F0.7802136887273532
g387
tp941
asS'truth'
p942
(lp943
(F0.7406430340177684
S'detail'
p944
tp945
a(F0.626612716952619
g596
tp946
a(F0.6264447328277761
g598
tp947
asS'rock'
p948
(lp949
(F0.6300415764243651
g359
tp950
a(F0.6120703827718308
g32
tp951
a(F0.6114924523010558
g362
tp952
asS'stock'
p953
(lp954
(F0.6620412779800863
g332
tp955
a(F0.6466227317580503
g334
tp956
a(F0.604868388355571
g336
tp957
asg118
(lp958
(F0.6661488317439225
g114
tp959
a(F0.6247551286492375
g120
tp960
a(F0.6032928854966857
g116
tp961
asg353
(lp962
(F0.7424941551356717
S'reform'
p963
tp964
a(F0.5626304741647228
g351
tp965
a(F0.48940190781305054
g355
tp966
asg447
(lp967
(F0.7599621084695399
g332
tp968
a(F0.7381955217668795
S'benefit'
p969
tp970
a(F0.7354516977596187
g334
tp971
asS'weight'
p972
(lp973
(F0.4895537601413392
g170
tp974
a(F0.48125907827146064
g166
tp975
a(F0.48125907827146064
g168
tp976
asg321
(lp977
(F0.6013551315085922
g315
tp978
a(F0.5335942479959689
g317
tp979
a(F0.5315261853848334
g319
tp980
asg489
(lp981
(F0.7472293294527029
g491
tp982
a(F0.7157863984478671
g493
tp983
a(F0.7118283373031256
g487
tp984
asg765
(lp985
(F0.7395163973633947
g775
tp986
a(F0.7377601174579622
g780
tp987
a(F0.7357130495212694
g767
tp988
asg5
(lp989
(F1.0
g3
tp990
a(F0.8014307446941195
g1
tp991
a(F0.6760308775163651
g672
tp992
asg696
(lp993
(F0.8645478129902273
g42
tp994
a(F0.6110126237285107
g44
tp995
a(F0.5411704629084261
g698
tp996
asS'society'
p997
(lp998
(F0.5567057385476841
g164
tp999
a(F0.48062696753726275
g734
tp1000
a(F0.46107232659713715
g822
tp1001
asg499
(lp1002
(F0.6318348226492779
g497
tp1003
a(F0.5911149574685683
g495
tp1004
a(F0.44558819346067585
g42
tp1005
asg15
(lp1006
(F0.6980461465594188
g11
tp1007
a(F0.6046574170356518
g9
tp1008
a(F0.5885470728431528
g13
tp1009
asg96
(lp1010
(F0.848819958439117
g92
tp1011
a(F0.8102234826733447
g94
tp1012
a(F0.7340442488912292
g98
tp1013
asS'morning'
p1014
(lp1015
(F0.591755388268658
g11
tp1016
a(F0.5239585244218276
g9
tp1017
a(F0.5118182935617157
g13
tp1018
asg453
(lp1019
(F0.7000026717884039
g850
tp1020
a(F0.6236166725628454
g451
tp1021
a(F0.5654167642238882
g449
tp1022
asg723
(lp1023
(F0.7653367327286635
g721
tp1024
a(F0.41022210632058764
g164
tp1025
a(F0.3796965702663346
g649
tp1026
asS'space'
p1027
(lp1028
(F0.3789119971480458
g256
tp1029
a(F0.3720289864497374
g60
tp1030
a(F0.35303334566911515
g869
tp1031
asg427
(lp1032
(F0.7585885958695291
g425
tp1033
a(F0.7565565945019992
g429
tp1034
a(F0.6954527205870508
g431
tp1035
asS'health'
p1036
(lp1037
(F0.4787348676108766
g60
tp1038
a(F0.45564792865028136
g869
tp1039
a(F0.4290056096308099
g871
tp1040
asS'issue'
p1041
(lp1042
(F0.47401823019909695
g3
tp1043
a(F0.47401823019909695
g5
tp1044
a(F0.46501235987287703
g1
tp1045
asg126
(lp1046
(F0.6199532929877462
S'test'
p1047
tp1048
a(F0.565684898015735
g122
tp1049
a(F0.5347839154427612
g124
tp1050
asS'standard'
p1051
(lp1052
(F0.8745977422743025
S'money'
p1053
tp1054
a(F0.8205915699561137
S'fund'
p1055
tp1056
a(F0.7661777417443537
S'budget'
p1057
tp1058
asS'reason'
p1059
(lp1060
(F0.3803779911510378
g453
tp1061
a(F0.3586795170120922
g850
tp1062
a(F0.3374972167113653
g451
tp1063
asS'base'
p1064
(lp1065
(F0.6473448555351446
S'station'
p1066
tp1067
a(F0.3177770445982693
g267
tp1068
a(F0.2904142518845869
g269
tp1069
asg297
(lp1070
(F0.8064570607457914
g295
tp1071
a(F0.7106043996653658
S'page'
p1072
tp1073
a(F0.6696262721772185
g197
tp1074
asS'care'
p1075
(lp1076
(F0.7293225774435581
g431
tp1077
a(F0.7293225774435581
S'project'
p1078
tp1079
a(F0.6725269762312585
S'role'
p1080
tp1081
asS'training'
p1082
(lp1083
(F0.5138017509156172
g66
tp1084
a(F0.4766045725839657
g68
tp1085
a(F0.46951932748242164
g442
tp1086
asS'yard'
p1087
(lp1088
(F0.45285632647410573
S'unit'
p1089
tp1090
a(F0.4155157338054894
S'one'
p1091
tp1092
a(F0.3638382162087869
g11
tp1093
asS'service'
p1094
(lp1095
(F0.6469051985604073
g431
tp1096
a(F0.6469051985604073
g1078
tp1097
a(F0.6079193666620304
g1075
tp1098
asS'language'
p1099
(lp1100
(F0.534026837123041
g186
tp1101
a(F0.5129730894477458
g110
tp1102
a(F0.4968676748335791
g188
tp1103
asg56
(lp1104
(F0.7924830692651061
g54
tp1105
a(F0.6325361871404425
g58
tp1106
a(F0.4901538937504827
g60
tp1107
asS'place'
p1108
(lp1109
(F0.7523273183842349
S'position'
p1110
tp1111
a(F0.6924301284367217
S'source'
p1112
tp1113
a(F0.6628114403096679
S'home'
p1114
tp1115
asg102
(lp1116
(F0.8898026768431843
g100
tp1117
a(F0.34123520617055425
g88
tp1118
a(F0.34123520617055425
g90
tp1119
asS'south'
p1120
(lp1121
(F0.633620039851879
g558
tp1122
a(F0.5644526094692295
g556
tp1123
a(F0.5351088346641597
g561
tp1124
asS'scene'
p1125
(lp1126
(F0.75142760150902
S'center'
p1127
tp1128
a(F0.6272054614995158
S'neighborhood'
p1129
tp1130
a(F0.5924356729498585
S'seat'
p1131
tp1132
asg1091
(lp1133
(F0.6839714212441421
g1089
tp1134
a(F0.553188812497675
g11
tp1135
a(F0.4615887328246959
g9
tp1136
asS'vote'
p1137
(lp1138
(F0.8268494923137191
g355
tp1139
a(F0.7598647659241161
S'step'
p1140
tp1141
a(F0.7598647659241161
S'measure'
p1142
tp1143
asg1129
(lp1144
(F0.7471733536289256
g1127
tp1145
a(F0.6272054614995158
g1125
tp1146
a(F0.5897880784918578
g1131
tp1147
asS'message'
p1148
(lp1149
(F0.43143382602268787
g186
tp1150
a(F0.4175875346351157
g110
tp1151
a(F0.4148594613840908
g1099
tp1152
asg256
(lp1153
(F0.5670430531035235
g60
tp1154
a(F0.5240635464203259
g869
tp1155
a(F0.47745988490761365
g871
tp1156
asg903
(lp1157
(F0.691803052332213
g901
tp1158
a(F0.6820381985217984
g897
tp1159
a(F0.6259064755825717
g899
tp1160
asg558
(lp1161
(F0.8335380150423949
g556
tp1162
a(F0.7510506256251147
g342
tp1163
a(F0.6820567669693669
g561
tp1164
asS'story'
p1165
(lp1166
(F0.5915826457168394
g186
tp1167
a(F0.5588586096279875
g188
tp1168
a(F0.5150942639691691
g325
tp1169
asg291
(lp1170
(F0.828648101813014
g786
tp1171
a(F0.7719393087282995
g789
tp1172
a(F0.6312508064491041
g791
tp1173
asg668
(lp1174
(F0.8168565958659604
g666
tp1175
a(F0.7811872158731489
g664
tp1176
a(F0.5935568859765277
g670
tp1177
asg120
(lp1178
(F0.6395060019479504
g114
tp1179
a(F0.6247551286492375
g118
tp1180
a(F0.5813579542390356
g116
tp1181
asS'system'
p1182
(lp1183
(F0.4780782917059247
g42
tp1184
a(F0.4665027849379634
g44
tp1185
a(F0.4548445790719135
g404
tp1186
asg64
(lp1187
(F0.7871173214705074
g62
tp1188
a(F0.5162750548193566
g66
tp1189
a(F0.4787319836282598
g68
tp1190
asg1066
(lp1191
(F0.6473448555351446
g1064
tp1192
a(F0.3877639449106187
g267
tp1193
a(F0.3477794747265736
g269
tp1194
asg186
(lp1195
(F0.7369024668405376
g188
tp1196
a(F0.6626630509912669
g325
tp1197
a(F0.6557861364493048
g662
tp1198
asS'friend'
p1199
(lp1200
(F0.42903661464534604
g88
tp1201
a(F0.42903661464534604
g90
tp1202
a(F0.35823003990455526
g541
tp1203
asg305
(lp1204
(F0.7165017686727099
g307
tp1205
a(F0.6521837176218026
g108
tp1206
a(F0.649318840985051
S'bill'
p1207
tp1208
asS'relationship'
p1209
(lp1210
(F0.4504963415976751
g201
tp1211
a(F0.4085285941815731
g197
tp1212
a(F0.4085285941815731
g199
tp1213
asS'season'
p1214
(lp1215
(F0.5863412296020653
g11
tp1216
a(F0.5197519988530824
g9
tp1217
a(F0.5078036950830407
g13
tp1218
asg491
(lp1219
(F0.7472293294527029
g489
tp1220
a(F0.7099874603834189
g493
tp1221
a(F0.7060930973972538
g487
tp1222
asg201
(lp1223
(F0.7337505805611707
g197
tp1224
a(F0.7337505805611707
g199
tp1225
a(F0.6471659574963567
g295
tp1226
asg1131
(lp1227
(F0.698348116798431
g1127
tp1228
a(F0.5924356729498585
g1125
tp1229
a(F0.5897880784918578
g1129
tp1230
asg734
(lp1231
(F0.6928938016150776
g164
tp1232
a(F0.6382249820538324
g822
tp1233
a(F0.6293409867927295
S'government'
p1234
tp1235
asg319
(lp1236
(F0.6023024821444246
g315
tp1237
a(F0.5343399990939877
g317
tp1238
a(F0.5315261853848334
g321
tp1239
asg515
(lp1240
(F1.0
g7
tp1241
a(F0.8538234178681469
g512
tp1242
a(F0.7647072773622363
g1
tp1243
asS'tree'
p1244
(lp1245
(F0.42482432603450576
g88
tp1246
a(F0.42482432603450576
g90
tp1247
a(F0.3377426489882172
g541
tp1248
asg154
(lp1249
(F0.7966630430400178
g152
tp1250
a(F0.7309882953787646
g156
tp1251
a(F0.6897094358188198
g150
tp1252
asg40
(lp1253
(F0.7503429008301038
g38
tp1254
a(F0.47549484927007535
g42
tp1255
a(F0.4640426096629853
g44
tp1256
asg791
(lp1257
(F0.8095146815861293
S'defense'
p1258
tp1259
a(F0.6312508064491041
g291
tp1260
a(F0.6110985032795384
g786
tp1261
asg1078
(lp1262
(F1.0
g431
tp1263
a(F0.7293225774435581
g1075
tp1264
a(F0.7205671244549523
g1080
tp1265
asS'matter'
p1266
(lp1267
(F0.921539663371382
S'concern'
p1268
tp1269
a(F0.9211881796351096
g80
tp1270
a(F0.5853251886551896
g78
tp1271
asg252
(lp1272
(F0.6792264427254776
g250
tp1273
a(F0.5814881223614652
g254
tp1274
a(F0.38610102025360293
g256
tp1275
asS'marriage'
p1276
(lp1277
(F0.48966065110979995
g60
tp1278
a(F0.4655344509700483
g869
tp1279
a(F0.4377586726461152
g871
tp1280
asg814
(lp1281
(F0.8326040124670712
g812
tp1282
a(F0.5961794008444936
g269
tp1283
a(F0.5931084652697711
g525
tp1284
asg617
(lp1285
(F0.6773430797726464
g615
tp1286
a(F0.37843375370210736
g186
tp1287
a(F0.36773826970668755
g110
tp1288
asg869
(lp1289
(F0.6982811109091713
g60
tp1290
a(F0.5972927176688391
g871
tp1291
a(F0.5972927176688391
g873
tp1292
asS'mind'
p1293
(lp1294
(F0.44119022360652166
g3
tp1295
a(F0.44119022360652166
g5
tp1296
a(F0.4315840741887804
g1
tp1297
asS'glass'
p1298
(lp1299
(F0.43057407377096346
g197
tp1300
a(F0.43057407377096346
g199
tp1301
a(F0.41146424025203293
g885
tp1302
asg78
(lp1303
(F0.6283074973404441
g80
tp1304
a(F0.6260720842463298
g82
tp1305
a(F0.6203554301831865
g1268
tp1306
asg404
(lp1307
(F0.6998989278660095
g740
tp1308
a(F0.6672013130553557
g402
tp1309
a(F0.6506160147343434
g406
tp1310
asg213
(lp1311
(F0.7587494704314623
S'police'
p1312
tp1313
a(F0.7287571377370995
S'board'
p1314
tp1315
a(F0.7008417760244914
g215
tp1316
asg248
(lp1317
(F0.8380568228623989
g246
tp1318
a(F0.7940055414568389
g244
tp1319
a(F0.671930216579673
g242
tp1320
asg899
(lp1321
(F0.7577447956432506
g897
tp1322
a(F0.630068564903763
g901
tp1323
a(F0.6259064755825717
g903
tp1324
asg116
(lp1325
(F0.7067424474508974
g114
tp1326
a(F0.6032928854966857
g118
tp1327
a(F0.5813579542390356
g120
tp1328
asg207
(lp1329
(F0.8283827770917718
g209
tp1330
a(F0.8283827770917718
S'film'
p1331
tp1332
a(F0.6435082725089416
g203
tp1333
asg662
(lp1334
(F0.6557861364493048
g186
tp1335
a(F0.6158136612229692
g188
tp1336
a(F0.5630951779173385
g325
tp1337
asS'play'
p1338
(lp1339
(F0.5564692530268625
g108
tp1340
a(F0.5357122168666332
g305
tp1341
a(F0.5126411164601976
g307
tp1342
asg600
(lp1343
(F0.6897222670655384
g596
tp1344
a(F0.6895187472968877
g598
tp1345
a(F0.6414743093620311
g594
tp1346
asS'track'
p1347
(lp1348
(F0.8149254728249723
S'direction'
p1349
tp1350
a(F0.4290748963397742
g342
tp1351
a(F0.3857272186991758
S'area'
p1352
tp1353
asg148
(lp1354
(F0.5537585946498134
g144
tp1355
a(F0.522755573087868
g146
tp1356
a(F0.5209384685155136
g142
tp1357
asS'object'
p1358
(lp1359
(F0.4208141897971293
g88
tp1360
a(F0.4208141897971293
g90
tp1361
a(F0.28239803977420264
g342
tp1362
asS'mouth'
p1363
(lp1364
(F0.5537303930764336
g34
tp1365
a(F0.5212300467398063
g36
tp1366
a(F0.5199765415572323
g484
tp1367
asg72
(lp1368
(F1.0
g70
tp1369
a(F0.7553140030337475
g1
tp1370
a(F0.6422456089895623
g3
tp1371
asS'letter'
p1372
(lp1373
(F0.6103861763524832
g108
tp1374
a(F0.5855018669787607
g305
tp1375
a(F0.5580528414662028
g307
tp1376
asg164
(lp1377
(F0.6928938016150776
g734
tp1378
a(F0.6535469932857041
g649
tp1379
a(F0.6529699419516136
g822
tp1380
asg702
(lp1381
(F0.763762602426523
g704
tp1382
a(F0.7311190987149214
g706
tp1383
a(F0.7230772984056973
g754
tp1384
asg1312
(lp1385
(F0.7389432776970762
S'staff'
p1386
tp1387
a(F0.5816209718625283
g164
tp1388
a(F0.5783834585607402
g734
tp1389
asg392
(lp1390
(F0.8253712407549683
g283
tp1391
a(F0.7479669082314366
g281
tp1392
a(F0.73633295644146
g277
tp1393
asg82
(lp1394
(F0.7652326469889412
S'cancer'
p1395
tp1396
a(F0.6260720842463298
g78
tp1397
a(F0.6180339399371572
g80
tp1398
asg918
(lp1399
(F0.7428465338582287
g34
tp1400
a(F0.6872752466959067
g374
tp1401
a(F0.6631953298014394
g914
tp1402
asg112
(lp1403
(F0.7370403070234822
g110
tp1404
a(F0.6888041423491477
S'debate'
p1405
tp1406
a(F0.6814797312936612
g108
tp1407
asg209
(lp1408
(F1.0
g1331
tp1409
a(F0.8283827770917718
g207
tp1410
a(F0.7643969664818249
g686
tp1411
asg86
(lp1412
(F0.9669547113705591
g84
tp1413
a(F0.43756610020394326
g88
tp1414
a(F0.43756610020394326
g90
tp1415
asg598
(lp1416
(F0.7675470842985703
g596
tp1417
a(F0.7082646520313219
g594
tp1418
a(F0.6895187472968877
g600
tp1419
asS'shot'
p1420
(lp1421
(F0.4104745324895366
g451
tp1422
a(F0.3919541470138808
g449
tp1423
a(F0.36027976149958674
g66
tp1424
asS'show'
p1425
(lp1426
(F0.8179829175254926
S'sport'
p1427
tp1428
a(F0.5602845107722735
g66
tp1429
a(F0.5163403762428376
g68
tp1430
asg852
(lp1431
(F0.26870426394546876
g453
tp1432
a(F0.24216216235729263
g850
tp1433
a(F0.23061916988564107
g847
tp1434
asS'corner'
p1435
(lp1436
(F0.6418057349744078
g1127
tp1437
a(F0.5512374524762437
g1125
tp1438
a(F0.5489445716424166
g1129
tp1439
asg463
(lp1440
(F0.7249325142018958
g461
tp1441
a(F0.5774004126121567
g465
tp1442
a(F0.5287625428456065
g60
tp1443
asg1405
(lp1444
(F0.6888041423491477
g112
tp1445
a(F0.6489133983561358
g110
tp1446
a(F0.605453370786283
g108
tp1447
asS'decade'
p1448
(lp1449
(F0.6289711188343708
g11
tp1450
a(F0.5526179618391062
g9
tp1451
a(F0.5391304121346633
g13
tp1452
asg1386
(lp1453
(F0.7389432776970762
g1312
tp1454
a(F0.5385554252142672
g734
tp1455
a(F0.5354721105422278
g164
tp1456
asS'impact'
p1457
(lp1458
(F0.5822060076783449
g178
tp1459
a(F0.5317841386030645
g180
tp1460
a(F0.5279592535195008
g398
tp1461
asS'cell'
p1462
(lp1463
(F0.39065576600122764
g342
tp1464
a(F0.35439520499455374
g1352
tp1465
a(F0.35078233228080336
g558
tp1466
asg850
(lp1467
(F0.7000026717884039
g453
tp1468
a(F0.5673470789174863
g451
tp1469
a(F0.5187671175101648
g449
tp1470
asS'writer'
p1471
(lp1472
(F1.0
S'author'
p1473
tp1474
a(F0.5461403757515143
g88
tp1475
a(F0.5461403757515143
g90
tp1476
asS'crime'
p1477
(lp1478
(F0.5374573868697924
g66
tp1479
a(F0.49689142737913394
g68
tp1480
a(F0.48919504296969496
g442
tp1481
asg176
(lp1482
(F0.9167325383182364
g174
tp1483
a(F0.5682145280373982
g178
tp1484
a(F0.5200868321856152
g180
tp1485
asS'employee'
p1486
(lp1487
(F0.6985096590172355
S'officer'
p1488
tp1489
a(F0.6926096991771696
S'official'
p1490
tp1491
a(F0.6424312191514204
S'soldier'
p1492
tp1493
asg465
(lp1494
(F0.5774004126121567
g463
tp1495
a(F0.5614216568860938
g461
tp1496
a(F0.47651346217113233
g60
tp1497
asg221
(lp1498
(F1.0
g223
tp1499
a(F0.9077900067824446
g219
tp1500
a(F0.8426187321538947
g225
tp1501
asS'report'
p1502
(lp1503
(F0.6456158969573134
g305
tp1504
a(F0.6164560669154502
g307
tp1505
a(F0.5860426675693472
g108
tp1506
asg336
(lp1507
(F0.7818971840520536
g332
tp1508
a(F0.7604808408980316
g334
tp1509
a(F0.6712798327230941
g447
tp1510
asS'artist'
p1511
(lp1512
(F0.5065014226913922
g88
tp1513
a(F0.5065014226913922
g90
tp1514
a(F0.40770228953142174
g541
tp1515
asS'method'
p1516
(lp1517
(F0.6564700207977585
S'character'
p1518
tp1519
a(F0.6409083764689807
S'skill'
p1520
tp1521
a(F0.5022423625628933
g3
tp1522
asg406
(lp1523
(F0.6506160147343434
g404
tp1524
a(F0.5923198407328146
g402
tp1525
a(F0.533710147408083
g408
tp1526
asg197
(lp1527
(F1.0
g199
tp1528
a(F0.6760936395339765
g295
tp1529
a(F0.6696262721772185
g297
tp1530
asS'troop'
p1531
(lp1532
(F0.5693418116953016
g213
tp1533
a(F0.5599819684868296
g215
tp1534
a(F0.5599819684868296
g217
tp1535
asg451
(lp1536
(F0.6819372518364331
g449
tp1537
a(F0.6236166725628454
g453
tp1538
a(F0.5914666020366441
g66
tp1539
asS'husband'
p1540
(lp1541
(F0.882310704736048
g94
tp1542
a(F0.7273440672576534
g52
tp1543
a(F0.7065656577576934
g48
tp1544
asS'view'
p1545
(lp1546
(F0.4336502077821841
g3
tp1547
a(F0.4336502077821841
g5
tp1548
a(F0.4243661394250609
g1
tp1549
asg704
(lp1550
(F0.763762602426523
g702
tp1551
a(F0.6758945141231598
g706
tp1552
a(F0.66901598084931
g754
tp1553
asS'art'
p1554
(lp1555
(F0.6695773378508924
S'article'
p1556
tp1557
a(F0.6682332585068165
g686
tp1558
a(F0.6621387807345543
g209
tp1559
asS'sex'
p1560
(lp1561
(F0.7689334065911646
S'growth'
p1562
tp1563
a(F0.6227397335908245
g765
tp1564
a(F0.6220164949995246
g767
tp1565
asS'culture'
p1566
(lp1567
(F0.49900270433058236
g164
tp1568
a(F0.4369995800010701
g734
tp1569
a(F0.42077391581754525
g822
tp1570
asg698
(lp1571
(F0.5725461986373065
g42
tp1572
a(F0.5594510889019829
g44
tp1573
a(F0.5411704629084261
g696
tp1574
asS'college'
p1575
(lp1576
(F0.5529828919797861
g164
tp1577
a(F0.47784957615025875
g734
tp1578
a(F0.4585157368270208
g822
tp1579
asg767
(lp1580
(F1.0
g769
tp1581
a(F0.7357130495212694
g765
tp1582
a(F0.6843464559392592
g775
tp1583
asS'sea'
p1584
(lp1585
(F0.5097603405159192
g34
tp1586
a(F0.47847187012526304
g36
tp1587
a(F0.4772686807743381
g484
tp1588
asg1427
(lp1589
(F0.8179829175254926
g1425
tp1590
a(F0.5533100789707821
g66
tp1591
a(F0.5104112869536609
g68
tp1592
asg372
(lp1593
(F0.8751662889447862
g370
tp1594
a(F0.814458611564892
g374
tp1595
a(F0.7365463181988124
g34
tp1596
asg1268
(lp1597
(F0.9756175332683997
g80
tp1598
a(F0.921539663371382
g1266
tp1599
a(F0.6203554301831865
g78
tp1600
asS'expert'
p1601
(lp1602
(F0.4957323111596854
g88
tp1603
a(F0.4957323111596854
g90
tp1604
a(F0.40103869606491993
g541
tp1605
asg963
(lp1606
(F0.7424941551356717
g353
tp1607
a(F0.49899297810583654
g351
tp1608
a(F0.4370774383478135
g355
tp1609
asS'pattern'
p1610
(lp1611
(F0.4219825461777099
g3
tp1612
a(F0.4219825461777099
g5
tp1613
a(F0.4131862787217188
g1
tp1614
asg342
(lp1615
(F0.7510506256251147
g558
tp1616
a(F0.6682567185004747
g1352
tp1617
a(F0.6405390328878633
g1127
tp1618
asg796
(lp1619
(F0.6257318148456723
g124
tp1620
a(F0.5501900765742808
g793
tp1621
a(F0.4853747100396162
g122
tp1622
asg374
(lp1623
(F0.8502560535462803
g34
tp1624
a(F0.814458611564892
g372
tp1625
a(F0.7950564151670262
g370
tp1626
asS'Republican'
p1627
(lp1628
(F0.638616359689506
S'candidate'
p1629
tp1630
a(F0.6249089934229491
S'Democrat'
p1631
tp1632
a(F0.5309214498947795
g21
tp1633
asg273
(lp1634
(F0.729505278413662
g271
tp1635
a(F0.47086961187100723
g66
tp1636
a(F0.43943882183153676
g68
tp1637
asg146
(lp1638
(F0.5606128724497275
g144
tp1639
a(F0.5269998988436531
g142
tp1640
a(F0.522755573087868
g148
tp1641
asg48
(lp1642
(F0.9536486055777601
g50
tp1643
a(F0.9304489598134645
g46
tp1644
a(F0.7722181356359582
g52
tp1645
asS'nature'
p1646
(lp1647
(F0.5020107814556476
g144
tp1648
a(F0.47639737869825466
g146
tp1649
a(F0.4748878019485073
g142
tp1650
asg124
(lp1651
(F0.6321529916082086
g793
tp1652
a(F0.6257318148456723
g796
tp1653
a(F0.565931454194514
g122
tp1654
asg1631
(lp1655
(F0.6413425010935097
g1629
tp1656
a(F0.6249089934229491
g1627
tp1657
a(F0.5333606323182627
g21
tp1658
asg68
(lp1659
(F0.6045014941821085
g66
tp1660
a(F0.5441236869064232
g442
tp1661
a(F0.5380458874374079
g431
tp1662
asg184
(lp1663
(F0.7450368698776124
g182
tp1664
a(F0.5984677031968652
g186
tp1665
a(F0.5649990724676245
g188
tp1666
asg572
(lp1667
(F0.7607065062747976
g269
tp1668
a(F0.5916526966138265
g575
tp1669
a(F0.5841471677253253
g525
tp1670
asg1258
(lp1671
(F0.8095146815861293
g791
tp1672
a(F0.5626107602211299
g291
tp1673
a(F0.5465470051051717
g786
tp1674
asg493
(lp1675
(F0.7157863984478671
g489
tp1676
a(F0.7099874603834189
g491
tp1677
a(F0.6779516544516787
g487
tp1678
asS'career'
p1679
(lp1680
(F0.6760317822052913
S'technology'
p1681
tp1682
a(F0.49650193366552153
g66
tp1683
a(F0.46168258451341015
g68
tp1684
asg217
(lp1685
(F1.0
g215
tp1686
a(F0.7008417760244914
g213
tp1687
a(F0.6792746825181492
g211
tp1688
asS'region'
p1689
(lp1690
(F0.5799473693883951
g342
tp1691
a(F0.5034728002330982
g1352
tp1692
a(F0.4962122323260739
g558
tp1693
asg887
(lp1694
(F0.8450483067099075
g885
tp1695
a(F0.6096241677964336
g889
tp1696
a(F0.5467915211978536
g88
tp1697
asg1473
(lp1698
(F1.0
g1471
tp1699
a(F0.5461403757515143
g88
tp1700
a(F0.5461403757515143
g90
tp1701
asg1395
(lp1702
(F0.7652326469889412
g82
tp1703
a(F0.4955127508814311
g78
tp1704
a(F0.4904640326552782
g80
tp1705
asS'point'
p1706
(lp1707
(F0.5943688446355252
g1
tp1708
a(F0.5553899991066513
g7
tp1709
a(F0.5553899991066513
g515
tp1710
asg170
(lp1711
(F0.5934461721994013
g166
tp1712
a(F0.5934461721994013
g168
tp1713
a(F0.5884306921473673
g172
tp1714
asg1518
(lp1715
(F0.6564700207977585
g1516
tp1716
a(F0.5891117629682526
g1520
tp1717
a(F0.4468887596682057
g3
tp1718
asg11
(lp1719
(F0.8010694722468383
g9
tp1720
a(F0.7727596766147682
g13
tp1721
a(F0.6980461465594188
g15
tp1722
asg670
(lp1723
(F0.6515676628766363
S'meeting'
p1724
tp1725
a(F0.6334224276543673
g664
tp1726
a(F0.6214939180125264
S'audience'
p1727
tp1728
asg160
(lp1729
(F0.7774342752839886
g158
tp1730
a(F0.7360771733817164
g162
tp1731
a(F0.5736590461386267
g164
tp1732
asS'table'
p1733
(lp1734
(F0.7842011175977867
S'series'
p1735
tp1736
a(F0.6760472632063242
S'line'
p1737
tp1738
a(F0.4528676387663662
g164
tp1739
asS'conference'
p1740
(lp1741
(F0.6012273687630763
g670
tp1742
a(F0.597802635748738
g1724
tp1743
a(F0.5824932293790248
g664
tp1744
asg1112
(lp1745
(F0.6999846536287333
g1110
tp1746
a(F0.6924301284367217
g1108
tp1747
a(F0.6218446113198111
g1114
tp1748
asS'west'
p1749
(lp1750
(F0.4371885619486013
g342
tp1751
a(F0.39647622224936313
g1352
tp1752
a(F0.3924212816938302
g558
tp1753
asg877
(lp1754
(F0.8330784155924537
g875
tp1755
a(F0.6396371812922631
g1
tp1756
a(F0.55451700213817
g7
tp1757
asg80
(lp1758
(F0.9756175332683997
g1268
tp1759
a(F0.9211881796351096
g1266
tp1760
a(F0.6283074973404441
g78
tp1761
asg1724
(lp1762
(F0.6515676628766363
g670
tp1763
a(F0.6296222521200141
g664
tp1764
a(F0.6178351100105995
g1727
tp1765
asg1314
(lp1766
(F0.7287571377370995
g213
tp1767
a(F0.6835497026154049
g1312
tp1768
a(F0.6281530317125678
g215
tp1769
asS'firm'
p1770
(lp1771
(F0.8968635714691107
g822
tp1772
a(F0.8496186551220439
S'industry'
p1773
tp1774
a(F0.6209948902931898
g164
tp1775
asS'life'
p1776
(lp1777
(F0.7176684337927463
g871
tp1778
a(F0.7176684337927463
g873
tp1779
a(F0.49205775198185686
g60
tp1780
asS'fire'
p1781
(lp1782
(F0.5547389781750887
g178
tp1783
a(F0.5087746395240723
g180
tp1784
a(F0.5052724977674024
g398
tp1785
asg541
(lp1786
(F0.602663457656783
g88
tp1787
a(F0.602663457656783
g90
tp1788
a(F0.4585346197832178
S'leader'
p1789
tp1790
asg1055
(lp1791
(F0.843250329624093
g1057
tp1792
a(F0.8205915699561137
g1051
tp1793
a(F0.7632109856437376
g1053
tp1794
asS'child'
p1795
(lp1796
(F1.0
S'kid'
p1797
tp1798
a(F0.42559294076991455
g88
tp1799
a(F0.42559294076991455
g90
tp1800
asg180
(lp1801
(F0.634516715193303
g178
tp1802
a(F0.5706189159696912
g398
tp1803
a(F0.5638361739280437
g400
tp1804
asS'look'
p1805
(lp1806
(F0.5516140488755674
g144
tp1807
a(F0.52084402213966
g146
tp1808
a(F0.5190401594894452
g142
tp1809
asg1207
(lp1810
(F0.649318840985051
g305
tp1811
a(F0.6212806405502561
g307
tp1812
a(F0.5635703659218069
g1502
tp1813
asg1057
(lp1814
(F0.843250329624093
g1055
tp1815
a(F0.7661777417443537
g1051
tp1816
a(F0.7172451765714905
g1053
tp1817
asS'value'
p1818
(lp1819
(F0.6419644146505679
g1
tp1820
a(F0.5939271400871258
g7
tp1821
a(F0.5939271400871258
g515
tp1822
asS'air'
p1823
(lp1824
(F0.6868508181024638
S'sky'
p1825
tp1826
a(F0.675899902492128
g377
tp1827
a(F0.4242848415612846
g197
tp1828
asS'behavior'
p1829
(lp1830
(F0.5172916503773206
g66
tp1831
a(F0.47960597798536964
g68
tp1832
a(F0.47243188521745616
g442
tp1833
asg684
(lp1834
(F0.846231475539359
g682
tp1835
a(F0.8059908985617767
g221
tp1836
a(F0.8059908985617767
g223
tp1837
asS'situation'
p1838
(lp1839
(F0.6148733479782913
g60
tp1840
a(F0.5773041240791881
g869
tp1841
a(F0.5351931884879046
g871
tp1842
asS'property'
p1843
(lp1844
(F0.7108457725767825
g447
tp1845
a(F0.6782906798028147
g332
tp1846
a(F0.6586974371068817
g334
tp1847
asS'century'
p1848
(lp1849
(F0.6452492378376542
g11
tp1850
a(F0.5650151512193331
g9
tp1851
a(F0.5509233817763409
g13
tp1852
asg561
(lp1853
(F0.7332367825321964
g656
tp1854
a(F0.7024361023217673
g653
tp1855
a(F0.6820567669693669
g558
tp1856
asS'surface'
p1857
(lp1858
(F0.47243253405790553
g267
tp1859
a(F0.4143873420564722
g269
tp1860
a(F0.4118967904770258
g525
tp1861
asS'player'
p1862
(lp1863
(F0.46492953150284433
g88
tp1864
a(F0.46492953150284433
g90
tp1865
a(F0.38160382627384604
g541
tp1866
asg52
(lp1867
(F0.7722181356359582
g48
tp1868
a(F0.76831257472264
g94
tp1869
a(F0.7570042481031021
g231
tp1870
asg1681
(lp1871
(F0.46297008631843284
g66
tp1872
a(F0.432550980470982
g68
tp1873
a(F0.42670697993481665
g442
tp1874
asS'participant'
p1875
(lp1876
(F0.8340915891858083
S'member'
p1877
tp1878
a(F0.36097438088894784
g88
tp1879
a(F0.36097438088894784
g90
tp1880
asg1492
(lp1881
(F0.8301284760540606
g1488
tp1882
a(F0.7307943086971811
g1490
tp1883
a(F0.6654729804561069
S'judge'
p1884
tp1885
asg789
(lp1886
(F0.7719393087282995
g291
tp1887
a(F0.7486639050310997
g786
tp1888
a(F0.5709740567120646
g791
tp1889
asg1877
(lp1890
(F0.8340915891858083
g1875
tp1891
a(F0.41880962863493215
g88
tp1892
a(F0.41880962863493215
g90
tp1893
asg717
(lp1894
(F0.6012265292077426
g715
tp1895
a(F0.592104094145303
g719
tp1896
a(F0.5631290590363607
g713
tp1897
asS'party'
p1898
(lp1899
(F0.5604502383155303
g164
tp1900
a(F0.5602243245796275
g734
tp1901
a(F0.5373043825021534
g822
tp1902
asS'week'
p1903
(lp1904
(F0.6353944047605709
g11
tp1905
a(F0.5575198184305498
g9
tp1906
a(F0.5437949031209841
g13
tp1907
asg379
(lp1908
(F0.5085676358681718
g34
tp1909
a(F0.47742093473490427
g36
tp1910
a(F0.47622301843257264
g484
tp1911
asg769
(lp1912
(F1.0
g767
tp1913
a(F0.7357130495212694
g765
tp1914
a(F0.6843464559392592
g775
tp1915
asg34
(lp1916
(F0.8502560535462803
g374
tp1917
a(F0.8170469963223683
g914
tp1918
a(F0.7428465338582287
g918
tp1919
asg19
(lp1920
(F1.0
g17
tp1921
a(F0.8755217462319297
g21
tp1922
a(F0.8242907738798414
g23
tp1923
asS'moment'
p1924
(lp1925
(F0.4549543625494494
g11
tp1926
a(F0.4476854722624026
g1089
tp1927
a(F0.4025908032403972
g1091
tp1928
asS'purpose'
p1929
(lp1930
(F0.6585570191559268
g3
tp1931
a(F0.6585570191559268
g5
tp1932
a(F0.6413017415479543
g1
tp1933
asS'student'
p1934
(lp1935
(F0.43608391750037184
g88
tp1936
a(F0.43608391750037184
g90
tp1937
a(F0.36288283601220933
g541
tp1938
asg215
(lp1939
(F1.0
g217
tp1940
a(F0.7008417760244914
g213
tp1941
a(F0.6792746825181492
g211
tp1942
asg871
(lp1943
(F1.0
g873
tp1944
a(F0.7176684337927463
g1776
tp1945
a(F0.6375993962106948
g60
tp1946
asg1797
(lp1947
(F1.0
g1795
tp1948
a(F0.42559294076991455
g88
tp1949
a(F0.42559294076991455
g90
tp1950
asg431
(lp1951
(F1.0
g1078
tp1952
a(F0.7293225774435581
g1075
tp1953
a(F0.7205671244549523
g1080
tp1954
asg1127
(lp1955
(F0.75142760150902
g1125
tp1956
a(F0.7471733536289256
g1129
tp1957
a(F0.698348116798431
g1131
tp1958
asg666
(lp1959
(F0.8168565958659604
g668
tp1960
a(F0.805179219521056
g664
tp1961
a(F0.6123835178879461
g670
tp1962
asg42
(lp1963
(F0.8645478129902273
g696
tp1964
a(F0.6513110342692224
g44
tp1965
a(F0.5725461986373065
g698
tp1966
asg429
(lp1967
(F0.7565565945019992
g427
tp1968
a(F0.7101956772830035
g425
tp1969
a(F0.6431483041596131
g431
tp1970
asg3
(lp1971
(F1.0
g5
tp1972
a(F0.8014307446941195
g1
tp1973
a(F0.6760308775163651
g672
tp1974
asg88
(lp1975
(F1.0
g90
tp1976
a(F0.602663457656783
g541
tp1977
a(F0.5923554589323582
g1789
tp1978
asS'client'
p1979
(lp1980
(F0.8596746634477309
S'patient'
p1981
tp1982
a(F0.31859725377777426
g88
tp1983
a(F0.31859725377777426
g90
tp1984
asg50
(lp1985
(F0.9536486055777601
g48
tp1986
a(F0.8901911403328263
g46
tp1987
a(F0.7353605488678159
g52
tp1988
asg1110
(lp1989
(F0.7523273183842349
g1108
tp1990
a(F0.6999846536287333
g1112
tp1991
a(F0.6697302697193547
g1114
tp1992
asS'model'
p1993
(lp1994
(F0.5704807310639648
g1
tp1995
a(F0.5357564406896863
g7
tp1996
a(F0.5357564406896863
g515
tp1997
asg132
(lp1998
(F0.8177351733482071
g130
tp1999
a(F0.8079208307780925
g134
tp2000
a(F0.6099369913300005
g11
tp2001
asg416
(lp2002
(F0.6976661546174885
g414
tp2003
a(F0.5167719446077048
g170
tp2004
a(F0.5075379867339632
g166
tp2005
asg21
(lp2006
(F0.8755217462319297
g17
tp2007
a(F0.8755217462319297
g19
tp2008
a(F0.8594911031222024
g23
tp2009
asS'rest'
p2010
(lp2011
(F0.4625259999675479
g197
tp2012
a(F0.4625259999675479
g199
tp2013
a(F0.4493364074130904
g201
tp2014
asS'product'
p2015
(lp2016
(F0.42860076986665435
g267
tp2017
a(F0.38027579831346847
g269
tp2018
a(F0.37817736645311206
g525
tp2019
asS'victim'
p2020
(lp2021
(F0.8115962827492607
g1981
tp2022
a(F0.3851577868753214
g88
tp2023
a(F0.3851577868753214
g90
tp2024
asg1520
(lp2025
(F0.6409083764689807
g1516
tp2026
a(F0.5891117629682526
g1518
tp2027
a(F0.43399284826288
g3
tp2028
asg398
(lp2029
(F0.6290788211968202
g178
tp2030
a(F0.5706189159696912
g180
tp2031
a(F0.5595381852102191
g400
tp2032
asS'family'
p2033
(lp2034
(F0.6658390692822745
g213
tp2035
a(F0.6530731367043469
g215
tp2036
a(F0.6530731367043469
g217
tp2037
asg1629
(lp2038
(F0.6413425010935097
g1631
tp2039
a(F0.638616359689506
g1627
tp2040
a(F0.546312549903687
g21
tp2041
asg408
(lp2042
(F0.593754716871403
g404
tp2043
a(F0.5448197872128415
g402
tp2044
a(F0.533710147408083
g406
tp2045
asg1825
(lp2046
(F0.7186701312763772
g377
tp2047
a(F0.6868508181024638
g1823
tp2048
a(F0.4593240797417657
g197
tp2049
asS'wall'
p2050
(lp2051
(F0.5511475218484129
g269
tp2052
a(F0.5485219645626725
g525
tp2053
a(F0.49807914348405985
g527
tp2054
asS'treatment'
p2055
(lp2056
(F0.7027910931150588
g431
tp2057
a(F0.7027910931150588
g1078
tp2058
a(F0.6570166755714738
g1075
tp2059
asS'citizen'
p2060
(lp2061
(F0.40774709923778213
g88
tp2062
a(F0.40774709923778213
g90
tp2063
a(F0.3439804178630173
g541
tp2064
asS'east'
p2065
(lp2066
(F0.46948752956333667
g201
tp2067
a(F0.4240851081972187
g197
tp2068
a(F0.4240851081972187
g199
tp2069
asg1234
(lp2070
(F0.6422209523015359
g164
tp2071
a(F0.6293409867927295
g734
tp2072
a(F0.6005620292642366
g822
tp2073
asS'couple'
p2074
(lp2075
(F0.557164511300257
g670
tp2076
a(F0.5542221400403272
g1724
tp2077
a(F0.5410389045510241
g664
tp2078
asS'credit'
p2079
(lp2080
(F0.5445663639621138
g186
tp2081
a(F0.5167147015286245
g188
tp2082
a(F0.47907982621802525
g325
tp2083
asS'game'
p2084
(lp2085
(F0.556707279844586
g66
tp2086
a(F0.5133007551464531
g68
tp2087
a(F0.505091845795933
g442
tp2088
asg1884
(lp2089
(F0.7193422298733823
g1488
tp2090
a(F0.7137042955918367
g1490
tp2091
a(F0.6654729804561069
g1492
tp2092
asg362
(lp2093
(F0.6936212551173419
g359
tp2094
a(F0.6719024965639057
g32
tp2095
a(F0.6435295590476542
g364
tp2096
asS'bit'
p2097
(lp2098
(F0.5396030555832425
S'lot'
p2099
tp2100
a(F0.3482966629794502
g11
tp2101
a(F0.34402043517480135
g1089
tp2102
asS'shoulder'
p2103
(lp2104
(F0.5411550805928107
g34
tp2105
a(F0.5100727181811555
g36
tp2106
a(F0.5088722413129091
g484
tp2107
asS'loss'
p2108
(lp2109
(F0.7015703180592618
g447
tp2110
a(F0.5771175997077524
g332
tp2111
a(F0.5628720728800267
g334
tp2112
asg400
(lp2113
(F0.6208451305800524
g178
tp2114
a(F0.5638361739280437
g180
tp2115
a(F0.5595381852102191
g398
tp2116
asg969
(lp2117
(F0.7381955217668795
g447
tp2118
a(F0.5723899075438215
g332
tp2119
a(F0.5583739865869705
g334
tp2120
asg1488
(lp2121
(F0.8301284760540606
g1492
tp2122
a(F0.7962782729774968
g1490
tp2123
a(F0.7193422298733823
g1884
tp2124
asS'night'
p2125
(lp2126
(F0.6226729731407568
g11
tp2127
a(F0.5477989245676168
g9
tp2128
a(F0.5345427608765582
g13
tp2129
asS'security'
p2130
(lp2131
(F0.5591925032952888
g78
tp2132
a(F0.5527711605556845
g80
tp2133
a(F0.5510401892832878
g82
tp2134
asg1072
(lp2135
(F0.7106043996653658
g297
tp2136
a(F0.5817108109959217
g295
tp2137
a(F0.48825092017292
g377
tp2138
asg279
(lp2139
(F1.0
g277
tp2140
a(F0.7987589106061196
g281
tp2141
a(F0.7599649672403794
g283
tp2142
asg311
(lp2143
(F0.8425300898618066
g309
tp2144
a(F0.7218142740592547
g1
tp2145
a(F0.6568944633833588
g7
tp2146
asg289
(lp2147
(F0.6047401097039312
g287
tp2148
a(F0.5813613898208357
g285
tp2149
a(F0.5496687570839511
g291
tp2150
asg649
(lp2151
(F0.6535469932857041
g164
tp2152
a(F0.5726602435483452
g651
tp2153
a(F0.5383744837944884
g734
tp2154
asg134
(lp2155
(F0.8079208307780925
g132
tp2156
a(F0.7714870973075931
g130
tp2157
a(F0.5610571644633314
g11
tp2158
asg484
(lp2159
(F0.5869306677615144
g34
tp2160
a(F0.5505442565641886
g36
tp2161
a(F0.5408961245288693
g374
tp2162
asg239
(lp2163
(F0.7994445856028497
g237
tp2164
a(F0.7827082308068287
g235
tp2165
a(F0.5205190288507857
g144
tp2166
asg32
(lp2167
(F0.8296254619205752
g30
tp2168
a(F0.6943649474581689
g359
tp2169
a(F0.6719024965639057
g362
tp2170
asg1562
(lp2171
(F0.7689334065911646
g1560
tp2172
a(F0.5843609604136801
g765
tp2173
a(F0.5837240741054939
g767
tp2174
asS'election'
p2175
(lp2176
(F0.577010821603574
g291
tp2177
a(F0.5601265760660644
g786
tp2178
a(F0.554290781248189
g791
tp2179
asg1114
(lp2180
(F0.6697302697193547
g1110
tp2181
a(F0.6628114403096679
g1108
tp2182
a(F0.6218446113198111
g1112
tp2183
asS'operation'
p2184
(lp2185
(F0.4959556382175386
g60
tp2186
a(F0.47122079432737635
g869
tp2187
a(F0.4427830535605829
g871
tp2188
asg355
(lp2189
(F0.8284783585851503
g1140
tp2190
a(F0.8284783585851503
g1142
tp2191
a(F0.8268494923137191
g1137
tp2192
asg1727
(lp2193
(F0.6214939180125264
g670
tp2194
a(F0.6178351100105995
g1724
tp2195
a(F0.6014964917122095
g664
tp2196
asg1089
(lp2197
(F0.6839714212441421
g1091
tp2198
a(F0.6420543884230063
g11
tp2199
a(F0.5218579979051304
g9
tp2200
asg1789
(lp2201
(F0.5923554589323582
g88
tp2202
a(F0.5923554589323582
g90
tp2203
a(F0.4585346197832178
g541
tp2204
asg1981
(lp2205
(F0.8596746634477309
g1979
tp2206
a(F0.3731382272485329
g88
tp2207
a(F0.3731382272485329
g90
tp2208
asg822
(lp2209
(F0.8968635714691107
g1770
tp2210
a(F0.8828791882343399
g1773
tp2211
a(F0.6529699419516136
g164
tp2212
asg325
(lp2213
(F0.6626630509912669
g186
tp2214
a(F0.6421233492990769
g327
tp2215
a(F0.6218739077993048
g188
tp2216
asg295
(lp2217
(F0.8064570607457914
g297
tp2218
a(F0.6760936395339765
g197
tp2219
a(F0.6760936395339765
g199
tp2220
asS'pressure'
p2221
(lp2222
(F0.7111749053180109
g765
tp2223
a(F0.6663828776959874
g775
tp2224
a(F0.66495645648872
g780
tp2225
asg1140
(lp2226
(F1.0
g1142
tp2227
a(F0.8284783585851503
g355
tp2228
a(F0.7598647659241161
g1137
tp2229
asg1556
(lp2230
(F0.4635873991358496
g186
tp2231
a(F0.44763849675722395
g110
tp2232
a(F0.44450512658539737
g1099
tp2233
asS'stage'
p2234
(lp2235
(F0.6109937126642575
g11
tp2236
a(F0.5388291206054062
g9
tp2237
a(F0.5259984385227171
g13
tp2238
asS'sister'
p2239
(lp2240
(F0.6356538758548462
g52
tp2241
a(F0.6197266282389848
g48
tp2242
a(F0.6172087327659896
g94
tp2243
asS'freedom'
p2244
(lp2245
(F0.5434343710189823
g60
tp2246
a(F0.5138781342710866
g869
tp2247
a(F0.48024244490790163
g871
tp2248
asg1773
(lp2249
(F0.8828791882343399
g822
tp2250
a(F0.8496186551220439
g1770
tp2251
a(F0.6091145520265291
g164
tp2252
asS'violence'
p2253
(lp2254
(F0.49403260274241373
g351
tp2255
a(F0.46524427162866483
g355
tp2256
a(F0.44506037005549953
g353
tp2257
asg889
(lp2258
(F0.6279550533687795
g885
tp2259
a(F0.6096241677964336
g887
tp2260
a(F0.435874282051437
g197
tp2261
asg307
(lp2262
(F0.7165017686727099
g305
tp2263
a(F0.6212806405502561
g1207
tp2264
a(F0.6183072873737987
g108
tp2265
asg265
(lp2266
(F0.7741916497965166
g263
tp2267
a(F0.4509114725827326
g267
tp2268
a(F0.39773656136236046
g269
tp2269
asg508
(lp2270
(F0.7064189724644688
g506
tp2271
a(F0.511767655858288
g3
tp2272
a(F0.511767655858288
g5
tp2273
asg231
(lp2274
(F0.8561496635740712
g98
tp2275
a(F0.8282962453048486
g229
tp2276
a(F0.7781911314649977
g423
tp2277
asg901
(lp2278
(F0.691803052332213
g903
tp2279
a(F0.6869832289982102
g897
tp2280
a(F0.630068564903763
g899
tp2281
asg1352
(lp2282
(F0.6682567185004747
g342
tp2283
a(F0.5690320942055055
g558
tp2284
a(F0.5567736803121283
g1127
tp2285
asS'support'
p2286
(lp2287
(F0.45778958522515983
g66
tp2288
a(F0.4280255497064142
g68
tp2289
a(F0.4223023826256947
g442
tp2290
asg715
(lp2291
(F0.8706253787843748
g713
tp2292
a(F0.6012265292077426
g717
tp2293
a(F0.5644616052977652
g719
tp2294
asg2099
(lp2295
(F0.5396030555832425
g2097
tp2296
a(F0.422962744471825
g11
tp2297
a(F0.41667311768322035
g1089
tp2298
asg1735
(lp2299
(F0.7842011175977867
g1733
tp2300
a(F0.7832090367409926
g1737
tp2301
a(F0.5599181677517054
g164
tp2302
asg225
(lp2303
(F0.8426187321538947
g221
tp2304
a(F0.8426187321538947
g223
tp2305
a(F0.8389266320458705
g219
tp2306
asg346
(lp2307
(F0.6726945488709531
g344
tp2308
a(F0.6194952763650432
g348
tp2309
a(F0.4009275072558354
g88
tp2310
asS'head'
p2311
(lp2312
(F0.727553815702083
g34
tp2313
a(F0.6741648074944567
g374
tp2314
a(F0.6537231535904942
g918
tp2315
asS'north'
p2316
(lp2317
(F0.5966196648672156
g558
tp2318
a(F0.5349010378312197
g556
tp2319
a(F0.5084774658248155
g561
tp2320
asg934
(lp2321
(F0.7553293064497646
g932
tp2322
a(F0.7217148305162563
g385
tp2323
a(F0.7013495478367662
g383
tp2324
asg777
(lp2325
(F0.7675514238447316
g775
tp2326
a(F0.6476270570463295
g765
tp2327
a(F0.6090755061192613
g780
tp2328
asg1737
(lp2329
(F0.7832090367409926
g1735
tp2330
a(F0.6760472632063242
g1733
tp2331
a(F0.452177668861642
g164
tp2332
asg1490
(lp2333
(F0.7962782729774968
g1488
tp2334
a(F0.7307943086971811
g1492
tp2335
a(F0.7137042955918367
g1884
tp2336
asg244
(lp2337
(F0.8574682818937658
g246
tp2338
a(F0.7940055414568389
g248
tp2339
a(F0.7491837659016793
g242
tp2340
asS'problem'
p2341
(lp2342
(F0.5981365641803051
g78
tp2343
a(F0.590795539348215
g80
tp2344
a(F0.5888186608318859
g82
tp2345
asS'piece'
p2346
(lp2347
(F0.25615665092975887
g88
tp2348
a(F0.25615665092975887
g90
tp2349
a(F0.21846478275831246
g342
tp2350
asg1053
(lp2351
(F0.8745977422743025
g1051
tp2352
a(F0.7632109856437376
g1055
tp2353
a(F0.7172451765714905
g1057
tp2354
asg1142
(lp2355
(F1.0
g1140
tp2356
a(F0.8284783585851503
g355
tp2357
a(F0.7598647659241161
g1137
tp2358
asg1349
(lp2359
(F0.8149254728249723
g1347
tp2360
a(F0.46324739305976
g342
tp2361
a(F0.4131234452188718
g1352
tp2362
asg596
(lp2363
(F0.7675470842985703
g598
tp2364
a(F0.7084793901100881
g594
tp2365
a(F0.6897222670655384
g600
tp2366
asS'politics'
p2367
(lp2368
(F0.41135504282862945
g201
tp2369
a(F0.3760776648260813
g197
tp2370
a(F0.3760776648260813
g199
tp2371
asS'education'
p2372
(lp2373
(F0.519038626848499
g66
tp2374
a(F0.48110731591513933
g68
tp2375
a(F0.47388857592063305
g442
tp2376
asg357
(lp2377
(F0.5376140066813967
g351
tp2378
a(F0.48391907471639417
g353
tp2379
a(F0.46891947790825134
g355
tp2380
asg1331
(lp2381
(F1.0
g209
tp2382
a(F0.8283827770917718
g207
tp2383
a(F0.7643969664818249
g686
tp2384
asS'floor'
p2385
(lp2386
(F0.3544378913995827
g267
tp2387
a(F0.32073223927282574
g269
tp2388
a(F0.3192382133274409
g525
tp2389
asg223
(lp2390
(F1.0
g221
tp2391
a(F0.9077900067824446
g219
tp2392
a(F0.8426187321538947
g225
tp2393
asS'peace'
p2394
(lp2395
(F0.47502426474603293
g60
tp2396
a(F0.4522853262407412
g869
tp2397
a(F0.42602345538197256
g871
tp2398
asg944
(lp2399
(F0.7406430340177684
g942
tp2400
a(F0.682034616728815
g596
tp2401
a(F0.6818356078878607
g598
tp2402
asS'reality'
p2403
(lp2404
(F0.5461050463314974
g3
tp2405
a(F0.5461050463314974
g5
tp2406
a(F0.5341861790060608
g1
tp2407
asg656
(lp2408
(F0.7332367825321964
g561
tp2409
a(F0.6931751692080672
g653
tp2410
a(F0.670691252825291
g558
tp2411
asg686
(lp2412
(F0.7643969664818249
g209
tp2413
a(F0.7643969664818249
g1331
tp2414
a(F0.7137775732101767
g682
tp2415
asg1080
(lp2416
(F0.7205671244549523
g431
tp2417
a(F0.7205671244549523
g1078
tp2418
a(F0.6725269762312585
g1075
tp2419
asg334
(lp2420
(F0.853107553511927
g332
tp2421
a(F0.7604808408980316
g336
tp2422
a(F0.7354516977596187
g447
tp2423
asg1047
(lp2424
(F0.6199532929877462
g126
tp2425
a(F0.5618403890891366
g122
tp2426
a(F0.5313296440074394
g128
tp2427
asS'picture'
p2428
(lp2429
(F0.7121302167283858
g1372
tp2430
a(F0.6142366843859491
g1554
tp2431
a(F0.6084116555980382
g1556
tp2432
asg364
(lp2433
(F0.6641059385274451
g359
tp2434
a(F0.6441696650449005
g32
tp2435
a(F0.6435295590476542
g362
tp2436
asS'gas'
p2437
(lp2438
(F0.6078953349913999
g765
tp2439
a(F0.5826934419811317
g767
tp2440
a(F0.5826934419811317
g769
tp2441
asg873
(lp2442
(F1.0
g871
tp2443
a(F0.7176684337927463
g1776
tp2444
a(F0.6375993962106948
g60
tp2445
asg267
(lp2446
(F0.5059142356038737
g269
tp2447
a(F0.5022069141950053
g525
tp2448
a(F0.4804107997793776
g88
tp2449
asg525
(lp2450
(F0.734413178085743
g269
tp2451
a(F0.6431082638779374
g527
tp2452
a(F0.6272457979746672
g489
tp2453
asS'land'
p2454
(lp2455
(F0.5722338011869488
g447
tp2456
a(F0.5509469703240354
g332
tp2457
a(F0.5379495886112954
g334
tp2458
asg90
(lp2459
(F1.0
g88
tp2460
a(F0.602663457656783
g541
tp2461
a(F0.5923554589323582
g1789
tp2462
asg94
(lp2463
(F0.882310704736048
g1540
tp2464
a(F0.8646461250847365
g92
tp2465
a(F0.8102234826733447
g96
tp2466
asS'painting'
p2467
(lp2468
(F0.611983621350816
g1554
tp2469
a(F0.6062010462625627
g1556
tp2470
a(F0.6050991535761491
g686
tp2471
asg172
(lp2472
(F0.5884306921473673
g170
tp2473
a(F0.5764878987095932
g166
tp2474
a(F0.5764878987095932
g168
tp2475
asg348
(lp2476
(F0.6428792628388408
g344
tp2477
a(F0.6194952763650432
g346
tp2478
a(F0.37455630391524253
g88
tp2479
asS'rule'
p2480
(lp2481
(F0.6003275326024077
g1
tp2482
a(F0.5602567624965837
g7
tp2483
a(F0.5602567624965837
g515
tp2484
asS'time'
p2485
(lp2486
(F0.6103362992459831
g178
tp2487
a(F0.555155183506345
g180
tp2488
a(F0.5509880331412741
g398
tp2489
as.