(dp0
S'poor'
p1
(lp2
(F0.6565668326469813
S'public'
p3
tp4
a(F0.6505936522467352
S'free'
p5
tp6
a(F0.6091704465916384
S'dead'
p7
tp8
a(F0.38266082159089804
S'social'
p9
tp10
a(F0.3742467419636197
S'military'
p11
tp12
asS'major'
p13
(lp14
(F0.8330097297323378
S'general'
p15
tp16
a(F0.673705092312773
S'private'
p17
tp18
asS'right'
p19
(lp20
(F0.6965687258785346
S'whole'
p21
tp22
a(F0.36822636183226837
S'possible'
p23
tp24
asS'old'
p25
(lp26
(F0.7645890285449325
S'past'
p27
tp28
a(F0.6921344324989972
S'recent'
p29
tp30
a(F0.34451262467159766
S'large'
p31
tp32
a(F0.33867864814589965
S'bad'
p33
tp34
a(F0.33722862887262656
S'full'
p35
tp36
asS'national'
p37
(lp38
(F0.319614307053119
S'great'
p39
tp40
a(F0.3184276919769543
S'American'
p41
tp42
a(F0.31544383395581244
g15
tp43
a(F0.31157690830745294
S'religious'
p44
tp45
a(F0.30968752952132395
S'human'
p46
tp47
asg7
(lp48
(F0.6408884830492084
g3
tp49
a(F0.6351959305557471
g5
tp50
a(F0.6091704465916384
g1
tp51
a(F0.3734696333941033
g9
tp52
a(F0.365450662472335
g11
tp53
asg15
(lp54
(F0.8330097297323378
g13
tp55
a(F0.7676416818858747
g17
tp56
a(F0.31550681699431593
g39
tp57
a(F0.31544383395581244
g37
tp58
a(F0.3143504500860638
g41
tp59
asg27
(lp60
(F0.7645890285449325
g25
tp61
a(F0.7004155935602243
g29
tp62
a(F0.3488141461506248
g31
tp63
a(F0.34283484044397006
g33
tp64
a(F0.34134909220846404
g35
tp65
asg35
(lp66
(F0.35069732164750306
S'little'
p67
tp68
a(F0.34939124653537723
S'real'
p69
tp70
a(F0.32235478973515824
S'close'
p71
tp72
asg46
(lp73
(F0.7504872063816141
S'entire'
p74
tp75
a(F0.6585463567234143
S'young'
p76
tp77
a(F0.30975141508782844
g39
tp78
a(F0.30968752952132395
g37
tp79
a(F0.3085786126573215
g41
tp80
asS'ready'
p81
(lp82
(F0.40743501799118104
S'dark'
p83
tp84
a(F0.40053437313378254
S'clear'
p85
tp86
a(F0.37980417279539114
S'cold'
p87
tp88
a(F0.3299307674448395
g27
tp89
a(F0.3260798023563965
g25
tp90
asg71
(lp91
(F0.3381441098664908
g67
tp92
a(F0.3369297013382758
g69
tp93
a(F0.32235478973515824
g35
tp94
asg87
(lp95
(F0.49616878472654835
g85
tp96
a(F0.38012755515376195
g83
tp97
a(F0.37980417279539114
g81
tp98
a(F0.30563456086852686
g27
tp99
a(F0.30232704206078737
g25
tp100
asS'fine'
p101
(lp102
(F0.3553051516570243
S'true'
p103
tp104
asS'best'
p105
(lp106
(F0.4021518280903077
S'medical'
p107
tp108
asS'blue'
p109
(lp110
(F0.7902046513690048
S'red'
p111
tp112
a(F0.7324754361392679
S'green'
p113
tp114
a(F0.7091805054804958
S'black'
p115
tp116
a(F0.4868938470084199
g31
tp117
a(F0.44388524814597113
S'high'
p118
tp119
asS'current'
p120
(lp121
(F0.5959418985864602
S'low'
p122
tp123
asg67
(lp124
(F0.3680167075699185
g69
tp125
a(F0.35069732164750306
g35
tp126
a(F0.3381441098664908
g71
tp127
asS'open'
p128
(lp129
(F0.38378092078344433
S'common'
p130
tp131
a(F0.3639504179817034
S'nice'
p132
tp133
a(F0.3622503383138961
S'short'
p134
tp135
a(F0.34050095194445507
S'central'
p136
tp137
a(F0.32961734458912617
S'left'
p138
tp139
asS'personal'
p140
(lp141
(F0.3419083118457783
S'special'
p142
tp143
asg44
(lp144
(F0.31163835648226784
g39
tp145
a(F0.31157690830745294
g37
tp146
a(F0.3105101216908885
g41
tp147
a(F0.30767214241287716
g15
tp148
a(F0.3018109623768435
g46
tp149
asg76
(lp150
(F0.6585463567234143
g46
tp151
a(F0.5945008099531458
g74
tp152
asS'better'
p153
(lp154
(F0.516601044363956
g33
tp155
a(F0.5146325955327701
g35
tp156
a(F0.5062606342837085
S'good'
p157
tp158
a(F0.47674479916307366
S'wrong'
p159
tp160
a(F0.3218347618261976
g27
tp161
asg118
(lp162
(F0.49874305299004773
g31
tp163
a(F0.4677131389507252
g111
tp164
a(F0.44388524814597113
g109
tp165
a(F0.43904988137561995
g115
tp166
a(F0.43282222904143114
g113
tp167
asg115
(lp168
(F0.7459825524360092
g111
tp169
a(F0.7091805054804958
g109
tp170
a(F0.69205120574793
g113
tp171
a(F0.4810822106836797
g31
tp172
a(F0.43904988137561995
g118
tp173
asg122
(lp174
(F0.5959418985864602
g120
tp175
asS'international'
p176
(lp177
(F0.38576686648194014
g9
tp178
a(F0.3834470567324289
g3
tp179
a(F0.3799307227405641
g5
tp180
a(F0.3772171648342686
g11
tp181
a(F0.363880576416249
g1
tp182
asS'main'
p183
(lp184
(F0.49556239034974453
S'small'
p185
tp186
asS'local'
p187
(lp188
(F0.30831738106636947
g140
tp189
asg3
(lp190
(F0.6869005097994324
g5
tp191
a(F0.6565668326469813
g1
tp192
a(F0.6408884830492084
g7
tp193
a(F0.4043593307877666
g9
tp194
a(F0.3949756678173473
g11
tp195
asg111
(lp196
(F0.7902046513690048
g109
tp197
a(F0.7699313344923059
g113
tp198
a(F0.7459825524360092
g115
tp199
a(F0.5157127520125131
g31
tp200
a(F0.4677131389507252
g118
tp201
asg132
(lp202
(F0.5507542821173049
g130
tp203
a(F0.5214366549719696
g134
tp204
a(F0.3639504179817034
g128
tp205
a(F0.32229138676887065
g136
tp206
a(F0.3125240399790948
g138
tp207
asg69
(lp208
(F0.3680167075699185
g67
tp209
a(F0.34939124653537723
g35
tp210
a(F0.3369297013382758
g71
tp211
asg157
(lp212
(F0.5364030795056837
g33
tp213
a(F0.5342811416141227
g35
tp214
a(F0.5062606342837085
g153
tp215
a(F0.49355948474212735
g159
tp216
a(F0.33504749203460005
g27
tp217
asg23
(lp218
(F0.406182154259372
g21
tp219
a(F0.36822636183226837
g19
tp220
asg5
(lp221
(F0.6869005097994324
g3
tp222
a(F0.6505936522467352
g1
tp223
a(F0.6351959305557471
g7
tp224
a(F0.40045094800160663
g9
tp225
a(F0.3912457414188951
g11
tp226
asg83
(lp227
(F0.40743501799118104
g81
tp228
a(F0.4008940368508674
g85
tp229
a(F0.38012755515376195
g87
tp230
a(F0.3302642946211576
g27
tp231
a(F0.3264055852422617
g25
tp232
asg41
(lp233
(F0.7152258213363595
S'federal'
p234
tp235
a(F0.31849187231520815
g39
tp236
a(F0.3184276919769543
g37
tp237
a(F0.3143504500860638
g15
tp238
a(F0.3105101216908885
g44
tp239
asg17
(lp240
(F0.7676416818858747
g15
tp241
a(F0.673705092312773
g13
tp242
asS'natural'
p243
(lp244
(F0.8229293795219438
g39
tp245
asg103
(lp246
(F0.3553051516570243
g101
tp247
asg142
(lp248
(F0.3419083118457783
g140
tp249
asg29
(lp250
(F0.7004155935602243
g27
tp251
a(F0.6921344324989972
g25
tp252
a(F0.3170825612248232
g31
tp253
a(F0.312133930388496
g33
tp254
a(F0.3109018874042199
g35
tp255
asg74
(lp256
(F0.7504872063816141
g46
tp257
a(F0.5945008099531458
g76
tp258
asg39
(lp259
(F0.8229293795219438
g243
tp260
a(F0.319614307053119
g37
tp261
a(F0.31849187231520815
g41
tp262
a(F0.31550681699431593
g15
tp263
a(F0.31163835648226784
g44
tp264
asg134
(lp265
(F0.716094747156484
g130
tp266
a(F0.5214366549719696
g132
tp267
a(F0.3622503383138961
g128
tp268
a(F0.32080469824338864
g136
tp269
a(F0.31112590156493686
g138
tp270
asg136
(lp271
(F0.6223218045944132
g138
tp272
a(F0.34050095194445507
g128
tp273
a(F0.33961994072833956
g130
tp274
a(F0.32229138676887065
g132
tp275
a(F0.32080469824338864
g134
tp276
asg107
(lp277
(F0.4021518280903077
g105
tp278
asg159
(lp279
(F0.5033825258479576
g33
tp280
a(F0.5015133412810475
g35
tp281
a(F0.49355948474212735
g157
tp282
a(F0.47674479916307366
g153
tp283
a(F0.3130532262845534
g27
tp284
asg31
(lp285
(F0.5157127520125131
g111
tp286
a(F0.49874305299004773
g118
tp287
a(F0.4868938470084199
g109
tp288
a(F0.4810822106836797
g115
tp289
a(F0.4736152153120261
g113
tp290
asg234
(lp291
(F0.7152258213363595
g41
tp292
asg33
(lp293
(F0.5458109045256381
g35
tp294
a(F0.5364030795056837
g157
tp295
a(F0.516601044363956
g153
tp296
a(F0.5033825258479576
g159
tp297
a(F0.34283484044397006
g27
tp298
asg113
(lp299
(F0.7699313344923059
g111
tp300
a(F0.7324754361392679
g109
tp301
a(F0.69205120574793
g115
tp302
a(F0.4736152153120261
g31
tp303
a(F0.43282222904143114
g118
tp304
asg130
(lp305
(F0.716094747156484
g134
tp306
a(F0.5507542821173049
g132
tp307
a(F0.38378092078344433
g128
tp308
a(F0.33961994072833956
g136
tp309
a(F0.32879168542042353
g138
tp310
asg9
(lp311
(F0.4575375526502275
g11
tp312
a(F0.4043593307877666
g3
tp313
a(F0.40045094800160663
g5
tp314
a(F0.38576686648194014
g176
tp315
a(F0.38266082159089804
g1
tp316
asg185
(lp317
(F0.49556239034974453
g183
tp318
asg11
(lp319
(F0.4575375526502275
g9
tp320
a(F0.3949756678173473
g3
tp321
a(F0.3912457414188951
g5
tp322
a(F0.3772171648342686
g176
tp323
a(F0.3742467419636197
g1
tp324
asg21
(lp325
(F0.6965687258785346
g19
tp326
a(F0.406182154259372
g23
tp327
asg85
(lp328
(F0.49616878472654835
g87
tp329
a(F0.4008940368508674
g83
tp330
a(F0.40053437313378254
g81
tp331
a(F0.3240795142650132
g27
tp332
a(F0.3203631607920238
g25
tp333
asg138
(lp334
(F0.6223218045944132
g136
tp335
a(F0.32961734458912617
g128
tp336
a(F0.32879168542042353
g130
tp337
a(F0.3125240399790948
g132
tp338
a(F0.31112590156493686
g134
tp339
as.