(dp0
S'help'
p1
(lp2
(F0.5570546571469402
S'work'
p3
tp4
a(F0.5053777781023149
S'try'
p5
tp6
a(F0.48132291149934264
S'show'
p7
tp8
a(F0.46546015076838326
S'care'
p9
tp10
a(F0.46433236122648014
S'use'
p11
tp12
asg7
(lp13
(F0.5602845107722735
g3
tp14
a(F0.5080347439430043
g5
tp15
a(F0.48132291149934264
g1
tp16
a(F0.4677130324940772
g9
tp17
a(F0.46657431261862825
g11
tp18
asS'move'
p19
(lp20
(F0.519879617233941
S'get'
p21
tp22
a(F0.508682210385835
S'serve'
p23
tp24
a(F0.5018745213704922
S'kill'
p25
tp26
a(F0.4803087085739595
S'hit'
p27
tp28
a(F0.4766294358191849
S'walk'
p29
tp30
asS'focus'
p31
(lp32
(F0.7239498126185716
S'will'
p33
tp34
a(F0.4960485250374355
S'hang'
p35
tp36
a(F0.3386519430428374
S'plan'
p37
tp38
a(F0.33828368194040215
S'know'
p39
tp40
a(F0.3254651196750297
S'make'
p41
tp42
asg25
(lp43
(F0.5942817206459732
g21
tp44
a(F0.5807405182680394
g23
tp45
a(F0.5421687590594605
g29
tp46
a(F0.5261403962974683
S'carry'
p47
tp48
a(F0.5064889758698417
g27
tp49
asS'go'
p50
(lp51
(F0.5188900282900372
S'may'
p52
tp53
a(F0.4576239202709804
S'leave'
p54
tp55
a(F0.43202077616629736
S'fall'
p56
tp57
a(F0.30806609360320575
S'close'
p58
tp59
a(F0.3015540485208748
S'increase'
p60
tp61
asS'find'
p62
(lp63
(F0.8293036981607764
g39
tp64
a(F0.7029154044628668
S'feel'
p65
tp66
a(F0.643455301274625
S'think'
p67
tp68
a(F0.6099374524372209
S'pick'
p69
tp70
a(F0.38612323130269993
g37
tp71
asS'cut'
p72
(lp73
(F0.6027931933096391
S'share'
p74
tp75
a(F0.5921145259807403
S'take'
p76
tp77
a(F0.5701140768975558
S'keep'
p78
tp79
a(F0.5124231231918793
S'pay'
p80
tp81
a(F0.4577997228764654
S'buy'
p82
tp83
asS'add'
p84
(lp85
(F0.6430994681946676
S'mean'
p86
tp87
a(F0.36026062102859285
g37
tp88
a(F0.3598438935303276
g39
tp89
a(F0.3586809844480934
g33
tp90
a(F0.3453742475511628
g41
tp91
asS'might'
p92
(lp93
(F0.6012508512471371
S'give'
p94
tp95
a(F0.5215732978586666
S'sound'
p96
tp97
a(F0.5075174554862625
S'build'
p98
tp99
a(F0.5074505859035422
S'raise'
p100
tp101
a(F0.39538111218805044
S'present'
p102
tp103
asS'hope'
p104
(lp105
(F0.5614216568860938
S'love'
p106
tp107
a(F0.5309759303371119
S'wonder'
p108
tp109
a(F0.4115664155428129
S'say'
p110
tp111
a(F0.4036994042832616
S'need'
p112
tp113
a(F0.36759037881214796
S'want'
p114
tp115
asg76
(lp116
(F0.7584728796038476
g74
tp117
a(F0.7074487898485339
g78
tp118
a(F0.650651743258372
g80
tp119
a(F0.5921145259807403
g72
tp120
a(F0.5650453174628943
g82
tp121
asS'do'
p122
(lp123
(F0.7053180639009731
S'meet'
p124
tp125
a(F0.36206494532192535
g3
tp126
a(F0.3302693668098829
S'change'
p127
tp128
a(F0.3287212933546427
g5
tp129
a(F0.3148941896644462
g21
tp130
asS'return'
p131
(lp132
(F0.6293007595531399
S'put'
p133
tp134
a(F0.6046890644450276
S'act'
p135
tp136
a(F0.5491618080794928
S'report'
p137
tp138
a(F0.5265845341469967
S'check'
p139
tp140
a(F0.45900900672271167
S'play'
p141
tp142
asg21
(lp143
(F0.894082886219061
g23
tp144
a(F0.6854833715851232
g29
tp145
a(F0.5942817206459732
g25
tp146
a(F0.5444584138659487
g47
tp147
a(F0.5248327381571877
g27
tp148
asS'read'
p149
(lp150
(F0.3366014468959703
S'die'
p151
tp152
a(F0.32554409204262424
S'can'
p153
tp154
asS'rise'
p155
(lp156
(F0.781385742252578
S'start'
p157
tp158
a(F0.7698272163155556
S'cause'
p159
tp160
a(F0.5421665370230754
g127
tp161
a(F0.4661418511591333
S'seek'
p162
tp163
a(F0.4479149140653115
S'stop'
p164
tp165
asg164
(lp166
(F0.6816405631083621
S'win'
p167
tp168
a(F0.5551667532968066
g127
tp169
a(F0.4903629516216529
g157
tp170
a(F0.4829580278393555
g159
tp171
a(F0.47571960260021573
g162
tp172
asS'break'
p173
(lp174
(F0.5444203493732285
g127
tp175
a(F0.48195995924001467
g157
tp176
a(F0.4748047949840159
g159
tp177
a(F0.4678069324662428
g162
tp178
a(F0.4494521114738885
g164
tp179
asg39
(lp180
(F0.8293036981607764
g62
tp181
a(F0.7605121601515953
g65
tp182
a(F0.7030047018466268
g67
tp183
a(F0.6631878219064503
g69
tp184
a(F0.4240607761932853
g37
tp185
asg56
(lp186
(F0.4798729089948962
g52
tp187
a(F0.43202077616629736
g50
tp188
a(F0.42700464148701983
g54
tp189
asg137
(lp190
(F0.6435023608129015
g133
tp191
a(F0.6164560669154502
g135
tp192
a(F0.5491618080794928
g131
tp193
a(F0.5317036461343525
g139
tp194
a(F0.4902624098919295
g141
tp195
asS'name'
p196
(lp197
(F0.7217148305162563
S'form'
p198
tp199
a(F0.633708545425337
S'be'
p200
tp201
a(F0.49874407101459484
S'come'
p202
tp203
a(F0.46574972970869827
g80
tp204
a(F0.44334607796894654
g74
tp205
asS'like'
p206
(lp207
(F0.7372595311782508
g41
tp208
a(F0.4953081306608258
g37
tp209
a(F0.44909680820614456
S'point'
p210
tp211
a(F0.33200482224730626
g39
tp212
a(F0.3310146406135682
g33
tp213
asg151
(lp214
(F0.3470910637131157
g153
tp215
a(F0.3366014468959703
g149
tp216
a(F0.30023590134366857
S'cover'
p217
tp218
asS'drop'
p219
(lp220
(F0.47775917747152913
S'join'
p221
tp222
a(F0.46058040471552847
S'turn'
p223
tp224
asS'remove'
p225
(lp226
(F0.4211892128058806
g200
tp227
a(F0.38382201091961277
g196
tp228
a(F0.366228387342605
g80
tp229
a(F0.35223236602570496
g74
tp230
a(F0.34979375041431093
g202
tp231
asg54
(lp232
(F0.5116706829221093
g52
tp233
a(F0.4576239202709804
g50
tp234
a(F0.42700464148701983
g56
tp235
a(F0.3041883468007717
g58
tp236
asg86
(lp237
(F0.6430994681946676
g84
tp238
a(F0.39298285964741797
g37
tp239
a(F0.39248704407568286
g39
tp240
a(F0.391103984658589
g33
tp241
a(F0.37533566764333526
g41
tp242
asS'set'
p243
(lp244
(F0.3930380420379103
S'let'
p245
tp246
asS'force'
p247
(lp248
(F0.4916824610774759
S'look'
p249
tp250
a(F0.46276388102040394
S'compare'
p251
tp252
a(F0.42093305659718316
S'lead'
p253
tp254
a(F0.3988848526359372
S'catch'
p255
tp256
a(F0.3342253755871373
g102
tp257
asS'deal'
p258
(lp259
(F0.6338402939093123
S'sell'
p260
tp261
a(F0.5100989859500807
S'fight'
p262
tp263
a(F0.4963485141244262
S'visit'
p264
tp265
a(F0.33398016376382167
g3
tp266
a(F0.3084290998039187
g5
tp267
asg141
(lp268
(F0.5340434022121411
g133
tp269
a(F0.5126411164601976
g135
tp270
a(F0.4902624098919295
g137
tp271
a(F0.45900900672271167
g131
tp272
a(F0.445005718326472
g139
tp273
asS'see'
p274
(lp275
(F0.7319747001363475
S'open'
p276
tp277
a(F0.5894062352418763
S'state'
p278
tp279
a(F0.40415487776419734
S'place'
p280
tp281
a(F0.3726623239801823
S'end'
p282
tp283
a(F0.3583920544336619
S'reach'
p284
tp285
asS'design'
p286
(lp287
(F0.47986516127233586
g3
tp288
a(F0.44101811725026824
g5
tp289
a(F0.4225881720353612
g7
tp290
a(F0.42074817976707146
g1
tp291
a(F0.410311222642665
g9
tp292
asS'pass'
p293
(lp294
(F0.6753999160076883
g27
tp295
a(F0.6040818994913436
S'run'
p296
tp297
a(F0.4623939818444982
g21
tp298
a(F0.4535148239634307
g23
tp299
a(F0.4480958086390665
g25
tp300
asg58
(lp301
(F0.3454476705761012
g52
tp302
a(F0.30806609360320575
g50
tp303
a(F0.3050521822919948
g60
tp304
a(F0.3041883468007717
g54
tp305
a(F0.3025175686156779
S'wait'
p306
tp307
asg108
(lp308
(F0.5562415522569438
g106
tp309
a(F0.5309759303371119
g104
tp310
a(F0.40729014444870465
g110
tp311
a(F0.3995842336061115
g112
tp312
a(F0.3641753366800206
g114
tp313
asg5
(lp314
(F0.5931486641812583
g3
tp315
a(F0.5080347439430043
g7
tp316
a(F0.5053777781023149
g1
tp317
a(F0.4903947293267213
g9
tp318
a(F0.4891430350327709
g11
tp319
asg253
(lp320
(F0.4365093029601953
g249
tp321
a(F0.42093305659718316
g247
tp322
a(F0.4135652399617454
g251
tp323
a(F0.3617868951456394
g255
tp324
asg276
(lp325
(F0.7319747001363475
g274
tp326
a(F0.5180843585592558
g278
tp327
a(F0.36566463427699597
g280
tp328
a(F0.3396921752848521
g282
tp329
a(F0.32779493858098746
g284
tp330
asg60
(lp331
(F0.3372803125552383
g52
tp332
a(F0.3050521822919948
g58
tp333
a(F0.3015540485208748
g50
tp334
asg278
(lp335
(F0.5894062352418763
g274
tp336
a(F0.5180843585592558
g276
tp337
a(F0.5027258695998267
g280
tp338
a(F0.45490708814859127
g282
tp339
a(F0.4338212049802439
g284
tp340
asg159
(lp341
(F0.8472952693752371
g157
tp342
a(F0.7698272163155556
g155
tp343
a(F0.5943684256336916
g127
tp344
a(F0.5042162173501816
g162
tp345
a(F0.4829580278393555
g164
tp346
asg200
(lp347
(F0.633708545425337
g196
tp348
a(F0.5864685735864026
g202
tp349
a(F0.5158667701458464
S'produce'
p350
tp351
a(F0.4917759569871253
g198
tp352
asg296
(lp353
(F0.6705626427166615
g27
tp354
a(F0.6040818994913436
g293
tp355
a(F0.4588414697319666
g21
tp356
a(F0.4500969324591504
g23
tp357
a(F0.44475880890304964
g25
tp358
asg284
(lp359
(F0.7552427903508615
g282
tp360
a(F0.4338212049802439
g278
tp361
a(F0.3583920544336619
g274
tp362
a(F0.346320512340606
g280
tp363
a(F0.32779493858098746
g276
tp364
asg11
(lp365
(F0.537394611533433
g3
tp366
a(F0.4891430350327709
g5
tp367
a(F0.46657431261862825
g7
tp368
a(F0.46433236122648014
g1
tp369
a(F0.4516537174638969
g9
tp370
asg245
(lp371
(F0.3930380420379103
g243
tp372
asS'wear'
p373
(lp374
(F0.5014410330206955
g112
tp375
a(F0.45919506826857853
g114
tp376
a(F0.3849814044792014
g110
tp377
a(F0.3439820059747074
g106
tp378
a(F0.3290891996306761
g104
tp379
asg133
(lp380
(F0.7140327952570861
g135
tp381
a(F0.6435023608129015
g137
tp382
a(F0.6293007595531399
g131
tp383
a(F0.6076132485629951
g139
tp384
a(F0.5340434022121411
g141
tp385
asS'teach'
p386
(lp387
(F0.30712562040069574
S'have'
p388
tp389
asg202
(lp390
(F0.5864685735864026
g200
tp391
a(F0.49874407101459484
g196
tp392
a(F0.41762460661064005
g350
tp393
a(F0.4064263854309465
g198
tp394
asS'throw'
p395
(lp396
(F0.822720670081986
S'push'
p397
tp398
a(F0.7853452744232677
S'pull'
p399
tp400
a(F0.7404150519674034
S'drive'
p401
tp402
a(F0.37022565406828717
g3
tp403
a(F0.33908629196646034
g5
tp404
asg127
(lp405
(F0.6056235959413602
g157
tp406
a(F0.5943684256336916
g159
tp407
a(F0.5834430134501198
g162
tp408
a(F0.5551667532968066
g164
tp409
a(F0.5509527277587092
g167
tp410
asg306
(lp411
(F0.334184572933414
g52
tp412
a(F0.3025175686156779
g58
tp413
asS'study'
p414
(lp415
(F0.6062900991121122
g9
tp416
a(F0.47065606827097695
g3
tp417
a(F0.4332275959531036
g5
tp418
a(F0.4154298859834252
g7
tp419
a(F0.4136515704218939
g1
tp420
asg78
(lp421
(F0.7227464128888275
g74
tp422
a(F0.7074487898485339
g76
tp423
a(F0.6187073220709768
g80
tp424
a(F0.5701140768975558
g72
tp425
a(F0.5407971541799022
g82
tp426
asg223
(lp427
(F0.489791601154834
g221
tp428
a(F0.46058040471552847
g219
tp429
a(F0.30663981486333935
g102
tp430
asg280
(lp431
(F0.5027258695998267
g278
tp432
a(F0.40415487776419734
g274
tp433
a(F0.36566463427699597
g276
tp434
a(F0.35962780770851305
g282
tp435
a(F0.346320512340606
g284
tp436
asS'stand'
p437
(lp438
(F0.4317381242787054
S'watch'
p439
tp440
a(F0.38864156575981756
g153
tp441
a(F0.341434730656215
S'call'
p442
tp443
asg69
(lp444
(F0.6631878219064503
g39
tp445
a(F0.6294638567448382
g67
tp446
a(F0.6099374524372209
g62
tp447
a(F0.5640855348783025
g65
tp448
a(F0.37726672945303147
g37
tp449
asg67
(lp450
(F0.7030047018466268
g39
tp451
a(F0.643455301274625
g62
tp452
a(F0.6294638567448382
g69
tp453
a(F0.5926354652775395
g65
tp454
a(F0.3999464230296186
g37
tp455
asg37
(lp456
(F0.6022348634602046
g41
tp457
a(F0.5158083271144808
g210
tp458
a(F0.4953081306608258
g206
tp459
a(F0.4240607761932853
g39
tp460
a(F0.4224467027177407
g33
tp461
asg106
(lp462
(F0.5614216568860938
g104
tp463
a(F0.5562415522569438
g108
tp464
a(F0.435126833056804
g110
tp465
a(F0.4263429472000014
g112
tp466
a(F0.386270643558271
g114
tp467
asg210
(lp468
(F0.5288322860585196
g41
tp469
a(F0.5158083271144808
g37
tp470
a(F0.44909680820614456
g206
tp471
a(F0.34573082325703086
g39
tp472
a(F0.3446572078438435
g33
tp473
asg65
(lp474
(F0.7605121601515953
g39
tp475
a(F0.7029154044628668
g62
tp476
a(F0.5926354652775395
g67
tp477
a(F0.5640855348783025
g69
tp478
a(F0.3540574847719107
g37
tp479
asg167
(lp480
(F0.6816405631083621
g164
tp481
a(F0.5509527277587092
g127
tp482
a(F0.48707238616231985
g157
tp483
a(F0.4797657695487945
g159
tp484
a(F0.4726220095204838
g162
tp485
asg29
(lp486
(F0.6854833715851232
g21
tp487
a(F0.6707034644863425
g23
tp488
a(F0.5421687590594605
g25
tp489
a(F0.5003932816468042
g47
tp490
a(F0.48078941329191555
g27
tp491
asS'laugh'
p492
(lp493
(F0.5678479916653538
S'talk'
p494
tp495
a(F0.5389758838976073
S'lay'
p496
tp497
a(F0.3397564349475681
g133
tp498
a(F0.32605232600115414
g135
tp499
a(F0.3146183730899654
S'lie'
p500
tp501
asg47
(lp502
(F0.5444584138659487
g21
tp503
a(F0.5330708101715279
g23
tp504
a(F0.5261403962974683
g25
tp505
a(F0.5003932816468042
g29
tp506
a(F0.46716969958488114
g27
tp507
asS'miss'
p508
(lp509
(F0.3501061259197833
g388
tp510
asS'guess'
p511
(lp512
(F0.45049672999351525
g500
tp513
a(F0.4484696409592773
S'answer'
p514
tp515
a(F0.4250957899237873
S'claim'
p516
tp517
a(F0.34417587712717884
g133
tp518
a(F0.3325607261449657
g494
tp519
asg100
(lp520
(F0.5074505859035422
g92
tp521
a(F0.4951487671912232
g94
tp522
a(F0.4398172139646658
g96
tp523
a(F0.42978009513766197
g98
tp524
a(F0.31980449756488977
g102
tp525
asS'support'
p526
(lp527
(F0.45778958522515983
g3
tp528
a(F0.4223023826256947
g5
tp529
a(F0.40537346749908804
g7
tp530
a(F0.4036800306684714
g1
tp531
a(F0.3940629960600749
g9
tp532
asg264
(lp533
(F0.5406337212403534
g262
tp534
a(F0.512906998101252
g260
tp535
a(F0.4963485141244262
g258
tp536
a(F0.3586815644616626
g3
tp537
a(F0.32937699855224845
g5
tp538
asg262
(lp539
(F0.5406337212403534
g264
tp540
a(F0.5276038039492161
g260
tp541
a(F0.5100989859500807
g258
tp542
a(F0.3721835593114625
g3
tp543
a(F0.3407279624310115
g5
tp544
asg157
(lp545
(F0.8472952693752371
g159
tp546
a(F0.781385742252578
g155
tp547
a(F0.6056235959413602
g127
tp548
a(F0.5122928183902271
g162
tp549
a(F0.4903629516216529
g164
tp550
asg442
(lp551
(F0.3935225274115699
g153
tp552
a(F0.34380277063865705
g439
tp553
a(F0.341434730656215
g437
tp554
asg9
(lp555
(F0.6062900991121122
g414
tp556
a(F0.5389058144444794
g3
tp557
a(F0.4903947293267213
g5
tp558
a(F0.4677130324940772
g7
tp559
a(F0.46546015076838326
g1
tp560
asS'tell'
p561
(lp562
(F0.35105177750500294
g388
tp563
asg82
(lp564
(F0.7016846344722283
g80
tp565
a(F0.5769204738562705
g74
tp566
a(F0.5650453174628943
g76
tp567
a(F0.5407971541799022
g78
tp568
a(F0.4577997228764654
g72
tp569
asg198
(lp570
(F0.7217148305162563
g196
tp571
a(F0.4917759569871253
g200
tp572
a(F0.4064263854309465
g202
tp573
a(F0.37538751445421276
g80
tp574
a(F0.36069671788545105
g74
tp575
asS'offer'
p576
(lp577
(F0.3472915481344267
g3
tp578
a(F0.3197471162079534
g5
tp579
a(F0.30809605121155825
g21
tp580
a(F0.3066449422380695
g7
tp581
a(F0.30533563863737045
g1
tp582
asg23
(lp583
(F0.894082886219061
g21
tp584
a(F0.6707034644863425
g29
tp585
a(F0.5807405182680394
g25
tp586
a(F0.5330708101715279
g47
tp587
a(F0.5134232909848319
g27
tp588
asg255
(lp589
(F0.4128450280058103
g249
tp590
a(F0.3988848526359372
g247
tp591
a(F0.39226259326720214
g251
tp592
a(F0.3617868951456394
g253
tp593
asS'hold'
p594
(lp595
(F0.47405169737433556
g3
tp596
a(F0.4361029812459144
g5
tp597
a(F0.4180731521314194
g7
tp598
a(F0.4162721837624976
g1
tp599
a(F0.40605340938269857
g9
tp600
asg102
(lp601
(F0.39538111218805044
g92
tp602
a(F0.39458207787606736
g110
tp603
a(F0.38475878305411143
g112
tp604
a(F0.38294882697335336
g94
tp605
a(F0.3512922593714545
g249
tp606
asS'must'
p607
(lp608
(F0.495751036445602
S'face'
p609
tp610
asg96
(lp611
(F0.5215732978586666
g92
tp612
a(F0.5085859763292135
g94
tp613
a(F0.4398674456691858
g98
tp614
a(F0.4398172139646658
g100
tp615
a(F0.32922649048703184
g102
tp616
asg399
(lp617
(F0.7934383140640663
g397
tp618
a(F0.7853452744232677
g395
tp619
a(F0.7166137446249711
g401
tp620
a(F0.3540844653280306
g3
tp621
a(F0.32549632335059586
g5
tp622
asg221
(lp623
(F0.489791601154834
g223
tp624
a(F0.47775917747152913
g219
tp625
a(F0.3217983246713241
g102
tp626
a(F0.30436360398063367
g92
tp627
a(F0.30388988463889155
g110
tp628
asg249
(lp629
(F0.4916824610774759
g247
tp630
a(F0.48165926147873794
g251
tp631
a(F0.4365093029601953
g253
tp632
a(F0.4128450280058103
g255
tp633
a(F0.3512922593714545
g102
tp634
asg3
(lp635
(F0.5931486641812583
g5
tp636
a(F0.5602845107722735
g7
tp637
a(F0.5570546571469402
g1
tp638
a(F0.5389058144444794
g9
tp639
a(F0.537394611533433
g11
tp640
asg33
(lp641
(F0.7239498126185716
g31
tp642
a(F0.5916737396780882
g35
tp643
a(F0.4224467027177407
g37
tp644
a(F0.4218738068168226
g39
tp645
a(F0.4021225469463212
g41
tp646
asg153
(lp647
(F0.3935225274115699
g442
tp648
a(F0.3917126291735443
g439
tp649
a(F0.38864156575981756
g437
tp650
a(F0.3470910637131157
g151
tp651
a(F0.32554409204262424
g149
tp652
asg124
(lp653
(F0.7053180639009731
g122
tp654
a(F0.3388387781142042
g3
tp655
a(F0.3108339144284782
g127
tp656
a(F0.3094623014628442
g5
tp657
asg516
(lp658
(F0.5539859508841282
g500
tp659
a(F0.5515490788590223
g514
tp660
a(F0.4250957899237873
g511
tp661
a(F0.3358136844790187
g133
tp662
a(F0.3247470127816619
g494
tp663
asg251
(lp664
(F0.48165926147873794
g249
tp665
a(F0.46276388102040394
g247
tp666
a(F0.4135652399617454
g253
tp667
a(F0.39226259326720214
g255
tp668
a(F0.32631053411177297
g102
tp669
asg388
(lp670
(F0.35105177750500294
g561
tp671
a(F0.3501061259197833
g508
tp672
a(F0.3291966766988909
S'begin'
p673
tp674
a(F0.30712562040069574
g386
tp675
asg94
(lp676
(F0.6012508512471371
g92
tp677
a(F0.5085859763292135
g96
tp678
a(F0.4952124337114155
g98
tp679
a(F0.4951487671912232
g100
tp680
a(F0.38294882697335336
g102
tp681
asg74
(lp682
(F0.7584728796038476
g76
tp683
a(F0.7227464128888275
g78
tp684
a(F0.6664480293917154
g80
tp685
a(F0.6027931933096391
g72
tp686
a(F0.5769204738562705
g82
tp687
asg110
(lp688
(F0.49117630222021186
g112
tp689
a(F0.43873934194764147
g114
tp690
a(F0.435126833056804
g106
tp691
a(F0.4115664155428129
g104
tp692
a(F0.40729014444870465
g108
tp693
asg114
(lp694
(F0.5700361422416996
g112
tp695
a(F0.45919506826857853
g373
tp696
a(F0.43873934194764147
g110
tp697
a(F0.386270643558271
g106
tp698
a(F0.36759037881214796
g104
tp699
asg112
(lp700
(F0.5700361422416996
g114
tp701
a(F0.5014410330206955
g373
tp702
a(F0.49117630222021186
g110
tp703
a(F0.4263429472000014
g106
tp704
a(F0.4036994042832616
g104
tp705
asg27
(lp706
(F0.6753999160076883
g293
tp707
a(F0.6705626427166615
g296
tp708
a(F0.5248327381571877
g21
tp709
a(F0.5134232909848319
g23
tp710
a(F0.5064889758698417
g25
tp711
asg162
(lp712
(F0.5834430134501198
g127
tp713
a(F0.5122928183902271
g157
tp714
a(F0.5042162173501816
g159
tp715
a(F0.47571960260021573
g164
tp716
a(F0.4726220095204838
g167
tp717
asg139
(lp718
(F0.6076132485629951
g133
tp719
a(F0.5846377346989374
g135
tp720
a(F0.5317036461343525
g137
tp721
a(F0.5265845341469967
g131
tp722
a(F0.445005718326472
g141
tp723
asS'fill'
p724
(lp725
(F0.30962882045707224
g52
tp726
asg260
(lp727
(F0.6338402939093123
g258
tp728
a(F0.5276038039492161
g262
tp729
a(F0.512906998101252
g264
tp730
a(F0.34806093560807966
g3
tp731
a(F0.32039918535714695
g5
tp732
asg500
(lp733
(F0.5856024462688552
g514
tp734
a(F0.5539859508841282
g516
tp735
a(F0.45049672999351525
g511
tp736
a(F0.3584002742002118
g133
tp737
a(F0.34582274431525634
g494
tp738
asg282
(lp739
(F0.7552427903508615
g284
tp740
a(F0.45490708814859127
g278
tp741
a(F0.3726623239801823
g274
tp742
a(F0.35962780770851305
g280
tp743
a(F0.3396921752848521
g276
tp744
asg80
(lp745
(F0.7016846344722283
g82
tp746
a(F0.6664480293917154
g74
tp747
a(F0.650651743258372
g76
tp748
a(F0.6187073220709768
g78
tp749
a(F0.5219393524286193
g200
tp750
asg41
(lp751
(F0.7372595311782508
g206
tp752
a(F0.6022348634602046
g37
tp753
a(F0.5288322860585196
g210
tp754
a(F0.4035847795929625
g39
tp755
a(F0.4021225469463212
g33
tp756
asS'note'
p757
(lp758
(F0.3510002725583965
g133
tp759
a(F0.3389280176529714
g494
tp760
a(F0.33639360987967665
g135
tp761
a(F0.3242363836109377
g500
tp762
a(F0.32275082484239803
g514
tp763
asg98
(lp764
(F0.5075174554862625
g92
tp765
a(F0.4952124337114155
g94
tp766
a(F0.4398674456691858
g96
tp767
a(F0.42978009513766197
g100
tp768
a(F0.31984903938187265
g102
tp769
asg514
(lp770
(F0.5856024462688552
g500
tp771
a(F0.5515490788590223
g516
tp772
a(F0.4484696409592773
g511
tp773
a(F0.35658603979191716
g133
tp774
a(F0.344133311227824
g494
tp775
asg673
(lp776
(F0.3291966766988909
g388
tp777
asg52
(lp778
(F0.5188900282900372
g50
tp779
a(F0.5116706829221093
g54
tp780
a(F0.4798729089948962
g56
tp781
a(F0.3454476705761012
g58
tp782
a(F0.3372803125552383
g60
tp783
asg439
(lp784
(F0.4317381242787054
g437
tp785
a(F0.3917126291735443
g153
tp786
a(F0.34380277063865705
g442
tp787
asg135
(lp788
(F0.7140327952570861
g133
tp789
a(F0.6164560669154502
g137
tp790
a(F0.6046890644450276
g131
tp791
a(F0.5846377346989374
g139
tp792
a(F0.5126411164601976
g141
tp793
asg35
(lp794
(F0.5916737396780882
g33
tp795
a(F0.4960485250374355
g31
tp796
a(F0.33045151309292703
g37
tp797
a(F0.3301008616494419
g39
tp798
a(F0.31788374297203
g41
tp799
asS'stay'
p800
(lp801
(F0.3587743428312006
g3
tp802
a(F0.3294552344342334
g5
tp803
a(F0.31709960239517904
g21
tp804
a(F0.31556265364289476
g7
tp805
a(F0.3141762617000755
g1
tp806
asg350
(lp807
(F0.5158667701458464
g200
tp808
a(F0.41762460661064005
g202
tp809
asg496
(lp810
(F0.5918941426558367
g494
tp811
a(F0.5389758838976073
g492
tp812
a(F0.35466160487113707
g133
tp813
a(F0.3397550953294925
g135
tp814
a(F0.3273581646883301
g500
tp815
asg217
(lp816
(F0.30023590134366857
g151
tp817
asg401
(lp818
(F0.7476043238523429
g397
tp819
a(F0.7404150519674034
g395
tp820
a(F0.7166137446249711
g399
tp821
a(F0.32935072029134904
g3
tp822
a(F0.3044767176461948
g5
tp823
asg609
(lp824
(F0.495751036445602
g607
tp825
asg397
(lp826
(F0.822720670081986
g395
tp827
a(F0.7934383140640663
g399
tp828
a(F0.7476043238523429
g401
tp829
a(F0.3751774506452041
g3
tp830
a(F0.34323546886782436
g5
tp831
asg494
(lp832
(F0.5918941426558367
g496
tp833
a(F0.5678479916653538
g492
tp834
a(F0.37643716652036957
g133
tp835
a(F0.35968722415952203
g135
tp836
a(F0.34582274431525634
g500
tp837
as.