(dp0
S'sector'
p1
(lp2
(F0.7225137670823246
S'circle'
p3
tp4
a(F0.47905593878512004
S'opening'
p5
tp6
a(F0.445935370900811
S'hole'
p7
tp8
a(F0.43628831059450424
S'cell'
p9
tp10
a(F0.43559264328711766
S'turn'
p11
tp12
asS'coach'
p13
(lp14
(F0.6179323239973314
S'chief'
p15
tp16
a(F0.5849843083425161
S'politician'
p17
tp18
a(F0.5659701089144288
S'executive'
p19
tp20
a(F0.562884236791456
S'chairman'
p21
tp22
a(F0.5424099114491975
S'manager'
p23
tp24
asS'truck'
p25
(lp26
(F0.8944555662725954
S'car'
p27
tp28
a(F0.7869434554516219
S'vehicle'
p29
tp30
a(F0.7038767551724847
S'ship'
p31
tp32
a(F0.6860781563249521
S'boat'
p33
tp34
a(F0.6847761283504769
S'tank'
p35
tp36
asS'chain'
p37
(lp38
(F0.7394057300924809
S'series'
p39
tp40
a(F0.6709689241146719
S'sentence'
p41
tp42
a(F0.6081949469300924
S'table'
p43
tp44
a(F0.6075980475880884
S'line'
p45
tp46
a(F0.5722688200393744
S'row'
p47
tp48
asS'affair'
p49
(lp50
(F1.0
S'matter'
p51
tp52
a(F0.921539663371382
S'concern'
p53
tp54
a(F0.9211881796351096
S'interest'
p55
tp56
a(F0.7551692316096594
S'doubt'
p57
tp58
a(F0.7216544976628294
S'confidence'
p59
tp60
asS'dance'
p61
(lp62
(F0.7757957385566254
S'painting'
p63
tp64
a(F0.571799866922819
S'art'
p65
tp66
a(F0.5667486116707697
S'article'
p67
tp68
a(F0.56623202199762
S'photograph'
p69
tp70
a(F0.56623202199762
S'photo'
p71
tp72
asg39
(lp73
(F0.8668480719106516
g41
tp74
a(F0.7842011175977867
g43
tp75
a(F0.7832090367409926
g45
tp76
a(F0.7394057300924809
g37
tp77
a(F0.7254767356238813
g47
tp78
asS'lack'
p79
(lp80
(F0.8196198898442562
S'press'
p81
tp82
a(F0.6065803046747946
S'need'
p83
tp84
a(F0.5990318619959184
g55
tp85
a(F0.5969995744617422
S'disease'
p86
tp87
a(F0.5917993096429788
g53
tp88
asS'focus'
p89
(lp90
(F0.7239498126185716
S'will'
p91
tp92
a(F0.6310693908914525
S'faculty'
p93
tp94
a(F0.5950107528139948
S'method'
p95
tp96
a(F0.5501072799915283
S'character'
p97
tp98
a(F0.5437006784267631
S'intelligence'
p99
tp100
asS'month'
p101
(lp102
(F0.8010694722468383
S'period'
p103
tp104
a(F0.6593170198780934
S'evening'
p105
tp106
a(F0.6046574170356518
S'year'
p107
tp108
a(F0.5774076267323986
S'era'
p109
tp110
a(F0.5691176414546825
S'temperature'
p111
tp112
asg23
(lp113
(F1.0
S'director'
p114
tp115
a(F0.8755217462319297
g19
tp116
a(F0.8242907738798414
S'president'
p117
tp118
a(F0.7522264817471712
S'secretary'
p119
tp120
a(F0.6189282390589184
g15
tp121
asS'concept'
p122
(lp123
(F0.8014307446941195
S'thought'
p124
tp125
a(F0.8014307446941195
S'idea'
p126
tp127
a(F0.7647072773622363
S'sort'
p128
tp129
a(F0.7647072773622363
S'kind'
p130
tp131
a(F0.7553140030337475
S'program'
p132
tp133
asS'sleep'
p134
(lp135
(F0.6793938953698577
g86
tp136
a(F0.6388430288279884
S'injury'
p137
tp138
a(F0.5579591701454499
S'cancer'
p139
tp140
a(F0.5427536754560437
S'AIDS'
p141
tp142
a(F0.5243179719262946
g83
tp143
asS'skin'
p144
(lp145
(F0.8775864099038609
S'bone'
p146
tp147
a(F0.8296254619205752
S'hair'
p148
tp149
a(F0.8224369339896256
S'tooth'
p150
tp151
a(F0.5398687152727242
S'hand'
p152
tp153
a(F0.5089297231750731
S'eye'
p154
tp155
asS'dish'
p156
(lp157
(F0.8693422106358634
S'cup'
p158
tp159
a(F0.6654573867249164
g27
tp160
a(F0.6280226089560325
g25
tp161
a(F0.6045956562797399
S'box'
p162
tp163
a(F0.5957606534734438
S'bottle'
p164
tp165
asS'shot'
p166
(lp167
(F0.7258162367051045
S'drive'
p168
tp169
a(F0.4104745324895366
S'activity'
p170
tp171
a(F0.3919541470138808
S'action'
p172
tp173
a(F0.36027976149958674
S'work'
p174
tp175
a(F0.3354711797045918
S'job'
p176
tp177
asS'chair'
p178
(lp179
(F0.7503429008301038
S'bed'
p180
tp181
a(F0.7220432080066179
S'desk'
p182
tp183
a(F0.4890696573893182
S'device'
p184
tp185
a(F0.44893407409411706
g29
tp186
a(F0.44881191157491274
S'equipment'
p187
tp188
asS'milk'
p189
(lp190
(F0.8585087060735703
S'cheese'
p191
tp192
a(F0.7082280950260457
S'bread'
p193
tp194
a(F0.6814268789075403
S'wine'
p195
tp196
a(F0.6570502605919426
S'beer'
p197
tp198
a(F0.6499239471575131
S'sugar'
p199
tp200
asg47
(lp201
(F0.8038048701678123
g45
tp202
a(F0.7532628510093504
S'column'
p203
tp204
a(F0.731339656086801
S'flight'
p205
tp206
a(F0.7254767356238813
g39
tp207
a(F0.6512720336245026
g41
tp208
asS'content'
p209
(lp210
(F0.6185952299938395
S'class'
p211
tp212
a(F0.6185952299938395
S'category'
p213
tp214
a(F0.578596364397825
S'set'
p215
tp216
a(F0.5596661729162639
S'data'
p217
tp218
a(F0.5549416624207312
S'law'
p219
tp220
asS'apartment'
p221
(lp222
(F0.8496693494724977
S'house'
p223
tp224
a(F0.7285922934834247
S'camp'
p225
tp226
a(F0.6008513189451785
S'room'
p227
tp228
a(F0.5977321903481877
S'building'
p229
tp230
a(F0.5383226384545754
S'works'
p231
tp232
asS'zone'
p233
(lp234
(F0.6446051886344558
S'position'
p235
tp236
a(F0.6381932595749543
S'spot'
p237
tp238
a(F0.6381932595749543
S'place'
p239
tp240
a(F0.6055915893110733
S'farm'
p241
tp242
a(F0.6001257098630722
S'source'
p243
tp244
asS'assessment'
p245
(lp246
(F0.9523962555045051
S'rating'
p247
tp248
a(F0.9033146935105393
S'score'
p249
tp250
a(F0.8665523322734112
S'review'
p251
tp252
a(F0.6937186406795616
S'learning'
p253
tp254
a(F0.6886752200929113
S'attention'
p255
tp256
asS'technique'
p257
(lp258
(F0.829582275150826
g95
tp259
a(F0.6733888644485114
g93
tp260
a(F0.645255617832233
g91
tp261
a(F0.5819903696923224
g97
tp262
a(F0.5748244574598367
g99
tp263
asS'father'
p264
(lp265
(F0.9304489598134645
S'parent'
p266
tp267
a(F0.8901911403328263
S'mother'
p268
tp269
a(F0.8491331561830351
S'dad'
p270
tp271
a(F0.810378190748005
S'mom'
p272
tp273
a(F0.7169526851463575
S'partner'
p274
tp275
asS'nose'
p276
(lp277
(F0.8785440784219454
g154
tp278
a(F0.7972126835275428
S'ear'
p279
tp280
a(F0.6743646248574121
S'muscle'
p281
tp282
a(F0.640381875680283
S'lip'
p283
tp284
a(F0.6296307612040832
S'wing'
p285
tp286
asS'environment'
p287
(lp288
(F0.7924830692651061
S'thing'
p289
tp290
a(F0.7428797674867704
S'balance'
p291
tp292
a(F0.7076286595357172
S'challenge'
p293
tp294
a(F0.5824175889925362
S'condition'
p295
tp296
a(F0.5486007672890832
S'feeling'
p297
tp298
asS'charge'
p299
(lp300
(F0.7871173214705074
S'attack'
p301
tp302
a(F0.42375701049961084
g174
tp303
a(F0.3981299963742934
g176
tp304
a(F0.395542487224112
S'creation'
p305
tp306
a(F0.393173753075921
S'effort'
p307
tp308
asg132
(lp309
(F1.0
S'plan'
p310
tp311
a(F0.7553140030337475
g122
tp312
a(F0.6422456089895623
g124
tp313
a(F0.6422456089895623
g126
tp314
a(F0.6394116975267736
g128
tp315
asS'text'
p316
(lp317
(F0.9014154360143516
S'letter'
p318
tp319
a(F0.767227746489307
S'title'
p320
tp321
a(F0.7384405132505738
S'document'
p322
tp323
a(F0.6610512368534583
S'section'
p324
tp325
a(F0.6319628722720675
S'option'
p326
tp327
asS'smile'
p328
(lp329
(F0.8276785223262836
S'motion'
p330
tp331
a(F0.7465616592185459
S'figure'
p332
tp333
a(F0.7151986343581053
S'video'
p334
tp335
a(F0.43870308503346966
S'signal'
p336
tp337
a(F0.42919638227180346
S'statement'
p338
tp339
asS'ride'
p340
(lp341
(F0.7956938038031224
S'trip'
p342
tp343
a(F0.7520858947508535
S'tour'
p344
tp345
a(F0.6482242272215886
S'travel'
p346
tp347
a(F0.5265598640396357
S'movement'
p348
tp349
a(F0.5036181916543108
S'achievement'
p350
tp351
asS'division'
p352
(lp353
(F0.717867419786897
S'troop'
p354
tp355
a(F0.6876650083105966
S'enemy'
p356
tp357
a(F0.5722044348031282
S'department'
p358
tp359
a(F0.5579755686432357
S'agency'
p360
tp361
a(F0.5489827602164746
S'nation'
p362
tp363
asS'woman'
p364
(lp365
(F0.8646461250847365
S'wife'
p366
tp367
a(F0.848819958439117
S'girl'
p368
tp369
a(F0.8135661736020644
S'daughter'
p370
tp371
a(F0.7729207377701456
S'man'
p372
tp373
a(F0.7339626757919269
S'lady'
p374
tp375
asS'risk'
p376
(lp377
(F0.8898026768431843
S'threat'
p378
tp379
a(F0.3551874188013372
S'person'
p380
tp381
a(F0.3551874188013372
S'individual'
p382
tp383
asS'advantage'
p384
(lp385
(F0.8809781500654472
S'aid'
p386
tp387
a(F0.7398134510729156
S'lead'
p388
tp389
a(F0.6207522269503313
S'appearance'
p390
tp391
a(F0.598154224478147
S'asset'
p392
tp393
a(F0.587108505941689
S'power'
p394
tp395
asS'song'
p396
(lp397
(F0.7768983539805909
g324
tp398
a(F0.7524715310472055
S'music'
p399
tp400
a(F0.6544534473643184
S'conversation'
p401
tp402
a(F0.638027154612402
S'talk'
p403
tp404
a(F0.5983599669659844
S'session'
p405
tp406
asS'rise'
p407
(lp408
(F0.781385742252578
S'start'
p409
tp410
a(F0.7698272163155556
S'cause'
p411
tp412
a(F0.7426203442710267
S'factor'
p413
tp414
a(F0.5421665370230754
S'change'
p415
tp416
a(F0.5124274717367602
S'beginning'
p417
tp418
asS'fat'
p419
(lp420
(F0.9125539319327549
S'oil'
p421
tp422
a(F0.5297833153093715
S'river'
p423
tp424
a(F0.5042855481166155
g152
tp425
a(F0.4834598879635012
g146
tp426
a(F0.47828788793966376
S'ocean'
p427
tp428
asS'choice'
p429
(lp430
(F0.8721377083937984
S'alternative'
p431
tp432
a(F0.7053214021416186
S'thinking'
p433
tp434
a(F0.6331601993239842
S'understanding'
p435
tp436
a(F0.5701705621103492
g253
tp437
a(F0.5660096780956337
S'reading'
p438
tp439
asS'fan'
p440
(lp441
(F0.5279290503284966
S'instrument'
p442
tp443
a(F0.5123905847453165
S'weapon'
p444
tp445
a(F0.5018773770667336
S'machine'
p446
tp447
a(F0.4871160661265879
S'gun'
p448
tp449
a(F0.46214630137885215
g184
tp450
asS'fall'
p451
(lp452
(F0.820111841279663
S'winter'
p453
tp454
a(F0.8177351733482071
S'summer'
p455
tp456
a(F0.7714870973075931
S'spring'
p457
tp458
a(F0.5703188453272343
g103
tp459
a(F0.5072474744280343
g101
tp460
asg17
(lp461
(F0.6749826198500364
g15
tp462
a(F0.6134603518579063
g19
tp463
a(F0.6098365429547227
g21
tp464
a(F0.5858767741513558
g23
tp465
a(F0.5858767741513558
g114
tp466
asS'trouble'
p467
(lp468
(F0.4703508706597468
g124
tp469
a(F0.4703508706597468
g126
tp470
a(F0.45944860068793625
g122
tp471
a(F0.43586267517641636
S'belief'
p472
tp473
a(F0.416131922576286
g433
tp474
asS'difference'
p475
(lp476
(F0.5888862735902024
g390
tp477
a(F0.568510753340236
g392
tp478
a(F0.5585235792113853
g394
tp479
a(F0.5503473952302534
g384
tp480
a(F0.5376369215982986
S'importance'
p481
tp482
asg295
(lp483
(F0.6982811109091713
g297
tp484
a(F0.6760124011013668
S'being'
p485
tp486
a(F0.6708818670273307
S'status'
p487
tp488
a(F0.6375993962106948
S'opportunity'
p489
tp490
a(F0.6375993962106948
S'chance'
p491
tp492
asS'school'
p493
(lp494
(F0.7774342752839886
S'church'
p495
tp496
a(F0.770679968317305
S'company'
p497
tp498
a(F0.6105682113784259
S'organization'
p499
tp500
a(F0.6029113813631439
S'institution'
p501
tp502
a(F0.5829239047427168
g358
tp503
asS'scholar'
p504
(lp505
(F0.7680771352043804
S'graduate'
p506
tp507
a(F0.7139371057389624
S'reader'
p508
tp509
a(F0.4844127402573891
g380
tp510
a(F0.4844127402573891
g382
tp511
a(F0.39396193060188456
S'worker'
p512
tp513
asS'cable'
p514
(lp515
(F0.32675221544507554
g336
tp516
a(F0.3214490657895766
g338
tp517
a(F0.3196781139699382
g322
tp518
a(F0.31369914521597636
g399
tp519
a(F0.31215711078898994
S'language'
p520
tp521
asS'level'
p522
(lp523
(F1.0
S'degree'
p524
tp525
a(F0.6043416228987067
S'strength'
p526
tp527
a(F0.5934461721994013
S'color'
p528
tp529
a(F0.5764878987095932
S'age'
p530
tp531
a(F0.5656598494310664
S'way'
p532
tp533
asS'tear'
p534
(lp535
(F0.6191414307330381
S'drink'
p536
tp537
a(F0.5829826197854083
S'bit'
p538
tp539
a(F0.5362661896185188
S'lot'
p540
tp541
a(F0.5263019983616148
S'increase'
p542
tp543
a(F0.5098275368281799
S'supply'
p544
tp545
asS'gender'
p546
(lp547
(F0.6446257574807472
g211
tp548
a(F0.6446257574807472
g213
tp549
a(F0.6013076205467153
g215
tp550
a(F0.5808883772873256
g217
tp551
a(F0.5758004009956341
g219
tp552
asS'list'
p553
(lp554
(F0.7450368698776124
S'news'
p555
tp556
a(F0.7333441094337042
S'curriculum'
p557
tp558
a(F0.7037403848176612
S'secret'
p559
tp560
a(F0.6487611633277937
g338
tp561
a(F0.6096149342421352
S'information'
p562
tp563
asS'brother'
p564
(lp565
(F0.6489423877949619
g274
tp566
a(F0.6323509436705459
g266
tp567
a(F0.6297296373067774
g366
tp568
a(F0.622112615006812
S'son'
p569
tp570
a(F0.6074202694289181
g268
tp571
asS'item'
p572
(lp573
(F0.4999916382097789
S'metal'
p574
tp575
a(F0.49269587822460137
S'stuff'
p576
tp577
a(F0.49269587822460137
S'material'
p578
tp579
a(F0.48186655529371764
S'part'
p580
tp581
a(F0.4565533950397861
S'paper'
p582
tp583
asS'race'
p584
(lp585
(F0.7113673186857049
S'campaign'
p586
tp587
a(F0.6435082725089416
S'performance'
p588
tp589
a(F0.6417697550437275
S'movie'
p590
tp591
a(F0.6417697550437275
S'film'
p592
tp593
a(F0.35343549887753556
g170
tp594
asS'team'
p595
(lp596
(F0.7151874542102354
g358
tp597
a(F0.6930963516610126
g360
tp598
a(F0.6792746825181492
g362
tp599
a(F0.6792746825181492
S'country'
p600
tp601
a(F0.6606062944442115
S'committee'
p602
tp603
asS'guy'
p604
(lp605
(F0.7084016757367071
g372
tp606
a(F0.6868269629825443
S'sir'
p607
tp608
a(F0.6727227342840321
g569
tp609
a(F0.6374723281541451
S'boy'
p610
tp611
a(F0.614112239723344
g364
tp612
asg293
(lp613
(F0.7076286595357172
g287
tp614
a(F0.6325361871404425
g289
tp615
a(F0.6005308251478364
g291
tp616
a(F0.42887628720834736
g295
tp617
a(F0.41025425705025576
g297
tp618
asS'clothes'
p619
(lp620
(F0.704552710694622
S'hat'
p621
tp622
a(F0.6991728776513605
S'dress'
p623
tp624
a(F0.6771166207419786
S'shirt'
p625
tp626
a(F0.6354456726015034
S'suit'
p627
tp628
a(F0.6226223337024053
S'tie'
p629
tp630
asS'force'
p631
(lp632
(F0.8102079572098031
S'influence'
p633
tp634
a(F0.8085135364547245
S'control'
p635
tp636
a(F0.7827082308068287
S'authority'
p637
tp638
a(F0.5539182577003956
g390
tp639
a(F0.5358535723372511
g392
tp640
asS'core'
p641
(lp642
(F0.7198530395536472
S'pair'
p643
tp644
a(F0.6203492120554489
g211
tp645
a(F0.6203492120554489
g213
tp646
a(F0.58013057082558
g215
tp647
a(F0.5611015064739563
g217
tp648
asS'trend'
p649
(lp650
(F0.8453757488521288
S'direction'
p651
tp652
a(F0.7944401679067216
S'route'
p653
tp654
a(F0.7350684668899637
S'track'
p655
tp656
a(F0.6816060457688466
S'trail'
p657
tp658
a(F0.41305039895461315
S'district'
p659
tp660
asg390
(lp661
(F0.6439580185755377
g392
tp662
a(F0.6311739512748126
g394
tp663
a(F0.6207522269503313
g384
tp664
a(F0.6046293245182667
g481
tp665
a(F0.5912093717562743
S'ability'
p666
tp667
asS'welfare'
p668
(lp669
(F0.8217937610183617
S'gift'
p670
tp671
a(F0.6980254000097909
S'cost'
p672
tp673
a(F0.6816929151386161
S'payment'
p674
tp675
a(F0.5743145982054119
S'amount'
p676
tp677
a(F0.5716315914698342
S'fee'
p678
tp679
asS'request'
p680
(lp681
(F0.6322849306421682
g338
tp682
a(F0.5950447361322252
g562
tp683
a(F0.5505758922689623
S'meaning'
p684
tp685
a(F0.5456797275030809
S'agreement'
p686
tp687
a(F0.5448737610211356
S'explanation'
p688
tp689
asS'sign'
p690
(lp691
(F0.7491837659016793
S'record'
p692
tp693
a(F0.716827057710491
S'account'
p694
tp695
a(F0.689539748690043
S'argument'
p696
tp697
a(F0.671930216579673
S'note'
p698
tp699
a(F0.648993612453075
S'file'
p700
tp701
asS'past'
p702
(lp703
(F0.6792264427254776
S'future'
p704
tp705
a(F0.6500799025254218
S'history'
p706
tp707
a(F0.45253593861459845
S'quality'
p708
tp709
a(F0.4427528111596395
g295
tp710
a(F0.41610706664983355
g297
tp711
asS'battle'
p712
(lp713
(F1.0
S'fight'
p714
tp715
a(F0.8673127906203446
S'war'
p716
tp717
a(F0.7799413924503213
S'defense'
p718
tp719
a(F0.6045052890647086
S'management'
p720
tp721
a(F0.5993860548145774
S'conflict'
p722
tp723
asS'rate'
p724
(lp725
(F0.8136076806506105
S'speed'
p726
tp727
a(F0.8128473182913474
S'percentage'
p728
tp729
a(F0.5397017525446022
g580
tp730
a(F0.48844790285440626
g574
tp731
a(F0.480558885785867
g576
tp732
asS'street'
p733
(lp734
(F0.7741916497965166
S'road'
p735
tp736
a(F0.6340018531965292
S'hall'
p737
tp738
a(F0.4013293503074475
S'structure'
p739
tp740
a(F0.39716976369880647
g184
tp741
a(F0.3613699296824214
g29
tp742
asS'design'
p743
(lp744
(F0.729505278413662
S'approach'
p745
tp746
a(F0.715150180562537
S'writing'
p747
tp748
a(F0.7020860064480617
S'construction'
p749
tp750
a(F0.47986516127233586
g174
tp751
a(F0.4472635587578669
g176
tp752
asS'perspective'
p753
(lp754
(F1.0
S'view'
p755
tp756
a(F0.7789747564646742
S'democracy'
p757
tp758
a(F0.4336502077821841
g124
tp759
a(F0.4336502077821841
g126
tp760
a(F0.4243661394250609
g122
tp761
asS'lawyer'
p762
(lp763
(F1.0
S'attorney'
p764
tp765
a(F0.7987589106061196
S'physician'
p766
tp767
a(F0.7987589106061196
S'doctor'
p768
tp769
a(F0.7599649672403794
S'teacher'
p770
tp771
a(F0.73633295644146
S'professor'
p772
tp773
asS'corner'
p774
(lp775
(F0.6418057349744078
S'middle'
p776
tp777
a(F0.6418057349744078
S'center'
p778
tp779
a(F0.5512374524762437
S'scene'
p780
tp781
a(F0.5489445716424166
S'neighborhood'
p782
tp783
a(F0.5221248729565777
S'seat'
p784
tp785
asg747
(lp786
(F0.715150180562537
g743
tp787
a(F0.7049797578306155
g745
tp788
a(F0.6777348155998396
g749
tp789
a(F0.45912984803706486
g174
tp790
a(F0.42919697576005167
g176
tp791
asS'investment'
p792
(lp793
(F0.5848886996503214
S'trade'
p794
tp795
a(F0.5813613898208357
S'deal'
p796
tp797
a(F0.5154041506168688
g720
tp798
a(F0.5116781489412813
g722
tp799
a(F0.5018906296097279
S'responsibility'
p800
tp801
asS'folk'
p802
(lp803
(F0.5876904788744378
S'public'
p804
tp805
a(F0.5228079541887177
S'labor'
p806
tp807
a(F0.5208225003076264
S'population'
p808
tp809
a(F0.5201139783063365
S'generation'
p810
tp811
a(F0.4899987565899037
S'cream'
p812
tp813
asS'theory'
p814
(lp815
(F0.661592023727534
g433
tp816
a(F0.6199532929877462
S'test'
p817
tp818
a(F0.6032616770650988
S'investigation'
p819
tp820
a(F0.6018654732604001
g431
tp821
a(F0.5976960170641963
g435
tp822
asg578
(lp823
(F1.0
g576
tp824
a(F0.7698466674483063
g574
tp825
a(F0.6760936395339765
g582
tp826
a(F0.6696262721772185
S'card'
p827
tp828
a(F0.628223344566361
S'name'
p829
tp830
asg394
(lp831
(F0.6311739512748126
g390
tp832
a(F0.6078250601480105
g392
tp833
a(F0.587108505941689
g384
tp834
a(F0.5726655799444476
g481
tp835
a(F0.5606128724497275
g666
tp836
asS'sun'
p837
(lp838
(F0.8099808608166325
S'planet'
p839
tp840
a(F0.7879398391428786
S'earth'
p841
tp842
a(F0.7850639059614851
S'star'
p843
tp844
a(F0.6084241877139254
S'body'
p845
tp846
a(F0.6070550830732385
S'fruit'
p847
tp848
asg324
(lp849
(F0.7768983539805909
g396
tp850
a(F0.7661989403628829
g322
tp851
a(F0.6610512368534583
g316
tp852
a(F0.6521837176218026
g326
tp853
a(F0.6206276722432469
S'contract'
p854
tp855
asg9
(lp856
(F0.572178737804497
g5
tp857
a(F0.5291751960689693
g7
tp858
a(F0.4939015763290549
S'sheet'
p859
tp860
a(F0.47256903844488984
g11
tp861
a(F0.4701170506795864
g3
tp862
asS'version'
p863
(lp864
(F0.6953400153148959
S'definition'
p865
tp866
a(F0.572194212472478
g686
tp867
a(F0.571489622024835
g688
tp868
a(F0.547403850280987
S'comment'
p869
tp870
a(F0.54645632402406
g854
tp871
asS'capital'
p872
(lp873
(F0.6857684669322384
g676
tp874
a(F0.6692387290096546
S'income'
p875
tp876
a(F0.6517230789902475
S'share'
p877
tp878
a(F0.6256603721855597
S'profit'
p879
tp880
a(F0.6246133295676805
S'resource'
p881
tp882
asS'nurse'
p883
(lp884
(F0.8233949505926211
g766
tp885
a(F0.8233949505926211
g768
tp886
a(F0.6768957999779964
g762
tp887
a(F0.6768957999779964
g764
tp888
a(F0.6578443428532662
g770
tp889
asS'appeal'
p890
(lp891
(F0.7838912733739668
S'question'
p892
tp893
a(F0.7363211771431738
S'interview'
p894
tp895
a(F0.6027609328486032
S'speech'
p896
tp897
a(F0.5777329937850729
S'promise'
p898
tp899
a(F0.565813878340511
S'order'
p900
tp901
asg804
(lp902
(F0.60495934244702
g806
tp903
a(F0.6023024821444246
g808
tp904
a(F0.6013551315085922
g810
tp905
a(F0.5876904788744378
g802
tp906
a(F0.5614580699507931
g812
tp907
asS'exercise'
p908
(lp909
(F0.8509946193813206
S'difficulty'
p910
tp911
a(F0.7024654886623595
S'task'
p912
tp913
a(F0.7024654886623595
S'project'
p914
tp915
a(F0.6567320959954525
S'care'
p916
tp917
a(F0.6496242989016625
S'role'
p918
tp919
asg348
(lp920
(F0.6432130538162179
g346
tp921
a(F0.6129286588753491
g350
tp922
a(F0.5682398335701094
S'murder'
p923
tp924
a(F0.5626304741647228
S'development'
p925
tp926
a(F0.5492748718744065
S'decision'
p927
tp928
asg845
(lp929
(F0.7156815508398712
g847
tp930
a(F0.6943649474581689
g148
tp931
a(F0.6936212551173419
S'world'
p932
tp933
a(F0.6888139239733663
g839
tp934
a(F0.6669444496853744
g841
tp935
asg686
(lp936
(F0.7136726859335475
g688
tp937
a(F0.6765010300498083
g869
tp938
a(F0.6750544741142152
g854
tp939
a(F0.6626630509912669
g338
tp940
a(F0.6421233492990769
S'answer'
p941
tp942
asS'jury'
p943
(lp944
(F0.6667914549159005
S'college'
p945
tp946
a(F0.6578591060862319
S'university'
p947
tp948
a(F0.5156037609722843
g499
tp949
a(F0.449679029854221
g501
tp950
a(F0.43673542750436517
g358
tp951
asg524
(lp952
(F1.0
g522
tp953
a(F0.6043416228987067
g526
tp954
a(F0.5934461721994013
g528
tp955
a(F0.5764878987095932
g530
tp956
a(F0.5656598494310664
g532
tp957
asS'exchange'
p958
(lp959
(F0.7094352576318779
S'gas'
p960
tp961
a(F0.6029267352065512
S'weather'
p962
tp963
a(F0.5988457368194771
S'energy'
p964
tp965
a(F0.5740269885306297
S'result'
p966
tp967
a(F0.5740269885306297
S'effect'
p968
tp969
asS'component'
p970
(lp971
(F1.0
S'element'
p972
tp973
a(F0.7538105190363502
S'point'
p974
tp975
a(F0.6431915359257214
g122
tp976
a(F0.5949106298300755
g128
tp977
a(F0.5949106298300755
g130
tp978
asg435
(lp979
(F0.7557916032130543
g433
tp980
a(F0.7265962676186759
S'sense'
p981
tp982
a(F0.6788352959944332
g431
tp983
a(F0.6331601993239842
g429
tp984
a(F0.6061026513195603
g253
tp985
asS'water'
p986
(lp987
(F0.6891181557453679
S'salt'
p988
tp989
a(F0.6879290426204853
g421
tp990
a(F0.682448258966314
g419
tp991
a(F0.6417305277837844
g582
tp992
a(F0.6373276693735412
g827
tp993
asS'newspaper'
p994
(lp995
(F0.846231475539359
S'magazine'
p996
tp997
a(F0.8059908985617767
S'television'
p998
tp999
a(F0.8059908985617767
S'TV'
p1000
tp1001
a(F0.8020561612153329
S'radio'
p1002
tp1003
a(F0.7912893824006934
S'call'
p1004
tp1005
asS'protection'
p1006
(lp1007
(F0.5218661472214609
g174
tp1008
a(F0.4835357003656237
g176
tp1009
a(F0.4797243039605716
g305
tp1010
a(F0.476244455619988
g307
tp1011
a(F0.476244455619988
S'attempt'
p1012
tp1013
asS'baseball'
p1014
(lp1015
(F0.900742547597462
S'football'
p1016
tp1017
a(F0.8850057739163742
S'golf'
p1018
tp1019
a(F0.7880207258148085
S'basketball'
p1020
tp1021
a(F0.7324328307602456
S'fishing'
p1022
tp1023
a(F0.7044744706544919
S'show'
p1024
tp1025
asS'Ms'
p1026
(lp1027
(F0.658177673395332
g86
tp1028
a(F0.6236611799442198
g137
tp1029
a(F0.5532004711877826
g139
tp1030
a(F0.5397081294021356
g141
tp1031
a(F0.5197279520092655
g134
tp1032
asS'address'
p1033
(lp1034
(F0.8291212282890705
S'software'
p1035
tp1036
a(F0.58405160309235
g322
tp1037
a(F0.5323317972358
g324
tp1038
a(F0.5181329043801917
g316
tp1039
a(F0.5124030569334884
g326
tp1040
asS'path'
p1041
(lp1042
(F0.5383036235044191
g350
tp1043
a(F0.5252268743837191
g346
tp1044
a(F0.520424608010265
g348
tp1045
a(F0.48857742219267086
g927
tp1046
a(F0.470828421702762
S'move'
p1047
tp1048
asS'principle'
p1049
(lp1050
(F0.6129140234105601
g122
tp1051
a(F0.5343207212589894
g128
tp1052
a(F0.5343207212589894
g130
tp1053
a(F0.5297177234610193
g132
tp1054
a(F0.5297177234610193
g310
tp1055
asS'respect'
p1056
(lp1057
(F0.7516234128542345
S'detail'
p1058
tp1059
a(F0.6993217473898261
S'truth'
p1060
tp1061
a(F0.6368715205764958
S'evidence'
p1062
tp1063
a(F0.636697991768597
S'fact'
p1064
tp1065
a(F0.6189202503543991
S'average'
p1066
tp1067
asg770
(lp1068
(F0.8253712407549683
g772
tp1069
a(F0.7723639543037186
g766
tp1070
a(F0.7723639543037186
g768
tp1071
a(F0.7599649672403794
g762
tp1072
a(F0.7599649672403794
g764
tp1073
asg415
(lp1074
(F0.657812764926438
g417
tp1075
a(F0.6441499171179098
S'outcome'
p1076
tp1077
a(F0.634516715193303
S'case'
p1078
tp1079
a(F0.6333883649183839
S'noise'
p1080
tp1081
a(F0.6290788211968202
S'death'
p1082
tp1083
asS'knowledge'
p1084
(lp1085
(F0.7000026717884039
S'event'
p1086
tp1087
a(F0.5673470789174863
g170
tp1088
a(F0.5187671175101648
g172
tp1089
a(F0.5058704778837673
g124
tp1090
a(F0.5058704778837673
g126
tp1091
asg162
(lp1092
(F0.6672013130553557
g27
tp1093
a(F0.6295756186691819
g25
tp1094
a(F0.6045956562797399
g156
tp1095
a(F0.5971580256222063
g164
tp1096
a(F0.5923198407328146
S'bag'
p1097
tp1098
asg610
(lp1099
(F0.7754964555915279
g372
tp1100
a(F0.7329419385362672
g569
tp1101
a(F0.6550279848234613
g607
tp1102
a(F0.6374723281541451
g604
tp1103
a(F0.3893654282662687
g380
tp1104
asS'search'
p1105
(lp1106
(F0.5128512292483793
g174
tp1107
a(F0.47578658739513413
g176
tp1108
a(F0.4720959082946219
g305
tp1109
a(F0.46872546174164875
g307
tp1110
a(F0.46872546174164875
g1012
tp1111
asS'property'
p1112
(lp1113
(F0.7108457725767825
g672
tp1114
a(F0.6911450465150216
g674
tp1115
a(F0.6782906798028147
g676
tp1116
a(F0.6586974371068817
g875
tp1117
a(F0.63814402741267
g877
tp1118
asg370
(lp1119
(F0.8561496635740712
g569
tp1120
a(F0.8135661736020644
g364
tp1121
a(F0.7509054767196474
S'baby'
p1122
tp1123
a(F0.7458500514749375
g366
tp1124
a(F0.7340442488912292
g368
tp1125
asS'study'
p1126
(lp1127
(F1.0
S'survey'
p1128
tp1129
a(F0.7585885958695291
S'research'
p1130
tp1131
a(F0.719979047142404
S'experiment'
p1132
tp1133
a(F0.7101956772830035
S'analysis'
p1134
tp1135
a(F0.6450605777878505
g912
tp1136
asS'step'
p1137
(lp1138
(F1.0
S'measure'
p1139
tp1140
a(F0.8798654949207018
g1047
tp1141
a(F0.8284783585851503
g927
tp1142
a(F0.7598647659241161
S'vote'
p1143
tp1144
a(F0.514063952860791
g350
tp1145
asS'experience'
p1146
(lp1147
(F0.5404438334983551
g124
tp1148
a(F0.5404438334983551
g126
tp1149
a(F0.5287681581957159
g122
tp1150
a(F0.5033797514447103
g472
tp1151
a(F0.47111101761426044
S'goal'
p1152
tp1153
asS'engine'
p1154
(lp1155
(F0.7638283636958881
S'computer'
p1156
tp1157
a(F0.5701025240445964
g442
tp1158
a(F0.5520248310781982
g444
tp1159
a(F0.5398416284443901
g446
tp1160
a(F0.5228005429195912
g448
tp1161
asS'trial'
p1162
(lp1163
(F0.7355234406686945
S'contribution'
p1164
tp1165
a(F0.703637978001253
S'struggle'
p1166
tp1167
a(F0.48762911478809423
g174
tp1168
a(F0.45400099073165995
g176
tp1169
a(F0.45063936176033403
g305
tp1170
asg676
(lp1171
(F0.853107553511927
g875
tp1172
a(F0.824848345420368
g877
tp1173
a(F0.7835386221909341
g879
tp1174
a(F0.7818971840520536
g881
tp1175
a(F0.7599621084695399
g672
tp1176
asg1128
(lp1177
(F1.0
g1126
tp1178
a(F0.7585885958695291
g1130
tp1179
a(F0.719979047142404
g1132
tp1180
a(F0.7101956772830035
g1134
tp1181
a(F0.6450605777878505
g912
tp1182
asg172
(lp1183
(F0.6819372518364331
g170
tp1184
a(F0.5654167642238882
g1086
tp1185
a(F0.5537630114146775
g174
tp1186
a(F0.5187671175101648
g1084
tp1187
a(F0.497243322943168
g176
tp1188
asS'opinion'
p1189
(lp1190
(F0.6744269872808527
S'religion'
p1191
tp1192
a(F0.6744269872808527
S'faith'
p1193
tp1194
a(F0.6633794605583068
S'expectation'
p1195
tp1196
a(F0.6530204721507665
S'judgment'
p1197
tp1198
a(F0.6208090156893484
S'conclusion'
p1199
tp1200
asS'honor'
p1201
(lp1202
(F0.5879224428865351
S'target'
p1203
tp1204
a(F0.5171973454102765
g336
tp1205
a(F0.5040353877237308
g338
tp1206
a(F0.49969480995997173
g322
tp1207
a(F0.4852384132748579
g399
tp1208
asS'criticism'
p1209
(lp1210
(F0.6208637007521862
g338
tp1211
a(F0.5849184840124286
g562
tp1212
a(F0.541895555927352
g684
tp1213
a(F0.5371518941723031
g686
tp1214
a(F0.5363709039631059
g688
tp1215
asS'assistance'
p1216
(lp1217
(F1.0
S'help'
p1218
tp1219
a(F0.5570546571469402
g174
tp1220
a(F0.5135960598163045
g176
tp1221
a(F0.5092981466857522
g305
tp1222
a(F0.5053777781023149
g307
tp1223
asS'writer'
p1224
(lp1225
(F1.0
S'author'
p1226
tp1227
a(F0.8545544596523924
S'representative'
p1228
tp1229
a(F0.710646894357326
S'journalist'
p1230
tp1231
a(F0.6702774603766121
S'reporter'
p1232
tp1233
a(F0.5947640482899271
S'witness'
p1234
tp1235
asS'love'
p1236
(lp1237
(F0.7249325142018958
S'fear'
p1238
tp1239
a(F0.6922463319528405
S'emotion'
p1240
tp1241
a(F0.6494210840456887
S'desire'
p1242
tp1243
a(F0.5815319176382178
S'pleasure'
p1244
tp1245
a(F0.5614216568860938
S'hope'
p1246
tp1247
asS'Jew'
p1248
(lp1249
(F0.4324176944622267
g380
tp1250
a(F0.4324176944622267
g382
tp1251
a(F0.360466243267208
g512
tp1252
a(F0.3569360442162085
S'leader'
p1253
tp1254
a(F0.35500281918121745
S'adult'
p1255
tp1256
asg586
(lp1257
(F0.7113673186857049
g584
tp1258
a(F0.6276264679709825
g588
tp1259
a(F0.6259725946261137
g590
tp1260
a(F0.6259725946261137
g592
tp1261
a(F0.34197012983504715
g170
tp1262
asS'claim'
p1263
(lp1264
(F0.6043062968210303
g686
tp1265
a(F0.6035204569547201
g688
tp1266
a(F0.5767224070842455
g869
tp1267
a(F0.5756707626021003
g854
tp1268
a(F0.5515490788590223
g941
tp1269
asS'county'
p1270
(lp1271
(F0.6743762509535375
S'end'
p1272
tp1273
a(F0.6579934882317624
S'side'
p1274
tp1275
a(F0.6319862819650498
S'top'
p1276
tp1277
a(F0.6216216805618128
S'bottom'
p1278
tp1279
a(F0.6100330682088474
S'edge'
p1280
tp1281
asg718
(lp1282
(F0.8095146815861293
g716
tp1283
a(F0.7799413924503213
g714
tp1284
a(F0.7799413924503213
g712
tp1285
a(F0.5626107602211299
g720
tp1286
a(F0.5581738992344596
g722
tp1287
asS'crime'
p1288
(lp1289
(F0.5374573868697924
g174
tp1290
a(F0.49689142737913394
g176
tp1291
a(F0.4928674503209709
g305
tp1292
a(F0.48919504296969496
g307
tp1293
a(F0.48919504296969496
g1012
tp1294
asS'crisis'
p1295
(lp1296
(F0.818729164563152
S'problem'
p1297
tp1298
a(F0.5551309055348814
g83
tp1299
a(F0.5488019767759817
g55
tp1300
a(F0.5470957364334537
g86
tp1301
a(F0.5427253441821251
g53
tp1302
asS'market'
p1303
(lp1304
(F0.47363549046144504
g174
tp1305
a(F0.4418468323462724
g176
tp1306
a(F0.43866215260288266
g305
tp1307
a(F0.43575071866441617
g307
tp1308
a(F0.43575071866441617
g1012
tp1309
asg455
(lp1310
(F0.8614058558187716
g453
tp1311
a(F0.8177351733482071
g451
tp1312
a(F0.8079208307780925
g457
tp1313
a(F0.6099369913300005
g103
tp1314
a(F0.5380153974867922
g101
tp1315
asS'voter'
p1316
(lp1317
(F0.7654544699862675
S'citizen'
p1318
tp1319
a(F0.3445515074245372
g380
tp1320
a(F0.3445515074245372
g382
tp1321
asS'use'
p1322
(lp1323
(F0.537394611533433
g174
tp1324
a(F0.4968377702030062
g176
tp1325
a(F0.4928146586437855
g305
tp1326
a(F0.4891430350327709
g307
tp1327
a(F0.4891430350327709
g1012
tp1328
asg678
(lp1329
(F0.7660811391398278
g672
tp1330
a(F0.7526873646681181
g674
tp1331
a(F0.6556948552397788
g670
tp1332
a(F0.6090597327291786
S'benefit'
p1333
tp1334
a(F0.5931462096459345
g676
tp1335
asg154
(lp1336
(F0.8785440784219454
g276
tp1337
a(F0.8683398157237057
g279
tp1338
a(F0.7388206540159838
g281
tp1339
a(F0.698226804039455
g283
tp1340
a(F0.6854650505915346
g285
tp1341
asS'estate'
p1342
(lp1343
(F0.6666849271949221
S'land'
p1344
tp1345
a(F0.5409630556181682
g672
tp1346
a(F0.5294774804727221
g674
tp1347
a(F0.5219004196108091
g676
tp1348
a(F0.5102228610340614
g875
tp1349
asS'army'
p1350
(lp1351
(F0.7348270097024606
S'police'
p1352
tp1353
a(F0.6927820476780874
S'staff'
p1354
tp1355
a(F0.5351728901756985
g501
tp1356
a(F0.5316005898366913
g499
tp1357
a(F0.519365512333625
g358
tp1358
asS'hospital'
p1359
(lp1360
(F0.7118283373031256
g223
tp1361
a(F0.7060930973972538
S'hotel'
p1362
tp1363
a(F0.6779516544516787
S'restaurant'
p1364
tp1365
a(F0.6757223319737931
S'theater'
p1366
tp1367
a(F0.5908679775632
g227
tp1368
asS'visit'
p1369
(lp1370
(F0.585289969962993
g720
tp1371
a(F0.5804897197239902
g722
tp1372
a(F0.5679250173022025
g800
tp1373
a(F0.5679250173022025
S'duty'
p1374
tp1375
a(F0.5619264620477481
g716
tp1376
asS'camera'
p1377
(lp1378
(F0.5913855770641977
S'telephone'
p1379
tp1380
a(F0.5913855770641977
S'phone'
p1381
tp1382
a(F0.5911149574685683
S'ball'
p1383
tp1384
a(F0.5822403761403161
S'plate'
p1385
tp1386
a(F0.47450056644238553
g184
tp1387
asg399
(lp1388
(F0.8136580014846169
g324
tp1389
a(F0.7590483964611382
g401
tp1390
a(F0.7524715310472055
g396
tp1391
a(F0.7370403070234822
g403
tp1392
a(F0.6846120414219818
g405
tp1393
asg392
(lp1394
(F0.6439580185755377
g390
tp1395
a(F0.6078250601480105
g394
tp1396
a(F0.598154224478147
g384
tp1397
a(F0.5831696699668165
g481
tp1398
a(F0.5706755783275759
g666
tp1399
asS'memory'
p1400
(lp1401
(F0.7601451174327865
S'perception'
p1402
tp1403
a(F0.7064189724644688
S'image'
p1404
tp1405
a(F0.6521109314766997
S'sight'
p1406
tp1407
a(F0.48302791002544554
g124
tp1408
a(F0.48302791002544554
g126
tp1409
asS'tape'
p1410
(lp1411
(F0.33681183539556414
g739
tp1412
a(F0.33387724671316826
g184
tp1413
a(F0.30820961333409685
g29
tp1414
a(F0.30813104469944874
g187
tp1415
a(F0.30623054384702336
g227
tp1416
asg137
(lp1417
(F0.8357973673362034
g86
tp1418
a(F0.6735010749541545
g139
tp1419
a(F0.6536080192696122
g141
tp1420
a(F0.6388430288279884
g134
tp1421
a(F0.6236611799442198
g1026
tp1422
asS'type'
p1423
(lp1424
(F0.8538234178681469
g128
tp1425
a(F0.8538234178681469
g130
tp1426
a(F0.6475690938894743
g122
tp1427
a(F0.5734400185886567
S'right'
p1428
tp1429
a(F0.5631759882423886
S'feature'
p1430
tp1431
asg128
(lp1432
(F1.0
g130
tp1433
a(F0.8538234178681469
g1423
tp1434
a(F0.7647072773622363
g122
tp1435
a(F0.6568944633833588
g1428
tp1436
a(F0.6504449960177207
g124
tp1437
asS'door'
p1438
(lp1439
(F0.9107520013360174
S'gate'
p1440
tp1441
a(F0.5821467723096655
g227
tp1442
a(F0.5792183451977376
g229
tp1443
a(F0.523259770676948
g231
tp1444
a(F0.523259770676948
S'plant'
p1445
tp1446
asS'club'
p1447
(lp1448
(F0.6375849040247579
g358
tp1449
a(F0.6199687256453099
g360
tp1450
a(F0.6088864852022752
g362
tp1451
a(F0.6088864852022752
g600
tp1452
a(F0.6030317382697657
g595
tp1453
asg877
(lp1454
(F0.824848345420368
g676
tp1455
a(F0.8010503001797895
g875
tp1456
a(F0.7394058732438663
g879
tp1457
a(F0.7379439628882233
g881
tp1458
a(F0.709922095725091
g672
tp1459
asg497
(lp1460
(F0.770679968317305
g493
tp1461
a(F0.7360771733817164
g495
tp1462
a(F0.5673209598986724
g499
tp1463
a(F0.5661382994933187
g501
tp1464
a(F0.5484789334548041
g358
tp1465
asg557
(lp1466
(F0.7333441094337042
g553
tp1467
a(F0.6884294412506198
g555
tp1468
a(F0.6530207971555626
g559
tp1469
a(F0.5875116611825609
g338
tp1470
a(F0.5552241667872535
g562
tp1471
asg45
(lp1472
(F0.8038048701678123
g47
tp1473
a(F0.8014902152181274
g203
tp1474
a(F0.7832090367409926
g39
tp1475
a(F0.7767160695118023
g205
tp1476
a(F0.697422497476677
g41
tp1477
asS'sister'
p1478
(lp1479
(F0.6356538758548462
g274
tp1480
a(F0.6197266282389848
g266
tp1481
a(F0.6172087327659896
g366
tp1482
a(F0.6098898372914506
g569
tp1483
a(F0.5957625923835346
g268
tp1484
asS'site'
p1485
(lp1486
(F0.7332367825321964
S'field'
p1487
tp1488
a(F0.7024361023217673
S'garden'
p1489
tp1490
a(F0.6820567669693669
S'city'
p1491
tp1492
a(F0.6786733795202226
S'campus'
p1493
tp1494
a(F0.6695070490500921
S'park'
p1495
tp1496
asg1381
(lp1497
(F1.0
g1379
tp1498
a(F0.6318348226492779
g1383
tp1499
a(F0.6217059252875918
g1385
tp1500
a(F0.5913855770641977
g1377
tp1501
a(F0.5183838312150704
g184
tp1502
asS'American'
p1503
(lp1504
(F0.7061345607013335
S'resident'
p1505
tp1506
a(F0.45777972268018446
g380
tp1507
a(F0.45777972268018446
g382
tp1508
a(F0.3770113703254509
g512
tp1509
a(F0.3731514022431702
g1253
tp1510
asS'train'
p1511
(lp1512
(F0.740880071344826
S'bus'
p1513
tp1514
a(F0.716496618885625
g29
tp1515
a(F0.6468943678983475
g27
tp1516
a(F0.628489186504558
g31
tp1517
a(F0.6138156672269216
g33
tp1518
asg1255
(lp1519
(F0.58677478109146
g380
tp1520
a(F0.58677478109146
g382
tp1521
a(F0.4553491254263528
g512
tp1522
a(F0.44973036001139854
g1253
tp1523
a(F0.42385459230196404
g1224
tp1524
asS'teaching'
p1525
(lp1526
(F0.8664269964724066
S'lesson'
p1527
tp1528
a(F0.8295771936659158
S'technology'
p1529
tp1530
a(F0.7091122656909263
S'career'
p1531
tp1532
a(F0.49132072103270363
g174
tp1533
a(F0.45719931901636407
g176
tp1534
asg1122
(lp1535
(F0.7781911314649977
g569
tp1536
a(F0.7509054767196474
g370
tp1537
a(F0.65635974423432
g274
tp1538
a(F0.6393918134525707
g266
tp1539
a(F0.6367119322783408
g366
tp1540
asg7
(lp1541
(F0.5874467724927559
g5
tp1542
a(F0.5291751960689693
g9
tp1543
a(F0.5052364848023332
g859
tp1544
a(F0.4839081143866072
g11
tp1545
a(F0.48133736634512325
g3
tp1546
asg307
(lp1547
(F1.0
g1012
tp1548
a(F0.5931486641812583
g174
tp1549
a(F0.5441236869064232
g176
tp1550
a(F0.5393020604013491
g305
tp1551
a(F0.5290333809246476
g912
tp1552
asS'town'
p1553
(lp1554
(F0.8335380150423949
g1491
tp1555
a(F0.6297056807456556
S'state'
p1556
tp1557
a(F0.6025734849563046
g1485
tp1558
a(F0.5936853170953068
g1487
tp1559
a(F0.5711595372012161
g659
tp1560
asS'topic'
p1561
(lp1562
(F1.0
S'theme'
p1563
tp1564
a(F1.0
S'subject'
p1565
tp1566
a(F0.6557861364493048
g338
tp1567
a(F0.6158136612229692
g562
tp1568
a(F0.5683103468952244
g684
tp1569
asg694
(lp1570
(F0.8574682818937658
g692
tp1571
a(F0.8380568228623989
g698
tp1572
a(F0.8059354839942378
g700
tp1573
a(F0.7802255775917926
g696
tp1574
a(F0.7775240657283473
S'copy'
p1575
tp1576
asS'word'
p1577
(lp1578
(F0.8228820592434655
g829
tp1579
a(F0.7965114649758731
S'Mr'
p1580
tp1581
a(F0.7176536084975468
S'Mrs'
p1582
tp1583
a(F0.667860544175629
S'form'
p1584
tp1585
a(F0.6303329981145687
S'term'
p1586
tp1587
asg227
(lp1588
(F0.7607065062747976
S'kitchen'
p1589
tp1590
a(F0.751001528363002
S'bedroom'
p1591
tp1592
a(F0.734413178085743
g229
tp1593
a(F0.6992131424628304
S'classroom'
p1594
tp1595
a(F0.6690797150006561
S'bar'
p1596
tp1597
asS'hour'
p1598
(lp1599
(F0.7916358955347383
S'day'
p1600
tp1601
a(F0.7309882953787646
S'second'
p1602
tp1603
a(F0.6916287037382844
S'date'
p1604
tp1605
a(F0.6859382954619765
S'minute'
p1606
tp1607
a(F0.41145979709787023
g103
tp1608
asS'player'
p1609
(lp1610
(F0.8765838901174333
S'athlete'
p1611
tp1612
a(F0.6823498110298744
S'winner'
p1613
tp1614
a(F0.46492953150284433
g380
tp1615
a(F0.46492953150284433
g382
tp1616
a(F0.38160382627384604
g512
tp1617
asg63
(lp1618
(F0.7757957385566254
g61
tp1619
a(F0.611983621350816
g65
tp1620
a(F0.6062010462625627
g67
tp1621
a(F0.6056100692368679
g69
tp1622
a(F0.6056100692368679
g71
tp1623
asg27
(lp1624
(F0.8944555662725954
g25
tp1625
a(F0.8458984009869076
g29
tp1626
a(F0.7491277476471105
g31
tp1627
a(F0.7289998271556605
g33
tp1628
a(F0.7199417334747489
g35
tp1629
asg1611
(lp1630
(F0.8765838901174333
g1609
tp1631
a(F0.6847366350853027
g1613
tp1632
a(F0.4680819791938123
g380
tp1633
a(F0.4680819791938123
g382
tp1634
a(F0.38361884260994167
g512
tp1635
asg174
(lp1636
(F0.6045014941821085
g176
tp1637
a(F0.5985562973567485
g305
tp1638
a(F0.5931486641812583
g307
tp1639
a(F0.5931486641812583
g1012
tp1640
a(F0.5914666020366441
g170
tp1641
asS'abortion'
p1642
(lp1643
(F0.661791901201694
g923
tp1644
a(F0.5633223125356491
g925
tp1645
a(F0.5452557330154967
S'progress'
p1646
tp1647
a(F0.5138652623796429
S'reform'
p1648
tp1649
a(F0.46894026152456203
g346
tp1650
asS'soul'
p1651
(lp1652
(F0.9541488477606123
S'spirit'
p1653
tp1654
a(F0.34472110173662207
g380
tp1655
a(F0.34472110173662207
g382
tp1656
asS'cat'
p1657
(lp1658
(F0.8587953930582967
S'dog'
p1659
tp1660
a(F0.6982950918117058
S'human'
p1661
tp1662
a(F0.6637232324945691
S'horse'
p1663
tp1664
a(F0.6278169948748411
S'bird'
p1665
tp1666
a(F0.6054968955243133
S'fish'
p1667
tp1668
asg109
(lp1669
(F0.6616312343477815
g103
tp1670
a(F0.5774076267323986
g101
tp1671
a(F0.5626989748161534
g105
tp1672
a(F0.5223958566455806
g107
tp1673
a(F0.4950027666492775
g111
tp1674
asS'male'
p1675
(lp1676
(F0.6827163380980391
g1661
tp1677
a(F0.6459518725407457
g1663
tp1678
a(F0.6395429663984304
g1665
tp1679
a(F0.614908050837241
g1667
tp1680
a(F0.5882995511398095
g1659
tp1681
asS'root'
p1682
(lp1683
(F0.7305763256422304
g847
tp1684
a(F0.6854934910293045
S'seed'
p1685
tp1686
a(F0.6587832711066448
S'leaf'
p1687
tp1688
a(F0.5712243511003839
g845
tp1689
a(F0.5564124799707275
g148
tp1690
asS'example'
p1691
(lp1692
(F0.7084793901100881
g1062
tp1693
a(F0.7082646520313219
g1064
tp1694
a(F0.6863345896622917
g1066
tp1695
a(F0.6769795276462409
S'mean'
p1696
tp1697
a(F0.6414743093620311
S'pain'
p1698
tp1699
asg706
(lp1700
(F0.6500799025254218
g702
tp1701
a(F0.5814881223614652
g704
tp1702
a(F0.366526552094411
g708
tp1703
a(F0.3600823291044187
g295
tp1704
a(F0.34225785700023426
g297
tp1705
asg635
(lp1706
(F0.8281544864442598
g633
tp1707
a(F0.8085135364547245
g631
tp1708
a(F0.7994445856028497
g637
tp1709
a(F0.5680284928840401
g390
tp1710
a(F0.5490475124960594
g392
tp1711
asS'heart'
p1712
(lp1713
(F0.5631592914913948
g122
tp1714
a(F0.496110135525341
g128
tp1715
a(F0.496110135525341
g130
tp1716
a(F0.49213949504767196
g132
tp1717
a(F0.49213949504767196
g310
tp1718
asg332
(lp1719
(F0.7773980475755915
g330
tp1720
a(F0.7465616592185459
g328
tp1721
a(F0.6773430797726464
g334
tp1722
a(F0.4068569624968777
g336
tp1723
a(F0.39866749332832685
g338
tp1724
asS'process'
p1725
(lp1726
(F1.0
S'procedure'
p1727
tp1728
a(F0.5443314068595211
g174
tp1729
a(F0.5027612730486579
g176
tp1730
a(F0.49864205694316566
g305
tp1731
a(F0.49488341919242984
g307
tp1732
asS'household'
p1733
(lp1734
(F1.0
S'family'
p1735
tp1736
a(F0.6862012685191202
g358
tp1737
a(F0.6658390692822745
g360
tp1738
a(F0.6530731367043469
g362
tp1739
a(F0.6530731367043469
g600
tp1740
asS'tax'
p1741
(lp1742
(F0.8632945827749103
S'loan'
p1743
tp1744
a(F0.6831957012856349
g672
tp1745
a(F0.6649781439939915
g674
tp1746
a(F0.6530703052550765
g676
tp1747
a(F0.6348874869321167
g875
tp1748
asS'agent'
p1749
(lp1750
(F0.41888749593770536
g380
tp1751
a(F0.41888749593770536
g382
tp1752
a(F0.33598017818941434
g512
tp1753
a(F0.33284599480455573
g1253
tp1754
a(F0.33112839025847063
g1255
tp1755
asS'sample'
p1756
(lp1757
(F0.6366120417724315
g1062
tp1758
a(F0.6364386543172049
g1064
tp1759
a(F0.6186751902564271
g1066
tp1760
a(F0.611063444862696
g1696
tp1761
a(F0.5952858106836518
g1691
tp1762
asS'critic'
p1763
(lp1764
(F0.7462312929444681
g766
tp1765
a(F0.7462312929444681
g768
tp1766
a(F0.7346508524119513
g762
tp1767
a(F0.7346508524119513
g764
tp1768
a(F0.712263391322082
g770
tp1769
asS'Congress'
p1770
(lp1771
(F0.8168565958659604
S'Senate'
p1772
tp1773
a(F0.7811872158731489
S'court'
p1774
tp1775
a(F0.5935568859765277
S'community'
p1776
tp1777
a(F0.590218738695334
S'meeting'
p1778
tp1779
a(F0.5830807595215548
S'crowd'
p1780
tp1781
asg735
(lp1782
(F0.7741916497965166
g733
tp1783
a(F0.6847172892870418
g737
tp1784
a(F0.4509114725827326
g739
tp1785
a(F0.445667322077279
g184
tp1786
a(F0.4010815492945685
g29
tp1787
asg981
(lp1788
(F0.7265962676186759
g435
tp1789
a(F0.65789507345191
g433
tp1790
a(F0.5988043480799742
g431
tp1791
a(F0.5629799171224987
g429
tp1792
a(F0.5358756117894726
g253
tp1793
asS'voice'
p1794
(lp1795
(F0.8450540512768747
S'ring'
p1796
tp1797
a(F0.6976661546174885
S'sound'
p1798
tp1799
a(F0.49423479488650274
g526
tp1800
a(F0.4869238132665223
g528
tp1801
a(F0.47871726527153136
g522
tp1802
asg623
(lp1803
(F0.6991728776513605
g619
tp1804
a(F0.6779338887740135
g621
tp1805
a(F0.6524943432328393
g625
tp1806
a(F0.6137121006393004
g627
tp1807
a(F0.6017426699632403
g629
tp1808
asS'species'
p1809
(lp1810
(F0.42483333164224646
g499
tp1811
a(F0.3921811041890717
S'people'
p1812
tp1813
a(F0.3891067941793941
S'collection'
p1814
tp1815
a(F0.3729679437772735
g501
tp1816
a(F0.36436968931989994
g211
tp1817
asg1489
(lp1818
(F0.7024361023217673
g1485
tp1819
a(F0.6931751692080672
g1487
tp1820
a(F0.6442121385170103
g1493
tp1821
a(F0.6373011628183203
g1491
tp1822
a(F0.6359473901534276
g1495
tp1823
asg562
(lp1824
(F0.7369024668405376
g338
tp1825
a(F0.6282408294633427
g684
tp1826
a(F0.6218739077993048
g686
tp1827
a(F0.6208273662992687
g688
tp1828
a(F0.6158136612229692
g1561
tp1829
asg1774
(lp1830
(F0.805179219521056
g1772
tp1831
a(F0.7811872158731489
g1770
tp1832
a(F0.6334224276543673
g1776
tp1833
a(F0.6296222521200141
g1778
tp1834
a(F0.6215059365995522
g1780
tp1835
asg453
(lp1836
(F0.8614058558187716
g455
tp1837
a(F0.820111841279663
g451
tp1838
a(F0.8102407112645035
g457
tp1839
a(F0.6125167014175165
g103
tp1840
a(F0.5400012619460349
g101
tp1841
asg757
(lp1842
(F0.7789747564646742
g755
tp1843
a(F0.7789747564646742
g753
tp1844
a(F0.36318616159966466
g124
tp1845
a(F0.36318616159966466
g126
tp1846
a(F0.35665137748228165
g122
tp1847
asg289
(lp1848
(F0.7924830692651061
g287
tp1849
a(F0.6605545592020885
g291
tp1850
a(F0.6325361871404425
g293
tp1851
a(F0.4901538937504827
g295
tp1852
a(F0.46598026352996263
g297
tp1853
asS'discussion'
p1854
(lp1855
(F0.43811682312272043
g170
tp1856
a(F0.4170819514123438
g172
tp1857
a(F0.3814010100633251
g174
tp1858
a(F0.35371016348032014
g176
tp1859
a(F0.3513062789377542
g350
tp1860
asg1430
(lp1861
(F1.0
S'characteristic'
p1862
tp1863
a(F0.9195559532087768
S'aspect'
p1864
tp1865
a(F0.7045567486881902
g122
tp1866
a(F0.643460526264763
g128
tp1867
a(F0.643460526264763
g130
tp1868
asS'owner'
p1869
(lp1870
(F0.7523264914582961
S'investor'
p1871
tp1872
a(F0.4071083791562924
g380
tp1873
a(F0.4071083791562924
g382
tp1874
a(F0.3435483436840706
g512
tp1875
a(F0.34034026231169756
g1253
tp1876
asS'Christmas'
p1877
(lp1878
(F0.543149307995724
g103
tp1879
a(F0.4858501413690964
g101
tp1880
a(F0.4753940279463094
g105
tp1881
a(F0.44630380111448387
g107
tp1882
a(F0.43128062367975045
g109
tp1883
asg446
(lp1884
(F0.6766254672836836
g442
tp1885
a(F0.6513110342692224
g444
tp1886
a(F0.6114940071104106
g184
tp1887
a(F0.6110126237285107
g448
tp1888
a(F0.5594510889019829
g1156
tp1889
asS'forest'
p1890
(lp1891
(F0.700804039850722
g211
tp1892
a(F0.700804039850722
g213
tp1893
a(F0.6499047508684551
g215
tp1894
a(F0.6261168905483744
g217
tp1895
a(F0.6202097886157314
g219
tp1896
asS'animal'
p1897
(lp1898
(F0.5814230122634463
g380
tp1899
a(F0.5814230122634463
g382
tp1900
a(F0.4297677353179763
g512
tp1901
a(F0.4244999441790673
g1253
tp1902
a(F0.4216262641417884
g1255
tp1903
asg894
(lp1904
(F0.8706253787843748
g892
tp1905
a(F0.7363211771431738
g890
tp1906
a(F0.5631290590363607
g896
tp1907
a(F0.541224320929679
g898
tp1908
a(F0.530750362075934
g900
tp1909
asg1440
(lp1910
(F0.9107520013360174
g1438
tp1911
a(F0.5451697964742859
g227
tp1912
a(F0.5426007509858165
g229
tp1913
a(F0.4931920489945801
g231
tp1914
a(F0.4931920489945801
g1445
tp1915
asS'beach'
p1916
(lp1917
(F0.6810180725793052
S'mountain'
p1918
tp1919
a(F0.6805759053463214
S'hill'
p1920
tp1921
a(F0.6429560312434298
S'bank'
p1922
tp1923
asS'economy'
p1924
(lp1925
(F0.7653367327286635
S'network'
p1926
tp1927
a(F0.5164580258935387
g499
tp1928
a(F0.46898950296919967
g1812
tp1929
a(F0.4645998081467079
g1814
tp1930
a(F0.441774735058313
g501
tp1931
asS'map'
p1932
(lp1933
(F0.7009683922713195
g69
tp1934
a(F0.7009683922713195
g71
tp1935
a(F0.664205930202146
g318
tp1936
a(F0.6520219694360452
S'picture'
p1937
tp1938
a(F0.5701847120901945
g65
tp1939
asg1445
(lp1940
(F1.0
g231
tp1941
a(F0.6467203678750288
g227
tp1942
a(F0.6431082638779374
g229
tp1943
a(F0.5621440880065295
g223
tp1944
a(F0.5572459648340725
g1362
tp1945
asS'minority'
p1946
(lp1947
(F0.46229131075250934
g499
tp1948
a(F0.4085847284980074
g501
tp1949
a(F0.39787057039587853
g358
tp1950
a(F0.39436620577666437
S'business'
p1951
tp1952
a(F0.3904196221169012
S'regime'
p1953
tp1954
asS'beauty'
p1955
(lp1956
(F0.7362069673148414
S'look'
p1957
tp1958
a(F0.7362069673148414
S'expression'
p1959
tp1960
a(F0.5561303573619547
g390
tp1961
a(F0.537923470747154
g392
tp1962
a(F0.5289735968766032
g394
tp1963
asg607
(lp1964
(F0.7301480261634391
g372
tp1965
a(F0.6923034465269107
g569
tp1966
a(F0.6868269629825443
g604
tp1967
a(F0.6550279848234613
g610
tp1968
a(F0.6337195450326687
g364
tp1969
asg241
(lp1970
(F0.7551699300269681
S'lab'
p1971
tp1972
a(F0.7175209971539991
S'studio'
p1973
tp1974
a(F0.710907131864854
S'home'
p1975
tp1976
a(F0.7074321672042125
g235
tp1977
a(F0.6997169194339502
g237
tp1978
asS'advice'
p1979
(lp1980
(F0.6101943995577208
g338
tp1981
a(F0.5754393987833771
g562
tp1982
a(F0.5337499217365803
g684
tp1983
a(F0.5291471934835198
g686
tp1984
a(F0.52838929023186
g688
tp1985
asS'soldier'
p1986
(lp1987
(F0.8301284760540606
S'officer'
p1988
tp1989
a(F0.7307943086971811
S'official'
p1990
tp1991
a(F0.6654729804561069
S'judge'
p1992
tp1993
a(F0.6424312191514204
S'employee'
p1994
tp1995
a(F0.6200571261046601
S'editor'
p1996
tp1997
asg237
(lp1998
(F1.0
g239
tp1999
a(F0.7523273183842349
g235
tp2000
a(F0.6997169194339502
g241
tp2001
a(F0.6924301284367217
g243
tp2002
a(F0.6628114403096679
g1975
tp2003
asg1383
(lp2004
(F0.6318348226492779
g1379
tp2005
a(F0.6318348226492779
g1381
tp2006
a(F0.6214068520117922
g1385
tp2007
a(F0.5911149574685683
g1377
tp2008
a(F0.5180436469000993
g184
tp2009
asg1582
(lp2010
(F0.8479524663374881
g1580
tp2011
a(F0.7802136887273532
g829
tp2012
a(F0.7176536084975468
g1577
tp2013
a(F0.6394770631772014
g1584
tp2014
a(F0.604989151669837
g1586
tp2015
asS'plane'
p2016
(lp2017
(F0.8119508129047925
g31
tp2018
a(F0.792125860234756
g33
tp2019
a(F0.7550919166867417
g29
tp2020
a(F0.6998989278660095
g27
tp2021
a(F0.6602424297881692
g25
tp2022
asS'blood'
p2023
(lp2024
(F0.5373845144749693
g574
tp2025
a(F0.5294089473160171
g576
tp2026
a(F0.5294089473160171
g578
tp2027
a(F0.48995829759909865
g582
tp2028
a(F0.48655282561701085
g827
tp2029
asg739
(lp2030
(F0.5860913084557035
g184
tp2031
a(F0.511338637593743
g29
tp2032
a(F0.5111224149833345
g187
tp2033
a(F0.5059142356038737
g227
tp2034
a(F0.5022069141950053
g229
tp2035
asg93
(lp2036
(F0.7944069763126616
g91
tp2037
a(F0.7751437088005065
g95
tp2038
a(F0.7006389167438645
g97
tp2039
a(F0.690279397159808
g99
tp2040
a(F0.6829410026105518
S'skill'
p2041
tp2042
asg1604
(lp2043
(F0.7501383827607339
g1600
tp2044
a(F0.6954628477632581
g1602
tp2045
a(F0.6916287037382844
g1598
tp2046
a(F0.6545627325603789
g1606
tp2047
a(F0.38462405575884173
g103
tp2048
asg1272
(lp2049
(F0.720325315102014
g1278
tp2050
a(F0.7067424474508974
g1280
tp2051
a(F0.7058381997227566
S'front'
p2052
tp2053
a(F0.6929986047068677
S'border'
p2054
tp2055
a(F0.6743762509535375
g1270
tp2056
asg219
(lp2057
(F0.7230772984056973
g211
tp2058
a(F0.7230772984056973
g213
tp2059
a(F0.66901598084931
g215
tp2060
a(F0.643835631669637
g217
tp2061
a(F0.6202097886157314
g1890
tp2062
asg217
(lp2063
(F0.7311190987149214
g211
tp2064
a(F0.7311190987149214
g213
tp2065
a(F0.6758945141231598
g215
tp2066
a(F0.643835631669637
g219
tp2067
a(F0.6261168905483744
g1890
tp2068
asS'response'
p2069
(lp2070
(F0.6257887369983285
g962
tp2071
a(F0.6212090491381832
g964
tp2072
a(F0.6205919917254896
g966
tp2073
a(F0.6205919917254896
g968
tp2074
a(F0.6205919917254896
S'consequence'
p2075
tp2076
asg372
(lp2077
(F0.8282962453048486
g569
tp2078
a(F0.7754964555915279
g610
tp2079
a(F0.7729207377701456
g364
tp2080
a(F0.7301480261634391
g607
tp2081
a(F0.7084016757367071
g604
tp2082
asg1594
(lp2083
(F0.6992131424628304
g227
tp2084
a(F0.6140629183991476
g1589
tp2085
a(F0.6079892549459428
g1591
tp2086
a(F0.5552791932055704
g1596
tp2087
a(F0.5371466472771115
g229
tp2088
asS'stress'
p2089
(lp2090
(F0.8691590005185302
S'tone'
p2091
tp2092
a(F0.7096000343664615
g67
tp2093
a(F0.40415856763727204
g336
tp2094
a(F0.396076289189652
g338
tp2095
a(F0.3933910376168383
g322
tp2096
asg1012
(lp2097
(F1.0
g307
tp2098
a(F0.5931486641812583
g174
tp2099
a(F0.5441236869064232
g176
tp2100
a(F0.5393020604013491
g305
tp2101
a(F0.5290333809246476
g912
tp2102
asS'neck'
p2103
(lp2104
(F0.7081045165634795
g152
tp2105
a(F0.6574323918302448
S'finger'
p2106
tp2107
a(F0.637978207431633
S'face'
p2108
tp2109
a(F0.6353646954838027
S'foot'
p2110
tp2111
a(F0.6333256773278098
S'arm'
p2112
tp2113
asS'light'
p2114
(lp2115
(F0.7675514238447316
S'heat'
p2116
tp2117
a(F0.7455335293184179
g962
tp2118
a(F0.7395163973633947
g964
tp2119
a(F0.6896698819659539
S'wind'
p2120
tp2121
a(F0.6843464559392592
g966
tp2122
asg1226
(lp2123
(F1.0
g1224
tp2124
a(F0.8545544596523924
g1228
tp2125
a(F0.710646894357326
g1230
tp2126
a(F0.6702774603766121
g1232
tp2127
a(F0.5947640482899271
g1234
tp2128
asg972
(lp2129
(F1.0
g970
tp2130
a(F0.7538105190363502
g974
tp2131
a(F0.6431915359257214
g122
tp2132
a(F0.5949106298300755
g128
tp2133
a(F0.5949106298300755
g130
tp2134
asg15
(lp2135
(F0.6749826198500364
g17
tp2136
a(F0.6497937628077466
g19
tp2137
a(F0.6457294095466009
g21
tp2138
a(F0.6189282390589184
g23
tp2139
a(F0.6189282390589184
g114
tp2140
asg800
(lp2141
(F1.0
g1374
tp2142
a(F0.828648101813014
g720
tp2143
a(F0.7486639050310997
S'administration'
p2144
tp2145
a(F0.7301719940972186
S'requirement'
p2146
tp2147
a(F0.6331163542637481
g722
tp2148
asS'silence'
p2149
(lp2150
(F0.5040399348860205
g83
tp2151
a(F0.49881687247085305
g55
tp2152
a(F0.49740688861673044
g86
tp2153
a(F0.49379168673738655
g53
tp2154
a(F0.4850242250649567
g79
tp2155
asg1244
(lp2156
(F0.6809574405907458
g1240
tp2157
a(F0.6394757105344692
g1242
tp2158
a(F0.59869339733421
g1238
tp2159
a(F0.5815319176382178
g1236
tp2160
a(F0.5539735000563797
g1246
tp2161
asS'dream'
p2162
(lp2163
(F0.863237966463424
S'vision'
p2164
tp2165
a(F0.6363999666785642
g253
tp2166
a(F0.6321529916082086
g255
tp2167
a(F0.5982692479524743
g245
tp2168
a(F0.589126847171244
S'taste'
p2169
tp2170
asg900
(lp2171
(F0.592104094145303
g896
tp2172
a(F0.567935579350512
g898
tp2173
a(F0.565813878340511
g890
tp2174
a(F0.5644616052977652
g892
tp2175
a(F0.5509689068276153
S'warning'
p2176
tp2177
asg403
(lp2178
(F0.7877976035093313
g401
tp2179
a(F0.7370403070234822
g399
tp2180
a(F0.7213808944564564
g405
tp2181
a(F0.6888041423491477
S'debate'
p2182
tp2183
a(F0.6814797312936612
g324
tp2184
asg195
(lp2185
(F0.826525705317688
g197
tp2186
a(F0.7577354348844293
S'cigarette'
p2187
tp2188
a(F0.6922731451029169
S'coffee'
p2189
tp2190
a(F0.6814268789075403
g189
tp2191
a(F0.678351291911098
S'food'
p2192
tp2193
asg1218
(lp2194
(F1.0
g1216
tp2195
a(F0.5570546571469402
g174
tp2196
a(F0.5135960598163045
g176
tp2197
a(F0.5092981466857522
g305
tp2198
a(F0.5053777781023149
g307
tp2199
asS'producer'
p2200
(lp2201
(F0.7515720829671886
S'artist'
p2202
tp2203
a(F0.6210285119622261
S'master'
p2204
tp2205
a(F0.6170772452686059
S'farmer'
p2206
tp2207
a(F0.38918864487097776
g380
tp2208
a(F0.38918864487097776
g382
tp2209
asg2144
(lp2210
(F0.7719393087282995
g720
tp2211
a(F0.7486639050310997
g800
tp2212
a(F0.7486639050310997
g1374
tp2213
a(F0.6857797656977135
g2146
tp2214
a(F0.5901501016128405
g722
tp2215
asg1047
(lp2216
(F0.8798654949207018
g1137
tp2217
a(F0.8798654949207018
g1139
tp2218
a(F0.8740854159910519
g927
tp2219
a(F0.7980562763448634
g1143
tp2220
a(F0.5452802641904841
g350
tp2221
asS'mission'
p2222
(lp2223
(F0.4971008373598058
g501
tp2224
a(F0.4885295397455227
g499
tp2225
a(F0.4834338077827166
g358
tp2226
a(F0.478971362928969
g1951
tp2227
a(F0.47395035504959465
g1953
tp2228
asg794
(lp2229
(F0.6047401097039312
g796
tp2230
a(F0.5848886996503214
g792
tp2231
a(F0.5395542481441703
g720
tp2232
a(F0.5354722728935579
g722
tp2233
a(F0.5247628336652211
g800
tp2234
asS'course'
p2235
(lp2236
(F0.4946196092868965
g174
tp2237
a(F0.4600545820947172
g176
tp2238
a(F0.4566030491573283
g305
tp2239
a(F0.4534494510191845
g307
tp2240
a(F0.4534494510191845
g1012
tp2241
asS'attitude'
p2242
(lp2243
(F0.5218277996081143
g124
tp2244
a(F0.5218277996081143
g126
tp2245
a(F0.5084425298073966
g122
tp2246
a(F0.4797154247094367
g472
tp2247
a(F0.4559230302514811
g433
tp2248
asS'scientist'
p2249
(lp2250
(F0.5074821640257742
g380
tp2251
a(F0.5074821640257742
g382
tp2252
a(F0.40830583340646737
g512
tp2253
a(F0.4037823077513425
g1253
tp2254
a(F0.4013100852081925
g1255
tp2255
asg602
(lp2256
(F0.7997544753735867
g358
tp2257
a(F0.7754828400776533
g360
tp2258
a(F0.7244952284342832
g1352
tp2259
a(F0.6971009280884011
S'board'
p2260
tp2261
a(F0.6715441993983029
S'branch'
p2262
tp2263
asS'hell'
p2264
(lp2265
(F0.6149270882640924
g1272
tp2266
a(F0.6079711457327748
g1270
tp2267
a(F0.6012761998634651
g1274
tp2268
a(F0.5794850230496749
g1276
tp2269
a(F0.5707590508840661
g1278
tp2270
asS'ticket'
p2271
(lp2272
(F0.5982845223550064
g326
tp2273
a(F0.5923028982957315
g322
tp2274
a(F0.5748980143377551
g854
tp2275
a(F0.5731603065084487
S'act'
p2276
tp2277
a(F0.548736237593825
S'report'
p2278
tp2279
asS'style'
p2280
(lp2281
(F1.0
g532
tp2282
a(F1.0
S'manner'
p2283
tp2284
a(F1.0
S'fashion'
p2285
tp2286
a(F0.5874539711669674
g526
tp2287
a(F0.5771537458938121
g528
tp2288
asg1352
(lp2289
(F0.7389432776970762
g1354
tp2290
a(F0.7348270097024606
g1350
tp2291
a(F0.5816209718625283
g499
tp2292
a(F0.5783834585607402
g501
tp2293
a(F0.5599643394870608
g358
tp2294
asS'presence'
p2295
(lp2296
(F0.6999396930740803
g489
tp2297
a(F0.6999396930740803
g491
tp2298
a(F0.5936817382203288
S'potential'
p2299
tp2300
a(F0.5838058364088925
S'life'
p2301
tp2302
a(F0.47849401020253757
g295
tp2303
asg806
(lp2304
(F0.6533678602924919
g812
tp2305
a(F0.60495934244702
g804
tp2306
a(F0.5343399990939877
g808
tp2307
a(F0.5335942479959689
g810
tp2308
a(F0.5228079541887177
g802
tp2309
asS'researcher'
p2310
(lp2311
(F0.32922093367545746
g380
tp2312
a(F0.32922093367545746
g382
tp2313
asS'window'
p2314
(lp2315
(F0.7739931463884452
S'frame'
p2316
tp2317
a(F0.5504126530413254
g227
tp2318
a(F0.547794075993197
g229
tp2319
a(F0.49747890122462846
g231
tp2320
a(F0.49747890122462846
g1445
tp2321
asS'production'
p2322
(lp2323
(F0.4363950717938722
g170
tp2324
a(F0.4155212662120193
g172
tp2325
a(F0.38009551497124505
g174
tp2326
a(F0.35258707341742374
g176
tp2327
a(F0.35019837858012115
g350
tp2328
asg1606
(lp2329
(F0.7434491237814101
g1600
tp2330
a(F0.6897094358188198
g1602
tp2331
a(F0.6859382954619765
g1598
tp2332
a(F0.6545627325603789
g1604
tp2333
a(F0.3803659350134757
g103
tp2334
asg2206
(lp2335
(F0.7174903551485873
g2202
tp2336
a(F0.6170772452686059
g2200
tp2337
a(F0.5975733904981211
g2204
tp2338
a(F0.36559143068212463
g380
tp2339
a(F0.36559143068212463
g382
tp2340
asS'policy'
p2341
(lp2342
(F0.8330784155924537
S'strategy'
p2343
tp2344
a(F0.6275081774607787
g122
tp2345
a(F0.5453782950162649
g128
tp2346
a(F0.5453782950162649
g130
tp2347
a(F0.5405836659322764
g132
tp2348
asS'holiday'
p2349
(lp2350
(F0.5910735848192407
g103
tp2351
a(F0.5234293211636849
g101
tp2352
a(F0.5113133178835579
g105
tp2353
a(F0.4778159597325983
g107
tp2354
a(F0.4606372336379406
g109
tp2355
asS'health'
p2356
(lp2357
(F0.4787348676108766
g295
tp2358
a(F0.45564792865028136
g297
tp2359
a(F0.44605982740949657
g485
tp2360
a(F0.44382027048627537
g487
tp2361
a(F0.4290056096308099
g489
tp2362
asS'colleague'
p2363
(lp2364
(F0.7826996933486238
S'member'
p2365
tp2366
a(F0.7197646021291256
S'participant'
p2367
tp2368
a(F0.328963194620194
g380
tp2369
a(F0.328963194620194
g382
tp2370
asg2189
(lp2371
(F0.6922731451029169
g195
tp2372
a(F0.6671286632702789
g197
tp2373
a(F0.6171147018362586
g189
tp2374
a(F0.592129271715882
g2192
tp2375
a(F0.5780248440810385
S'meal'
p2376
tp2377
asg105
(lp2378
(F0.7839215471347504
S'afternoon'
p2379
tp2380
a(F0.7727596766147682
g103
tp2381
a(F0.6593170198780934
g101
tp2382
a(F0.5885470728431528
g107
tp2383
a(F0.5626989748161534
g109
tp2384
asS'return'
p2385
(lp2386
(F0.631217743349493
g326
tp2387
a(F0.606523850833977
g854
tp2388
a(F0.6046890644450276
g2276
tp2389
a(F0.592871524230619
g322
tp2390
a(F0.5561277601472753
S'bill'
p2391
tp2392
asS'combination'
p2393
(lp2394
(F0.6293816545804732
g211
tp2395
a(F0.6293816545804732
g213
tp2396
a(F0.588022341763285
g215
tp2397
a(F0.5684807542503344
g217
tp2398
a(F0.5636069004562757
g219
tp2399
asg2192
(lp2400
(F0.8450483067099075
S'drug'
p2401
tp2402
a(F0.7086802762417387
g2376
tp2403
a(F0.6883700131906937
S'fuel'
p2404
tp2405
a(F0.678351291911098
g195
tp2406
a(F0.6490802156840882
g193
tp2407
asS'practice'
p2408
(lp2409
(F0.5638766926044597
g174
tp2410
a(F0.5193896395028356
g176
tp2411
a(F0.5149946298130154
g305
tp2412
a(F0.5109864174850401
g307
tp2413
a(F0.5109864174850401
g1012
tp2414
asS'cover'
p2415
(lp2416
(F0.591362301138939
g619
tp2417
a(F0.5740929066819439
g621
tp2418
a(F0.5708972934794525
S'shoe'
p2419
tp2420
a(F0.5700356330988885
g623
tp2421
a(F0.5533528951315075
g625
tp2422
asg362
(lp2423
(F1.0
g600
tp2424
a(F0.7234374263754614
g358
tp2425
a(F0.7008417760244914
g360
tp2426
a(F0.6792746825181492
g595
tp2427
a(F0.6676388951544971
g602
tp2428
asS'break'
p2429
(lp2430
(F0.5444203493732285
g415
tp2431
a(F0.5144403528618701
g417
tp2432
a(F0.5060461942867602
g1076
tp2433
a(F0.5000817252480779
g1078
tp2434
a(F0.499380587369133
g1080
tp2435
asg941
(lp2436
(F0.6421233492990769
g686
tp2437
a(F0.6412361495670554
g688
tp2438
a(F0.6110677857290278
g869
tp2439
a(F0.6098872832142184
g854
tp2440
a(F0.5854137431277829
g338
tp2441
asS'half'
p2442
(lp2443
(F0.8352007148687611
S'quarter'
p2444
tp2445
a(F0.565057367347677
S'one'
p2446
tp2447
a(F0.5323126173292093
S'unit'
p2448
tp2449
a(F0.4286523408578284
g103
tp2450
a(F0.3715231191518087
g101
tp2451
asg2052
(lp2452
(F0.8179898410275099
g1278
tp2453
a(F0.7058381997227566
g1272
tp2454
a(F0.697247173576205
g1280
tp2455
a(F0.6848743647983416
g2054
tp2456
a(F0.611974323166601
S'tip'
p2457
tp2458
asg881
(lp2459
(F0.7818971840520536
g676
tp2460
a(F0.7604808408980316
g875
tp2461
a(F0.7379439628882233
g877
tp2462
a(F0.704704923875721
g879
tp2463
a(F0.6712798327230941
g672
tp2464
asg1238
(lp2465
(F0.7249325142018958
g1236
tp2466
a(F0.7167017933195992
g1240
tp2467
a(F0.6708973700952322
g1242
tp2468
a(F0.59869339733421
g1244
tp2469
a(F0.5774004126121567
g1246
tp2470
asg2446
(lp2471
(F0.6839714212441421
g2448
tp2472
a(F0.565057367347677
g2442
tp2473
a(F0.553188812497675
g103
tp2474
a(F0.5041063252586249
g2444
tp2475
a(F0.4615887328246959
g101
tp2476
asg1871
(lp2477
(F0.7523264914582961
g1869
tp2478
a(F0.38074475943139185
g380
tp2479
a(F0.38074475943139185
g382
tp2480
a(F0.3254767687440285
g512
tp2481
a(F0.3225959029274196
g1253
tp2482
asg1600
(lp2483
(F0.7966630430400178
g1602
tp2484
a(F0.7916358955347383
g1598
tp2485
a(F0.7501383827607339
g1604
tp2486
a(F0.7434491237814101
g1606
tp2487
a(F0.46366849470163995
g103
tp2488
asg1922
(lp2489
(F0.6429560312434298
g1916
tp2490
a(F0.6405904004227266
g1918
tp2491
a(F0.6401991571587593
g1920
tp2492
asg193
(lp2493
(F0.7723061163365016
S'meat'
p2494
tp2495
a(F0.717534453755514
S'vegetable'
p2496
tp2497
a(F0.6567364818394044
S'plastic'
p2498
tp2499
a(F0.6555910204483925
S'glass'
p2500
tp2501
a(F0.6425006130219134
S'chicken'
p2502
tp2503
asg1586
(lp2504
(F0.7553293064497646
g1584
tp2505
a(F0.678088720852767
g829
tp2506
a(F0.6600803826609128
g1580
tp2507
a(F0.6303329981145687
g1577
tp2508
a(F0.604989151669837
g1582
tp2509
asg322
(lp2510
(F0.7661989403628829
g324
tp2511
a(F0.7384405132505738
g316
tp2512
a(F0.7273925698450942
g326
tp2513
a(F0.688356697684642
g854
tp2514
a(F0.6873118683216887
g1035
tp2515
asg829
(lp2516
(F0.8743207992958687
g1580
tp2517
a(F0.8228820592434655
g1577
tp2518
a(F0.7802136887273532
g1582
tp2519
a(F0.7217148305162563
g1584
tp2520
a(F0.678088720852767
g1586
tp2521
asg1280
(lp2522
(F0.7102763873254455
g1278
tp2523
a(F0.7067424474508974
g1272
tp2524
a(F0.697247173576205
g2052
tp2525
a(F0.6856603185751695
g2054
tp2526
a(F0.6126539484531579
g2457
tp2527
asg947
(lp2528
(F0.6924538222137617
g945
tp2529
a(F0.6578591060862319
g943
tp2530
a(F0.542438528979157
g499
tp2531
a(F0.46995541501823446
g501
tp2532
a(F0.4558365461903018
g358
tp2533
asS'victory'
p2534
(lp2535
(F0.8476252480878717
g1076
tp2536
a(F0.6125813414439554
g415
tp2537
a(F0.5748843695339813
g417
tp2538
a(F0.5570120064749232
g1078
tp2539
a(F0.556142282860044
g1080
tp2540
asg1060
(lp2541
(F0.7406430340177684
g1058
tp2542
a(F0.6993217473898261
g1056
tp2543
a(F0.626612716952619
g1062
tp2544
a(F0.6264447328277761
g1064
tp2545
a(F0.6092272177527821
g1066
tp2546
asS'rock'
p2547
(lp2548
(F1.0
S'stone'
p2549
tp2550
a(F0.6300415764243651
g845
tp2551
a(F0.6285735718852666
g847
tp2552
a(F0.6120703827718308
g148
tp2553
a(F0.6114924523010558
g932
tp2554
asS'stock'
p2555
(lp2556
(F0.6620412779800863
g676
tp2557
a(F0.6466227317580503
g875
tp2558
a(F0.6302564376629017
g877
tp2559
a(F0.6058502281407342
g879
tp2560
a(F0.604868388355571
g881
tp2561
asg1274
(lp2562
(F0.6661488317439225
g1272
tp2563
a(F0.6579934882317624
g1270
tp2564
a(F0.6247551286492375
g1276
tp2565
a(F0.614624451758711
g1278
tp2566
a(F0.6032928854966857
g1280
tp2567
asS'English'
p2568
(lp2569
(F0.7013606341909914
g41
tp2570
a(F0.47244497683007664
g336
tp2571
a(F0.46143800707422905
g338
tp2572
a(F0.45779744532625016
g322
tp2573
a(F0.44563413304589655
g399
tp2574
asg1696
(lp2575
(F0.9552102041367582
g1066
tp2576
a(F0.73094093123459
g1062
tp2577
a(F0.7307123634534543
g1064
tp2578
a(F0.6769795276462409
g1691
tp2579
a(F0.6598330714694157
g1698
tp2580
asS'wheel'
p2581
(lp2582
(F0.5576618549575636
g442
tp2583
a(F0.5403525521791898
g444
tp2584
a(F0.5286736675169835
g446
tp2585
a(F0.5123196832262731
g448
tp2586
a(F0.4912552364520044
g184
tp2587
asS'weight'
p2588
(lp2589
(F0.6757732018782414
g111
tp2590
a(F0.6557013990224362
S'length'
p2591
tp2592
a(F0.6443087245473792
S'mass'
p2593
tp2594
a(F0.496944529769929
g526
tp2595
a(F0.4895537601413392
g528
tp2596
asg810
(lp2597
(F0.6013551315085922
g804
tp2598
a(F0.5335942479959689
g806
tp2599
a(F0.5315261853848334
g808
tp2600
a(F0.5201139783063365
g802
tp2601
a(F0.49946147448347966
g812
tp2602
asg223
(lp2603
(F0.8496693494724977
g221
tp2604
a(F0.7554753097775924
g225
tp2605
a(F0.7472293294527029
g1362
tp2606
a(F0.7157863984478671
g1364
tp2607
a(F0.7133017632284446
g1366
tp2608
asg964
(lp2609
(F0.8020491682545939
g962
tp2610
a(F0.7395163973633947
g2114
tp2611
a(F0.7377601174579622
g2120
tp2612
a(F0.7357130495212694
g966
tp2613
a(F0.7357130495212694
g968
tp2614
asg126
(lp2615
(F1.0
g124
tp2616
a(F0.8014307446941195
g122
tp2617
a(F0.7445172596362132
g472
tp2618
a(F0.6760308775163651
g1152
tp2619
a(F0.6585570191559268
S'purpose'
p2620
tp2621
asg448
(lp2622
(F0.8645478129902273
g444
tp2623
a(F0.650067099442419
g442
tp2624
a(F0.6110126237285107
g446
tp2625
a(F0.5841139166113429
g184
tp2626
a(F0.5411704629084261
g1156
tp2627
asS'society'
p2628
(lp2629
(F0.5567057385476841
g499
tp2630
a(F0.48062696753726275
g501
tp2631
a(F0.4658696751897418
g358
tp2632
a(F0.46107232659713715
g1951
tp2633
a(F0.45568683290973344
g1953
tp2634
asS'lunch'
p2635
(lp2636
(F0.8330100377291129
S'dinner'
p2637
tp2638
a(F0.7370565306849852
g2376
tp2639
a(F0.6378383319916082
g2192
tp2640
a(F0.6189345773433704
g2401
tp2641
a(F0.5955904941191562
g195
tp2642
asS'literature'
p2643
(lp2644
(F0.6112192795321434
g322
tp2645
a(F0.5572238625572107
g324
tp2646
a(F0.5423958197377651
g316
tp2647
a(F0.5364115451186341
g326
tp2648
a(F0.5148795038004909
g854
tp2649
asg107
(lp2650
(F0.6980461465594188
g103
tp2651
a(F0.6046574170356518
g101
tp2652
a(F0.5885470728431528
g105
tp2653
a(F0.5223958566455806
g109
tp2654
a(F0.5151068408212226
g111
tp2655
asg368
(lp2656
(F0.848819958439117
g364
tp2657
a(F0.8102234826733447
g366
tp2658
a(F0.7340442488912292
g370
tp2659
a(F0.6986682633781995
g374
tp2660
a(F0.6893669532480317
g372
tp2661
asS'morning'
p2662
(lp2663
(F0.591755388268658
g103
tp2664
a(F0.5239585244218276
g101
tp2665
a(F0.5118182935617157
g105
tp2666
a(F0.4782569098443698
g107
tp2667
a(F0.46104703351454007
g109
tp2668
asg1086
(lp2669
(F0.7000026717884039
g1084
tp2670
a(F0.6236166725628454
g170
tp2671
a(F0.5654167642238882
g172
tp2672
a(F0.5501305742667357
g124
tp2673
a(F0.5501305742667357
g126
tp2674
asg1234
(lp2675
(F0.3167174193118465
g380
tp2676
a(F0.3167174193118465
g382
tp2677
asg213
(lp2678
(F1.0
g211
tp2679
a(F0.763762602426523
g215
tp2680
a(F0.7311190987149214
g217
tp2681
a(F0.7230772984056973
g219
tp2682
a(F0.700804039850722
g1890
tp2683
asS'living'
p2684
(lp2685
(F0.8630178118639213
S'reality'
p2686
tp2687
a(F0.5325911685102849
g124
tp2688
a(F0.5325911685102849
g126
tp2689
a(F0.5212487636025949
g122
tp2690
a(F0.4965604419051923
g472
tp2691
asS'flower'
p2692
(lp2693
(F0.7056665241495474
S'tree'
p2694
tp2695
a(F0.6537950751527577
S'grass'
p2696
tp2697
a(F0.5510916655652474
S'pepper'
p2698
tp2699
a(F0.3871628627537847
g380
tp2700
a(F0.3871628627537847
g382
tp2701
asg1926
(lp2702
(F0.7653367327286635
g1924
tp2703
a(F0.41022210632058764
g499
tp2704
a(F0.3796965702663346
g1812
tp2705
a(F0.3768141582030673
g1814
tp2706
a(F0.36165905724359315
g501
tp2707
asS'space'
p2708
(lp2709
(F0.3789119971480458
g708
tp2710
a(F0.3720289864497374
g295
tp2711
a(F0.35303334566911515
g297
tp2712
a(F0.34517759003906046
g485
tp2713
a(F0.343345464147559
g487
tp2714
asg879
(lp2715
(F0.9130845644550246
g875
tp2716
a(F0.7835386221909341
g676
tp2717
a(F0.7467582944615561
S'revenue'
p2718
tp2719
a(F0.7394058732438663
g877
tp2720
a(F0.7382747729689589
S'sales'
p2721
tp2722
asg1130
(lp2723
(F0.7676689463530773
g1132
tp2724
a(F0.7585885958695291
g1128
tp2725
a(F0.7585885958695291
g1126
tp2726
a(F0.7565565945019992
g1134
tp2727
a(F0.6954527205870508
g912
tp2728
asg542
(lp2729
(F0.6114017976830014
g540
tp2730
a(F0.5772713242935589
g544
tp2731
a(F0.5666227454622436
g536
tp2732
a(F0.5295156423140365
g538
tp2733
a(F0.5263019983616148
g534
tp2734
asg819
(lp2735
(F0.8199851675515027
g817
tp2736
a(F0.7156793352000421
S'poll'
p2737
tp2738
a(F0.6347426027273116
g433
tp2739
a(F0.6032616770650988
g814
tp2740
a(F0.5795632932187268
g431
tp2741
asS'safety'
p2742
(lp2743
(F0.5659240449515706
g83
tp2744
a(F0.5593480808643873
g55
tp2745
a(F0.5575757400825487
g86
tp2746
a(F0.5530370028087346
g53
tp2747
a(F0.5420628623180246
g79
tp2748
asg1920
(lp2749
(F0.8312319830198225
g1918
tp2750
a(F0.6805759053463214
g1916
tp2751
a(F0.6401991571587593
g1922
tp2752
asg508
(lp2753
(F0.7139371057389624
g504
tp2754
a(F0.6198606737802891
g506
tp2755
a(F0.31700725737224744
g380
tp2756
a(F0.31700725737224744
g382
tp2757
asS'medicine'
p2758
(lp2759
(F0.8296854394834576
S'surgery'
p2760
tp2761
a(F0.669350178799468
S'science'
p2762
tp2763
a(F0.4881976630867383
g124
tp2764
a(F0.4881976630867383
g126
tp2765
a(F0.47865037024400514
g122
tp2766
asS'surprise'
p2767
(lp2768
(F0.6241710457023415
g1240
tp2769
a(F0.5891413806296143
g1242
tp2770
a(F0.5543518655378364
g1238
tp2771
a(F0.5396070337787108
g1236
tp2772
a(F0.5327228948730176
g1244
tp2773
asS'size'
p2774
(lp2775
(F0.691803052332213
S'range'
p2776
tp2777
a(F0.6848317864987187
g2591
tp2778
a(F0.6820381985217984
S'number'
p2779
tp2780
a(F0.6665014525151532
S'limit'
p2781
tp2782
a(F0.6259064755825717
S'majority'
p2783
tp2784
asg411
(lp2785
(F0.9167325383182364
g413
tp2786
a(F0.8472952693752371
g409
tp2787
a(F0.7698272163155556
g407
tp2788
a(F0.5943684256336916
g415
tp2789
a(F0.5588146510107724
g417
tp2790
asg2379
(lp2791
(F0.7839215471347504
g105
tp2792
a(F0.5956748219003929
g103
tp2793
a(F0.5269977972716213
g101
tp2794
a(F0.48078783149448534
g107
tp2795
a(F0.4633986362869168
g109
tp2796
asg1402
(lp2797
(F0.795467497335874
g1404
tp2798
a(F0.7601451174327865
g1400
tp2799
a(F0.7272656961639281
g1406
tp2800
a(F0.569838522817011
g124
tp2801
a(F0.569838522817011
g126
tp2802
asg472
(lp2803
(F0.7445172596362132
g124
tp2804
a(F0.7445172596362132
g126
tp2805
a(F0.722538562265269
g122
tp2806
a(F0.6190175443894649
g1152
tp2807
a(F0.6043347267707379
g2620
tp2808
asS'circumstance'
p2809
(lp2810
(F0.5631017700721382
g83
tp2811
a(F0.5565908540771807
g55
tp2812
a(F0.5548359158229537
g86
tp2813
a(F0.5503414942202008
g53
tp2814
a(F0.5394730180304833
g79
tp2815
asS'story'
p2816
(lp2817
(F0.5915826457168394
g338
tp2818
a(F0.5588586096279875
g562
tp2819
a(F0.5194547555625145
g684
tp2820
a(F0.5150942639691691
g686
tp2821
a(F0.5143760551660995
g688
tp2822
asS'possibility'
p2823
(lp2824
(F0.6022449005302528
g1189
tp2825
a(F0.571109030574441
g1191
tp2826
a(F0.571109030574441
g1193
tp2827
a(F0.563167130361779
g1195
tp2828
a(F0.5556838230155335
g1197
tp2829
asS'standard'
p2830
(lp2831
(F0.8745977422743025
S'money'
p2832
tp2833
a(F0.8231395777184981
S'cash'
p2834
tp2835
a(F0.8205915699561137
S'fund'
p2836
tp2837
a(F0.7661777417443537
S'budget'
p2838
tp2839
a(F0.7631605969457493
S'scale'
p2840
tp2841
asg910
(lp2842
(F0.8509946193813206
g908
tp2843
a(F0.6579085661539936
g912
tp2844
a(F0.6579085661539936
g914
tp2845
a(F0.6176265078374058
g916
tp2846
a(F0.6113359324868249
g918
tp2847
asS'reason'
p2848
(lp2849
(F0.3803779911510378
g1086
tp2850
a(F0.3586795170120922
g1084
tp2851
a(F0.3374972167113653
g170
tp2852
a(F0.3196884811178019
g172
tp2853
a(F0.31474368037099965
g124
tp2854
asS'base'
p2855
(lp2856
(F0.6473448555351446
S'station'
p2857
tp2858
a(F0.6472256135558921
S'airport'
p2859
tp2860
a(F0.6255647110667966
S'museum'
p2861
tp2862
a(F0.3177770445982693
g739
tp2863
a(F0.31516349049871956
g184
tp2864
asg1166
(lp2865
(F0.7191813035444636
g1164
tp2866
a(F0.703637978001253
g1162
tp2867
a(F0.4742720247056993
g174
tp2868
a(F0.44240074032117094
g176
tp2869
a(F0.4392080996647695
g305
tp2870
asg417
(lp2871
(F0.657812764926438
g415
tp2872
a(F0.6025992731214841
g1076
tp2873
a(F0.5941606205054462
g1078
tp2874
a(F0.5931711231100346
g1080
tp2875
a(F0.589389843492794
g1082
tp2876
asg827
(lp2877
(F0.8064570607457914
g582
tp2878
a(F0.7106043996653658
S'page'
p2879
tp2880
a(F0.6824371923226422
g574
tp2881
a(F0.6744812345728349
S'waste'
p2882
tp2883
a(F0.6696262721772185
g576
tp2884
asg916
(lp2885
(F0.7293225774435581
g912
tp2886
a(F0.7293225774435581
g914
tp2887
a(F0.6725269762312585
g918
tp2888
a(F0.6570166755714738
S'treatment'
p2889
tp2890
a(F0.6567320959954525
g908
tp2891
asg865
(lp2892
(F0.6953400153148959
g863
tp2893
a(F0.5989382461994704
g686
tp2894
a(F0.5981662966325775
g688
tp2895
a(F0.5718312440119881
g869
tp2896
a(F0.5707973458212935
g854
tp2897
asS'training'
p2898
(lp2899
(F0.5138017509156172
g174
tp2900
a(F0.4766045725839657
g176
tp2901
a(F0.4729012417316178
g305
tp2902
a(F0.46951932748242164
g307
tp2903
a(F0.46951932748242164
g1012
tp2904
asS'interaction'
p2905
(lp2906
(F0.5252779852630889
g350
tp2907
a(F0.5128191068772607
g346
tp2908
a(F0.5082400653858647
g348
tp2909
a(F0.4778230999658412
g927
tp2910
a(F0.46083327864152107
g1047
tp2911
asS'yard'
p2912
(lp2913
(F0.45285632647410573
g2448
tp2914
a(F0.416932613047001
S'pound'
p2915
tp2916
a(F0.4155157338054894
g2446
tp2917
a(F0.3638382162087869
g103
tp2918
a(F0.3542087838164126
g2442
tp2919
asS'service'
p2920
(lp2921
(F0.6469051985604073
g912
tp2922
a(F0.6469051985604073
g914
tp2923
a(F0.6079193666620304
g916
tp2924
a(F0.6018239977052237
g918
tp2925
a(F0.5893732892051714
g2889
tp2926
asg520
(lp2927
(F0.548824731763731
g336
tp2928
a(F0.534026837123041
g338
tp2929
a(F0.5291568348211774
g322
tp2930
a(F0.5129730894477458
g399
tp2931
a(F0.4968676748335791
g562
tp2932
asg653
(lp2933
(F0.8885440391174259
g651
tp2934
a(F0.8376077658204142
g655
tp2935
a(F0.7944401679067216
g649
tp2936
a(F0.7688866196379754
g657
tp2937
a(F0.499336614232296
g659
tp2938
asg330
(lp2939
(F0.8276785223262836
g328
tp2940
a(F0.7773980475755915
g332
tp2941
a(F0.743449552015486
g334
tp2942
a(F0.4633632834955119
g336
tp2943
a(F0.45277067114379554
g338
tp2944
asg401
(lp2945
(F0.7877976035093313
g403
tp2946
a(F0.7590483964611382
g399
tp2947
a(F0.7384791366899981
g405
tp2948
a(F0.7043763107289179
g2182
tp2949
a(F0.7002525407837893
g324
tp2950
asg2591
(lp2951
(F0.7748616392350466
S'height'
p2952
tp2953
a(F0.6557013990224362
g2588
tp2954
a(F0.6291552975542081
g103
tp2955
a(F0.5471768496443178
g101
tp2956
a(F0.5338187811950507
g105
tp2957
asS'abuse'
p2958
(lp2959
(F0.4724053948676548
g174
tp2960
a(F0.4407761279446482
g176
tp2961
a(F0.437606808682177
g305
tp2962
a(F0.43470932042142774
g307
tp2963
a(F0.43470932042142774
g1012
tp2964
asg239
(lp2965
(F1.0
g237
tp2966
a(F0.7523273183842349
g235
tp2967
a(F0.6997169194339502
g241
tp2968
a(F0.6924301284367217
g243
tp2969
a(F0.6628114403096679
g1975
tp2970
asS'husband'
p2971
(lp2972
(F0.882310704736048
g366
tp2973
a(F0.7273440672576534
g274
tp2974
a(F0.7065656577576934
g266
tp2975
a(F0.6938073432161395
g569
tp2976
a(F0.6755830586046824
g268
tp2977
asg378
(lp2978
(F0.8898026768431843
g376
tp2979
a(F0.34123520617055425
g380
tp2980
a(F0.34123520617055425
g382
tp2981
asg2075
(lp2982
(F1.0
g966
tp2983
a(F1.0
g968
tp2984
a(F0.7421453719451525
g962
tp2985
a(F0.7357130495212694
g964
tp2986
a(F0.6843464559392592
g2114
tp2987
asg755
(lp2988
(F1.0
g753
tp2989
a(F0.7789747564646742
g757
tp2990
a(F0.4336502077821841
g124
tp2991
a(F0.4336502077821841
g126
tp2992
a(F0.4243661394250609
g122
tp2993
asg346
(lp2994
(F0.661952642789817
g342
tp2995
a(F0.6482242272215886
g340
tp2996
a(F0.6432130538162179
g348
tp2997
a(F0.6196007713779258
g350
tp2998
a(F0.6193338585568973
g344
tp2999
asS'childhood'
p3000
(lp3001
(F0.5639451870505742
g103
tp3002
a(F0.5022498228656361
g101
tp3003
a(F0.4910840232924399
g105
tp3004
a(F0.4601044762232968
g107
tp3005
a(F0.4441544379905956
g109
tp3006
asS'south'
p3007
(lp3008
(F0.633620039851879
g1491
tp3009
a(F0.5644526094692295
g1553
tp3010
a(F0.5351088346641597
g1485
tp3011
a(F0.5280879107094764
g1487
tp3012
a(F0.5071657571555037
g1489
tp3013
asg2620
(lp3014
(F0.6585570191559268
g124
tp3015
a(F0.6585570191559268
g126
tp3016
a(F0.6413017415479543
g122
tp3017
a(F0.6043347267707379
g472
tp3018
a(F0.5584151706841346
g1152
tp3019
asg1240
(lp3020
(F0.7759411907027469
g1242
tp3021
a(F0.7167017933195992
g1238
tp3022
a(F0.6922463319528405
g1236
tp3023
a(F0.6809574405907458
g1244
tp3024
a(F0.6535448336157049
g1246
tp3025
asg191
(lp3026
(F0.8585087060735703
g189
tp3027
a(F0.6653109129588802
g2494
tp3028
a(F0.6242607959555551
g2496
tp3029
a(F0.6226932191421017
g199
tp3030
a(F0.6074607239583781
g193
tp3031
asg2718
(lp3032
(F0.801591235249342
g875
tp3033
a(F0.7467582944615561
g879
tp3034
a(F0.7239169361466916
g676
tp3035
a(F0.6860828725119986
g877
tp3036
a(F0.656104982081567
g881
tp3037
asS'grade'
p3038
(lp3039
(F0.6317807441988694
g1776
tp3040
a(F0.6280001826937163
g1778
tp3041
a(F0.6199253645872894
g1780
tp3042
a(F0.6111268534330347
g1774
tp3043
a(F0.6000159335191996
S'audience'
p3044
tp3045
asg892
(lp3046
(F0.8706253787843748
g894
tp3047
a(F0.7838912733739668
g890
tp3048
a(F0.6012265292077426
g896
tp3049
a(F0.576323219203999
g898
tp3050
a(F0.5644616052977652
g900
tp3051
asS'wave'
p3052
(lp3053
(F0.7385701346129765
S'flow'
p3054
tp3055
a(F0.5827807538739869
g415
tp3056
a(F0.548559854236098
g417
tp3057
a(F0.5390256288415807
g1076
tp3058
a(F0.5322636030078562
g1078
tp3059
asg2779
(lp3060
(F0.7577447956432506
g2783
tp3061
a(F0.6869832289982102
g2776
tp3062
a(F0.6820381985217984
g2774
tp3063
a(F0.6801082803671101
g2591
tp3064
a(F0.662026596676563
g2781
tp3065
asS'hearing'
p3066
(lp3067
(F0.5296424196029567
g720
tp3068
a(F0.525708495116622
g722
tp3069
a(F0.5153822803757185
g800
tp3070
a(F0.5153822803757185
g1374
tp3071
a(F0.5104374861506135
g716
tp3072
asg117
(lp3073
(F0.8594911031222024
g19
tp3074
a(F0.8242907738798414
g23
tp3075
a(F0.8242907738798414
g114
tp3076
a(F0.7390688431387747
g119
tp3077
a(F0.6065744565433225
g15
tp3078
asg1143
(lp3079
(F0.8268494923137191
g927
tp3080
a(F0.7980562763448634
g1047
tp3081
a(F0.7598647659241161
g1137
tp3082
a(F0.7598647659241161
g1139
tp3083
a(F0.5129552324137385
g350
tp3084
asg141
(lp3085
(F0.6224693480160423
g86
tp3086
a(F0.6068262098153989
g1026
tp3087
a(F0.5882580026326172
g137
tp3088
a(F0.5427536754560437
g134
tp3089
a(F0.5189816339198463
g139
tp3090
asS'message'
p3091
(lp3092
(F0.4410410152748942
g336
tp3093
a(F0.43143382602268787
g338
tp3094
a(F0.4282496804563175
g322
tp3095
a(F0.4175875346351157
g399
tp3096
a(F0.4148594613840908
g520
tp3097
asg714
(lp3098
(F1.0
g712
tp3099
a(F0.8673127906203446
g716
tp3100
a(F0.7799413924503213
g718
tp3101
a(F0.6045052890647086
g720
tp3102
a(F0.5993860548145774
g722
tp3103
asg708
(lp3104
(F0.5670430531035235
g295
tp3105
a(F0.5240635464203259
g297
tp3106
a(F0.506937084287722
g485
tp3107
a(F0.5029952410922741
g487
tp3108
a(F0.47745988490761365
g489
tp3109
asS'stage'
p3110
(lp3111
(F0.6109937126642575
g103
tp3112
a(F0.5388291206054062
g101
tp3113
a(F0.5259984385227171
g105
tp3114
a(F0.49061590867309834
g107
tp3115
a(F0.4725218984755514
g109
tp3116
asS'engineer'
p3117
(lp3118
(F0.3768012169964144
g380
tp3119
a(F0.3768012169964144
g382
tp3120
a(F0.32273310499918473
g512
tp3121
a(F0.3199003926445344
g1253
tp3122
a(F0.3183466636216466
g1255
tp3123
asg1491
(lp3124
(F0.8335380150423949
g1553
tp3125
a(F0.7510506256251147
g1556
tp3126
a(F0.6861354176398474
g659
tp3127
a(F0.6820567669693669
g1485
tp3128
a(F0.670691252825291
g1487
tp3129
asg1663
(lp3130
(F0.79321756877559
g1661
tp3131
a(F0.7075625920693395
g1665
tp3132
a(F0.6797972058892191
g1659
tp3133
a(F0.6793396077043279
g1667
tp3134
a(F0.6637232324945691
g1657
tp3135
asg720
(lp3136
(F0.828648101813014
g800
tp3137
a(F0.828648101813014
g1374
tp3138
a(F0.7719393087282995
g2144
tp3139
a(F0.7522948101180701
g2146
tp3140
a(F0.654772722776429
g722
tp3141
asg859
(lp3142
(F0.5442936775455455
g5
tp3143
a(F0.5052364848023332
g7
tp3144
a(F0.4939015763290549
g9
tp3145
a(F0.451705231221683
g11
tp3146
a(F0.44946446004850715
g3
tp3147
asS'guest'
p3148
(lp3149
(F0.7335023478485695
S'visitor'
p3150
tp3151
a(F0.7039918141659244
S'passenger'
p3152
tp3153
a(F0.6545238175493732
S'immigrant'
p3154
tp3155
a(F0.34216929634692816
g380
tp3156
a(F0.34216929634692816
g382
tp3157
asg659
(lp3158
(F0.8357716819094153
g1556
tp3159
a(F0.6986285388532845
S'area'
p3160
tp3161
a(F0.6861354176398474
g1491
tp3162
a(F0.668391099415805
g776
tp3163
a(F0.668391099415805
g778
tp3164
asg489
(lp3165
(F1.0
g491
tp3166
a(F0.8011677160086139
g2299
tp3167
a(F0.7176684337927463
g2301
tp3168
a(F0.6999396930740803
g2295
tp3169
a(F0.6375993962106948
g295
tp3170
asg1276
(lp3171
(F0.6395060019479504
g1272
tp3172
a(F0.6319862819650498
g1270
tp3173
a(F0.6247551286492375
g1274
tp3174
a(F0.5918733176330955
g1278
tp3175
a(F0.5813579542390356
g1280
tp3176
asS'system'
p3177
(lp3178
(F0.5624859277354369
g184
tp3179
a(F0.5100421443678275
g29
tp3180
a(F0.5098844671745091
g187
tp3181
a(F0.49534825257002263
g442
tp3182
a(F0.4780782917059247
g444
tp3183
asg2498
(lp3184
(F0.7266621602103112
g2494
tp3185
a(F0.6768965209734007
g2496
tp3186
a(F0.6567364818394044
g193
tp3187
a(F0.6344968763597315
g2500
tp3188
a(F0.6082957488736962
g2502
tp3189
asS'priority'
p3190
(lp3191
(F0.5563812381894235
S'marriage'
p3192
tp3193
a(F0.44278740759577995
g295
tp3194
a(F0.4229656458856641
g297
tp3195
a(F0.41469117958812307
g485
tp3196
a(F0.41275485194779327
g487
tp3197
asS'regulation'
p3198
(lp3199
(F0.5203124177897023
g338
tp3200
a(F0.49482837765572585
g562
tp3201
a(F0.46368493535922906
g684
tp3202
a(F0.460207351975471
g686
tp3203
a(F0.4596339635372623
g688
tp3204
asg2857
(lp3205
(F0.7529081025413792
g2859
tp3206
a(F0.7237551692224938
g2861
tp3207
a(F0.6473448555351446
g2855
tp3208
a(F0.3877639449106187
g739
tp3209
a(F0.38387944288974074
g184
tp3210
asg2204
(lp3211
(F0.7228377489008524
g2202
tp3212
a(F0.6210285119622261
g2200
tp3213
a(F0.5975733904981211
g2206
tp3214
a(F0.369243710608307
g380
tp3215
a(F0.369243710608307
g382
tp3216
asg338
(lp3217
(F0.7369024668405376
g562
tp3218
a(F0.6698974438595656
g684
tp3219
a(F0.6626630509912669
g686
tp3220
a(F0.6614748515056031
g688
tp3221
a(F0.6557861364493048
g1561
tp3222
asg1971
(lp3223
(F0.7551699300269681
g241
tp3224
a(F0.6484313911076232
g1973
tp3225
a(F0.6347418049514215
g1975
tp3226
a(F0.6231603821501124
g235
tp3227
a(F0.617165998633729
g237
tp3228
asg728
(lp3229
(F0.8128473182913474
g724
tp3230
a(F0.7462485847633773
g726
tp3231
a(F0.47445101810416795
g580
tp3232
a(F0.4343812467999493
g574
tp3233
a(F0.4281308778582519
g576
tp3234
asS'friend'
p3235
(lp3236
(F0.42903661464534604
g380
tp3237
a(F0.42903661464534604
g382
tp3238
a(F0.35823003990455526
g512
tp3239
a(F0.3547432933353185
g1253
tp3240
a(F0.3528336844104461
g1255
tp3241
asg923
(lp3242
(F0.6747506210962734
g925
tp3243
a(F0.661791901201694
g1642
tp3244
a(F0.6489932111726789
g1646
tp3245
a(F0.605003947865658
g1648
tp3246
a(F0.5735456936280435
g346
tp3247
asg326
(lp3248
(F0.7273925698450942
g322
tp3249
a(F0.7190792738685139
g854
tp3250
a(F0.7165017686727099
g2276
tp3251
a(F0.6521837176218026
g324
tp3252
a(F0.649318840985051
g2391
tp3253
asS'relationship'
p3254
(lp3255
(F0.4504963415976751
g580
tp3256
a(F0.41421590899893884
g574
tp3257
a(F0.4085285941815731
g576
tp3258
a(F0.4085285941815731
g578
tp3259
a(F0.3802069076906559
g582
tp3260
asS'season'
p3261
(lp3262
(F0.5863412296020653
g103
tp3263
a(F0.5197519988530824
g101
tp3264
a(F0.5078036950830407
g105
tp3265
a(F0.47474974284476706
g107
tp3266
a(F0.4577868727133273
g109
tp3267
asS'tool'
p3268
(lp3269
(F0.6267447888132861
g184
tp3270
a(F0.5623203262989563
g29
tp3271
a(F0.5621286755334224
g187
tp3272
a(F0.5445124656654431
g442
tp3273
a(F0.5237161920752051
g444
tp3274
asg1362
(lp3275
(F0.7472293294527029
g223
tp3276
a(F0.7099874603834189
g1364
tp3277
a(F0.7075428518467115
g1366
tp3278
a(F0.7060930973972538
g1359
tp3279
a(F0.6245226747638991
g227
tp3280
asg1495
(lp3281
(F0.6695070490500921
g1485
tp3282
a(F0.6610888361845237
g1487
tp3283
a(F0.6359473901534276
g1489
tp3284
a(F0.6164076941272525
g1493
tp3285
a(F0.6021983029108163
g1491
tp3286
asg580
(lp3287
(F0.7523029444438171
g574
tp3288
a(F0.7337505805611707
g576
tp3289
a(F0.7337505805611707
g578
tp3290
a(F0.6471659574963567
g582
tp3291
a(F0.6419553022979038
g672
tp3292
asg784
(lp3293
(F0.698348116798431
g776
tp3294
a(F0.698348116798431
g778
tp3295
a(F0.5924356729498585
g780
tp3296
a(F0.5897880784918578
g782
tp3297
a(F0.5221248729565777
g774
tp3298
asS'customer'
p3299
(lp3300
(F0.9669547113705591
S'consumer'
p3301
tp3302
a(F0.4167002128479812
g380
tp3303
a(F0.4167002128479812
g382
tp3304
a(F0.35000877863462343
g512
tp3305
a(F0.346679491327668
g1253
tp3306
asg501
(lp3307
(F0.6928938016150776
g499
tp3308
a(F0.6461728158891922
g358
tp3309
a(F0.6382249820538324
g1951
tp3310
a(F0.6293409867927295
g1953
tp3311
a(F0.6293409867927295
S'government'
p3312
tp3313
asg1232
(lp3314
(F0.6702774603766121
g1224
tp3315
a(F0.6702774603766121
g1226
tp3316
a(F0.6462642075569041
g1228
tp3317
a(F0.5604366677047222
g1230
tp3318
a(F0.48579219467745854
g1234
tp3319
asg808
(lp3320
(F0.6023024821444246
g804
tp3321
a(F0.5343399990939877
g806
tp3322
a(F0.5315261853848334
g810
tp3323
a(F0.5208225003076264
g802
tp3324
a(F0.5001148107823562
g812
tp3325
asS'distance'
p3326
(lp3327
(F0.7085890648003457
S'east'
p3328
tp3329
a(F0.5451643373372037
g580
tp3330
a(F0.4929179261533402
g574
tp3331
a(F0.4848850432706274
g576
tp3332
a(F0.4848850432706274
g578
tp3333
asg69
(lp3334
(F1.0
g71
tp3335
a(F0.7709239803432196
g318
tp3336
a(F0.7545585284808675
g1937
tp3337
a(F0.7009683922713195
g1932
tp3338
a(F0.668856405580378
g65
tp3339
asg1203
(lp3340
(F0.5879224428865351
g1201
tp3341
a(F0.38442674923816184
g336
tp3342
a(F0.37710724527931627
g338
tp3343
a(F0.37467225025063483
g322
tp3344
a(F0.36648555849619624
g399
tp3345
asS'instruction'
p3346
(lp3347
(F0.6266752008920705
g338
tp3348
a(F0.5900737504485014
g562
tp3349
a(F0.5463174684938014
g684
tp3350
a(F0.5414964179052594
g686
tp3351
a(F0.5407027525276422
g688
tp3352
asg2694
(lp3353
(F0.7056665241495474
g2692
tp3354
a(F0.69156466075732
g2696
tp3355
a(F0.5776856368353117
g2698
tp3356
a(F0.42482432603450576
g380
tp3357
a(F0.42482432603450576
g382
tp3358
asg1602
(lp3359
(F0.7966630430400178
g1600
tp3360
a(F0.7309882953787646
g1598
tp3361
a(F0.6954628477632581
g1604
tp3362
a(F0.6897094358188198
g1606
tp3363
a(F0.4147607634496838
g103
tp3364
asg180
(lp3365
(F0.7986165976375706
g182
tp3366
a(F0.7503429008301038
g178
tp3367
a(F0.5589131178060727
g184
tp3368
a(F0.507102762655961
g29
tp3369
a(F0.5069468973409103
g187
tp3370
asg716
(lp3371
(F0.8673127906203446
g714
tp3372
a(F0.8673127906203446
g712
tp3373
a(F0.8095146815861293
g718
tp3374
a(F0.6312508064491041
g720
tp3375
a(F0.6256706548805728
g722
tp3376
asg914
(lp3377
(F1.0
g912
tp3378
a(F0.7293225774435581
g916
tp3379
a(F0.7205671244549523
g918
tp3380
a(F0.7027910931150588
g2889
tp3381
a(F0.7024654886623595
g908
tp3382
asg51
(lp3383
(F1.0
g49
tp3384
a(F0.921539663371382
g53
tp3385
a(F0.9211881796351096
g55
tp3386
a(F0.7551692316096594
g57
tp3387
a(F0.7216544976628294
g59
tp3388
asg672
(lp3389
(F0.96227585652343
g674
tp3390
a(F0.8275858797727147
g670
tp3391
a(F0.7660811391398278
g678
tp3392
a(F0.7599621084695399
g676
tp3393
a(F0.7381955217668795
g1333
tp3394
asg3192
(lp3395
(F0.5563812381894235
g3190
tp3396
a(F0.48966065110979995
g295
tp3397
a(F0.4655344509700483
g297
tp3398
a(F0.45553032350516937
g485
tp3399
a(F0.45319490792404504
g487
tp3400
asS'store'
p3401
(lp3402
(F1.0
S'shop'
p3403
tp3404
a(F0.8326040124670712
S'office'
p3405
tp3406
a(F0.7171713400550461
S'prison'
p3407
tp3408
a(F0.5961794008444936
g227
tp3409
a(F0.5931084652697711
g229
tp3410
asg334
(lp3411
(F0.743449552015486
g330
tp3412
a(F0.7151986343581053
g328
tp3413
a(F0.6773430797726464
g332
tp3414
a(F0.3858053455420956
g336
tp3415
a(F0.37843375370210736
g338
tp3416
asg1076
(lp3417
(F0.8476252480878717
g2534
tp3418
a(F0.6441499171179098
g415
tp3419
a(F0.6025992731214841
g417
tp3420
a(F0.5829915229798746
g1078
tp3421
a(F0.5820388474669937
g1080
tp3422
asS'bridge'
p3423
(lp3424
(F0.5353430573207076
g227
tp3425
a(F0.5328655812939899
g229
tp3426
a(F0.4851359464099541
g231
tp3427
a(F0.4851359464099541
g1445
tp3428
a(F0.47605421362505795
g223
tp3429
asg2285
(lp3430
(F1.0
g532
tp3431
a(F1.0
g2280
tp3432
a(F1.0
g2283
tp3433
a(F0.5874539711669674
g526
tp3434
a(F0.5771537458938121
g528
tp3435
asg1990
(lp3436
(F0.7962782729774968
g1988
tp3437
a(F0.7307943086971811
g1986
tp3438
a(F0.7137042955918367
g1992
tp3439
a(F0.6926096991771696
g1994
tp3440
a(F0.661723799076291
g1996
tp3441
asS'mind'
p3442
(lp3443
(F0.44119022360652166
g124
tp3444
a(F0.44119022360652166
g126
tp3445
a(F0.4315840741887804
g122
tp3446
a(F0.4107072657693049
g472
tp3447
a(F0.3931423855468374
g433
tp3448
asg696
(lp3449
(F0.8187125004107529
g692
tp3450
a(F0.7802255775917926
g694
tp3451
a(F0.7273289162692749
g698
tp3452
a(F0.7005297096242744
g700
tp3453
a(F0.689539748690043
g690
tp3454
asg2500
(lp3455
(F0.7252600484980525
g2494
tp3456
a(F0.6756797201832653
g2496
tp3457
a(F0.6555910204483925
g193
tp3458
a(F0.6344968763597315
g2498
tp3459
a(F0.6073129070945444
g2502
tp3460
asg1685
(lp3461
(F0.8892566863439367
g847
tp3462
a(F0.7505977020941905
g1687
tp3463
a(F0.6854934910293045
g1682
tp3464
a(F0.6610929306739224
g845
tp3465
a(F0.6413344550661223
g148
tp3466
asg2283
(lp3467
(F1.0
g532
tp3468
a(F1.0
g2280
tp3469
a(F1.0
g2285
tp3470
a(F0.5874539711669674
g526
tp3471
a(F0.5771537458938121
g528
tp3472
asg83
(lp3473
(F0.6283074973404441
g55
tp3474
a(F0.6260720842463298
g86
tp3475
a(F0.6203554301831865
g53
tp3476
a(F0.6065803046747946
g79
tp3477
a(F0.5981365641803051
g1297
tp3478
asg2637
(lp3479
(F0.8330100377291129
g2635
tp3480
a(F0.7273207480012146
g2376
tp3481
a(F0.6279550533687795
g2192
tp3482
a(F0.6096241677964336
g2401
tp3483
a(F0.58798034923582
g195
tp3484
asg11
(lp3485
(F0.5231577073608042
g5
tp3486
a(F0.4839081143866072
g7
tp3487
a(F0.47256903844488984
g9
tp3488
a(F0.46930942009836973
g3
tp3489
a(F0.451705231221683
g859
tp3490
asg2054
(lp3491
(F0.6974411015522075
g1278
tp3492
a(F0.6929986047068677
g1272
tp3493
a(F0.6856603185751695
g1280
tp3494
a(F0.6848743647983416
g2052
tp3495
a(F0.6022991387970686
g2457
tp3496
asg1918
(lp3497
(F0.8312319830198225
g1920
tp3498
a(F0.6810180725793052
g1916
tp3499
a(F0.6405904004227266
g1922
tp3500
asS'issue'
p3501
(lp3502
(F0.47401823019909695
g124
tp3503
a(F0.47401823019909695
g126
tp3504
a(F0.46501235987287703
g122
tp3505
a(F0.44526289149077874
g472
tp3506
a(F0.41982684393870295
g1152
tp3507
asg360
(lp3508
(F0.841700895197117
g358
tp3509
a(F0.7754828400776533
g602
tp3510
a(F0.7587494704314623
g1352
tp3511
a(F0.7287571377370995
g2260
tp3512
a(F0.7008730042376494
g2262
tp3513
asS'snow'
p3514
(lp3515
(F0.9099155919538633
S'rain'
p3516
tp3517
a(F0.7898069976295157
g962
tp3518
a(F0.7564210879253069
g2120
tp3519
a(F0.6797402305732595
S'storm'
p3520
tp3521
a(F0.6509846672980182
g964
tp3522
asS'client'
p3523
(lp3524
(F0.8596746634477309
S'patient'
p3525
tp3526
a(F0.31859725377777426
g380
tp3527
a(F0.31859725377777426
g382
tp3528
asg698
(lp3529
(F0.8380568228623989
g694
tp3530
a(F0.8263201461441222
g1575
tp3531
a(F0.7940055414568389
g692
tp3532
a(F0.7546738800315304
g700
tp3533
a(F0.7273289162692749
g696
tp3534
asg187
(lp3535
(F0.6882512924684638
g184
tp3536
a(F0.6113374785757201
g29
tp3537
a(F0.5903476449733129
g442
tp3538
a(F0.5659812342128852
g444
tp3539
a(F0.5621286755334224
g3268
tp3540
asS'chest'
p3541
(lp3542
(F0.5326842992230855
g152
tp3543
a(F0.5122249987520172
g146
tp3544
a(F0.5025402931041957
g154
tp3545
a(F0.501374969677709
S'back'
p3546
tp3547
a(F0.4944890179015702
g2106
tp3548
asg2299
(lp3549
(F0.8011677160086139
g489
tp3550
a(F0.8011677160086139
g491
tp3551
a(F0.6063873996917591
g2301
tp3552
a(F0.5936817382203288
g2295
tp3553
a(F0.5035825928313886
g295
tp3554
asg283
(lp3555
(F0.7095151516055789
g152
tp3556
a(F0.6586481864798883
g2106
tp3557
a(F0.6391230504880097
g2108
tp3558
a(F0.6365001695835645
g2110
tp3559
a(F0.6344538687037845
g2112
tp3560
asS'depression'
p3561
(lp3562
(F0.6674803367653914
g55
tp3563
a(F0.6608610414694711
g53
tp3564
a(F0.6312591744409305
g51
tp3565
a(F0.6312591744409305
g49
tp3566
a(F0.6095226643207118
g57
tp3567
asS'finding'
p3568
(lp3569
(F0.4312287185991242
g170
tp3570
a(F0.41083467656672545
g172
tp3571
a(F0.37617020713690297
g174
tp3572
a(F0.3492068475799143
g176
tp3573
a(F0.34686358148317625
g350
tp3574
asg588
(lp3575
(F0.8283827770917718
g590
tp3576
a(F0.8283827770917718
g592
tp3577
a(F0.6435082725089416
g584
tp3578
a(F0.6276264679709825
g586
tp3579
a(F0.4088914006999437
g170
tp3580
asg1565
(lp3581
(F1.0
g1561
tp3582
a(F1.0
g1563
tp3583
a(F0.6557861364493048
g338
tp3584
a(F0.6158136612229692
g562
tp3585
a(F0.5683103468952244
g684
tp3586
asg688
(lp3587
(F0.7136726859335475
g686
tp3588
a(F0.6755163632889815
g869
tp3589
a(F0.6740740108074411
g854
tp3590
a(F0.6614748515056031
g338
tp3591
a(F0.6412361495670554
g941
tp3592
asS'play'
p3593
(lp3594
(F0.6103114590535132
g322
tp3595
a(F0.5564692530268625
g324
tp3596
a(F0.5416808112595971
g316
tp3597
a(F0.5357122168666332
g326
tp3598
a(F0.5142351583351534
g854
tp3599
asg1698
(lp3600
(F0.6897222670655384
g1062
tp3601
a(F0.6895187472968877
g1064
tp3602
a(F0.6687171375602827
g1066
tp3603
a(F0.6598330714694157
g1696
tp3604
a(F0.6414743093620311
g1691
tp3605
asg2686
(lp3606
(F0.8630178118639213
g2684
tp3607
a(F0.5461050463314974
g124
tp3608
a(F0.5461050463314974
g126
tp3609
a(F0.5341861790060608
g122
tp3610
a(F0.5082875638375838
g472
tp3611
asg655
(lp3612
(F0.8376077658204142
g653
tp3613
a(F0.8149254728249723
g651
tp3614
a(F0.7350684668899637
g649
tp3615
a(F0.7131389205538505
g657
tp3616
a(F0.44285944343215267
g659
tp3617
asS'price'
p3618
(lp3619
(F0.8428031343480418
g481
tp3620
a(F0.5835915906043305
g390
tp3621
a(F0.563574589201849
g392
tp3622
a(F0.5537585946498134
g394
tp3623
a(F0.545720320153771
g384
tp3624
asS'object'
p3625
(lp3626
(F0.4208141897971293
g380
tp3627
a(F0.4208141897971293
g382
tp3628
a(F0.3613729572814112
S'location'
p3629
tp3630
a(F0.30627246962202515
g659
tp3631
asS'victim'
p3632
(lp3633
(F0.8115962827492607
g3525
tp3634
a(F0.3851577868753214
g380
tp3635
a(F0.3851577868753214
g382
tp3636
a(F0.32853444856059894
g512
tp3637
a(F0.32559944416229564
g1253
tp3638
asg2187
(lp3639
(F0.8776795091869134
S'wood'
p3640
tp3641
a(F0.7577354348844293
g195
tp3642
a(F0.7287784022346908
g197
tp3643
a(F0.610067242601982
g582
tp3644
a(F0.6060867962464376
g827
tp3645
asS'mouth'
p3646
(lp3647
(F0.6449593120487964
S'brain'
p3648
tp3649
a(F0.5537303930764336
g152
tp3650
a(F0.5316559793231757
g146
tp3651
a(F0.5212300467398063
g154
tp3652
a(F0.5199765415572323
g3546
tp3653
asg310
(lp3654
(F1.0
g132
tp3655
a(F0.7553140030337475
g122
tp3656
a(F0.6422456089895623
g124
tp3657
a(F0.6422456089895623
g126
tp3658
a(F0.6394116975267736
g128
tp3659
asg318
(lp3660
(F0.9014154360143516
g316
tp3661
a(F0.7408747246883417
g320
tp3662
a(F0.6757805735525722
g322
tp3663
a(F0.6103861763524832
g324
tp3664
a(F0.5855018669787607
g326
tp3665
asg499
(lp3666
(F0.6928938016150776
g501
tp3667
a(F0.6626334389589269
g358
tp3668
a(F0.6535469932857041
g1812
tp3669
a(F0.6529699419516136
g1951
tp3670
a(F0.6450539171380336
g1814
tp3671
asg643
(lp3672
(F0.7198530395536472
g641
tp3673
a(F0.6411663700996131
g211
tp3674
a(F0.6411663700996131
g213
tp3675
a(F0.5982964597471837
g215
tp3676
a(F0.5780777726082317
g217
tp3677
asS'knee'
p3678
(lp3679
(F0.544833530057654
g152
tp3680
a(F0.5234490659920075
g146
tp3681
a(F0.5133394687780195
g154
tp3682
a(F0.5121235841361137
g3546
tp3683
a(F0.5049413364375059
g2106
tp3684
asg211
(lp3685
(F1.0
g213
tp3686
a(F0.763762602426523
g215
tp3687
a(F0.7311190987149214
g217
tp3688
a(F0.7230772984056973
g219
tp3689
a(F0.700804039850722
g1890
tp3690
asg350
(lp3691
(F0.6196007713779258
g346
tp3692
a(F0.6129286588753491
g348
tp3693
a(F0.5692291174342173
g927
tp3694
a(F0.5452802641904841
g1047
tp3695
a(F0.5448684245462908
g923
tp3696
asS'observation'
p3697
(lp3698
(F0.42955013421914723
g174
tp3699
a(F0.4032393963811352
g176
tp3700
a(F0.4005852688638393
g305
tp3701
a(F0.3981559370741002
g307
tp3702
a(F0.3981559370741002
g1012
tp3703
asS'egg'
p3704
(lp3705
(F0.32103358040139734
g380
tp3706
a(F0.32103358040139734
g382
tp3707
asg772
(lp3708
(F0.8253712407549683
g770
tp3709
a(F0.7479669082314366
g766
tp3710
a(F0.7479669082314366
g768
tp3711
a(F0.73633295644146
g762
tp3712
a(F0.73633295644146
g764
tp3713
asg225
(lp3714
(F0.7554753097775924
g223
tp3715
a(F0.7285922934834247
g221
tp3716
a(F0.526088786145904
g227
tp3717
a(F0.5236960327285282
g229
tp3718
a(F0.4775237595250635
g231
tp3719
asg3054
(lp3720
(F0.7385701346129765
g3052
tp3721
a(F0.624559948730819
g415
tp3722
a(F0.5854213824778293
g417
tp3723
a(F0.5745754321272369
g1076
tp3724
a(F0.5668984075558193
g1078
tp3725
asg86
(lp3726
(F0.8357973673362034
g137
tp3727
a(F0.7652326469889412
g139
tp3728
a(F0.7413156404877701
g141
tp3729
a(F0.7054704231772929
g1026
tp3730
a(F0.6793938953698577
g134
tp3731
asg150
(lp3732
(F0.906530526562357
g146
tp3733
a(F0.8224369339896256
g144
tp3734
a(F0.5584199504721954
g152
tp3735
a(F0.5253832022629176
g154
tp3736
a(F0.5241096660683057
g3546
tp3737
asg3520
(lp3738
(F0.8123673828141836
g962
tp3739
a(F0.7569094619908258
g2120
tp3740
a(F0.7119438859482845
g3516
tp3741
a(F0.6797402305732595
g3514
tp3742
a(F0.6694438140876234
g964
tp3743
asg2120
(lp3744
(F0.89594186284354
g962
tp3745
a(F0.7954480576498856
g3516
tp3746
a(F0.7569094619908258
g3520
tp3747
a(F0.7564210879253069
g3514
tp3748
a(F0.7377601174579622
g964
tp3749
asg590
(lp3750
(F1.0
g592
tp3751
a(F0.8283827770917718
g588
tp3752
a(F0.7643969664818249
S'book'
p3753
tp3754
a(F0.6417697550437275
g584
tp3755
a(F0.6310832103057775
g996
tp3756
asg988
(lp3757
(F0.6891181557453679
g986
tp3758
a(F0.6741130550767276
g421
tp3759
a(F0.6688493646255541
g419
tp3760
a(F0.6258422249482741
g582
tp3761
a(F0.6216539727919448
g827
tp3762
asS'notion'
p3763
(lp3764
(F0.676051155448256
g122
tp3765
a(F0.581678433197021
g128
tp3766
a(F0.581678433197021
g130
tp3767
a(F0.5762274959033175
g132
tp3768
a(F0.5762274959033175
g310
tp3769
asg1064
(lp3770
(F0.7675470842985703
g1062
tp3771
a(F0.7416233775092084
g1066
tp3772
a(F0.7307123634534543
g1696
tp3773
a(F0.7082646520313219
g1691
tp3774
a(F0.6895187472968877
g1698
tp3775
asg3403
(lp3776
(F1.0
g3401
tp3777
a(F0.8326040124670712
g3405
tp3778
a(F0.7171713400550461
g3407
tp3779
a(F0.5961794008444936
g227
tp3780
a(F0.5931084652697711
g229
tp3781
asg247
(lp3782
(F0.9523962555045051
g245
tp3783
a(F0.8825547915164981
g249
tp3784
a(F0.8478044352659251
g251
tp3785
a(F0.6664020345741896
g253
tp3786
a(F0.6617466513999551
g255
tp3787
asg1018
(lp3788
(F0.8850057739163742
g1014
tp3789
a(F0.8464730178915186
g1016
tp3790
a(F0.7728498538853064
g1020
tp3791
a(F0.7171676387366459
g1022
tp3792
a(F0.6870924440043097
g1024
tp3793
asS'gold'
p3794
(lp3795
(F0.6393261069960059
g676
tp3796
a(F0.6249359562682097
g875
tp3797
a(F0.6096360680146702
g877
tp3798
a(F0.5867717820701379
g879
tp3799
a(F0.585850758637876
g881
tp3800
asg1024
(lp3801
(F0.8179829175254926
S'sport'
p3802
tp3803
a(F0.7044744706544919
g1014
tp3804
a(F0.6870924440043097
g1018
tp3805
a(F0.6770705222453364
g1022
tp3806
a(F0.6687548960771044
g1016
tp3807
asg3150
(lp3808
(F0.7621450149498982
g3152
tp3809
a(F0.7335023478485695
g3148
tp3810
a(F0.7045014584429224
g3154
tp3811
a(F0.38917017622290667
g380
tp3812
a(F0.38917017622290667
g382
tp3813
asg405
(lp3814
(F0.7671756853830963
g2182
tp3815
a(F0.7384791366899981
g401
tp3816
a(F0.7213808944564564
g403
tp3817
a(F0.6846120414219818
g399
tp3818
a(F0.6364163291946865
g324
tp3819
asg1002
(lp3820
(F0.9077900067824446
g998
tp3821
a(F0.9077900067824446
g1000
tp3822
a(F0.8389266320458705
g1004
tp3823
a(F0.8020561612153329
g994
tp3824
a(F0.7003558725097079
g996
tp3825
asg2419
(lp3826
(F0.6168988971734414
g619
tp3827
a(F0.5981294922283512
g621
tp3828
a(F0.5937266626317629
g623
tp3829
a(F0.5756504057280388
g625
tp3830
a(F0.5708972934794525
g2415
tp3831
asg1591
(lp3832
(F0.751001528363002
g227
tp3833
a(F0.6518688939920115
g1589
tp3834
a(F0.6079892549459428
g1594
tp3835
a(F0.586012224308993
g1596
tp3836
a(F0.576732034887329
g229
tp3837
asg841
(lp3838
(F0.8849760763414174
g839
tp3839
a(F0.8553159300407134
g843
tp3840
a(F0.7879398391428786
g837
tp3841
a(F0.6669444496853744
g845
tp3842
a(F0.6652996650548766
g847
tp3843
asg2502
(lp3844
(F0.7075746489188303
g2494
tp3845
a(F0.6613247556271266
g2496
tp3846
a(F0.6425006130219134
g193
tp3847
a(F0.6082957488736962
g2498
tp3848
a(F0.6073129070945444
g2500
tp3849
asg2182
(lp3850
(F0.7671756853830963
g405
tp3851
a(F0.7043763107289179
g401
tp3852
a(F0.6888041423491477
g403
tp3853
a(F0.6489133983561358
g399
tp3854
a(F0.605453370786283
g324
tp3855
asS'decade'
p3856
(lp3857
(F0.6289711188343708
g103
tp3858
a(F0.5526179618391062
g101
tp3859
a(F0.5391304121346633
g105
tp3860
a(F0.5020214422963637
g107
tp3861
a(F0.4830926057371373
g109
tp3862
asg1354
(lp3863
(F0.7389432776970762
g1352
tp3864
a(F0.6927820476780874
g1350
tp3865
a(F0.5385554252142672
g501
tp3866
a(F0.5354721105422278
g499
tp3867
a(F0.5225505842179894
g358
tp3868
asS'impact'
p3869
(lp3870
(F0.5822060076783449
g415
tp3871
a(F0.5480505950208425
g417
tp3872
a(F0.5385339101790205
g1076
tp3873
a(F0.5317841386030645
g1078
tp3874
a(F0.5309913568931942
g1080
tp3875
asS'access'
p3876
(lp3877
(F0.8425300898618066
g1428
tp3878
a(F0.6210345992359603
g122
tp3879
a(F0.5770750851185265
g128
tp3880
a(F0.5770750851185265
g130
tp3881
a(F0.5442356069307248
g1430
tp3882
asg1575
(lp3883
(F0.8263201461441222
g698
tp3884
a(F0.7775240657283473
g694
tp3885
a(F0.7341179107003484
g692
tp3886
a(F0.7052320529824241
g700
tp3887
a(F0.6767567855595328
g696
tp3888
asg3405
(lp3889
(F0.8326040124670712
g3401
tp3890
a(F0.8326040124670712
g3403
tp3891
a(F0.6936375928921983
g3407
tp3892
a(F0.5712224917564
g227
tp3893
a(F0.5684026740818663
g229
tp3894
asg320
(lp3895
(F0.767227746489307
g316
tp3896
a(F0.7408747246883417
g318
tp3897
a(F0.5634151979642058
g322
tp3898
a(F0.5172163690118567
g324
tp3899
a(F0.49923711195816817
g326
tp3900
asS'justice'
p3901
(lp3902
(F0.7679531125010088
g1191
tp3903
a(F0.7679531125010088
g1193
tp3904
a(F0.5631356637280286
g390
tp3905
a(F0.5444748969548583
g392
tp3906
a(F0.5353075502583424
g394
tp3907
asg1613
(lp3908
(F0.6847366350853027
g1611
tp3909
a(F0.6823498110298744
g1609
tp3910
a(F0.32709709601664066
g380
tp3911
a(F0.32709709601664066
g382
tp3912
asg847
(lp3913
(F0.8892566863439367
g1685
tp3914
a(F0.8049903483856192
g1687
tp3915
a(F0.7305763256422304
g1682
tp3916
a(F0.7156815508398712
g845
tp3917
a(F0.692582317258579
g148
tp3918
asg199
(lp3919
(F0.7048158273989444
g193
tp3920
a(F0.6499239471575131
g189
tp3921
a(F0.6226932191421017
g191
tp3922
a(F0.5775719173803806
g2192
tp3923
a(F0.5657656083930173
g2376
tp3924
asg487
(lp3925
(F0.6708818670273307
g295
tp3926
a(F0.6264041416458517
g297
tp3927
a(F0.6084248867634716
g485
tp3928
a(F0.577131164906834
g489
tp3929
a(F0.577131164906834
g491
tp3930
asg1563
(lp3931
(F1.0
g1561
tp3932
a(F1.0
g1565
tp3933
a(F0.6557861364493048
g338
tp3934
a(F0.6158136612229692
g562
tp3935
a(F0.5683103468952244
g684
tp3936
asg249
(lp3937
(F0.9033146935105393
g245
tp3938
a(F0.8825547915164981
g247
tp3939
a(F0.8091041551039592
g251
tp3940
a(F0.6298926657541122
g253
tp3941
a(F0.6257318148456723
g255
tp3942
asS'black'
p3943
(lp3944
(F0.7901501647882366
g528
tp3945
a(F0.5075679310393513
g526
tp3946
a(F0.4912157155163621
g522
tp3947
a(F0.4912157155163621
g524
tp3948
a(F0.4877743793779234
g530
tp3949
asg413
(lp3950
(F0.9167325383182364
g411
tp3951
a(F0.8144540059860906
g409
tp3952
a(F0.7426203442710267
g407
tp3953
a(F0.5682145280373982
g415
tp3954
a(F0.5356350924341279
g417
tp3955
asg1994
(lp3956
(F0.6985096590172355
g1988
tp3957
a(F0.6926096991771696
g1990
tp3958
a(F0.6424312191514204
g1986
tp3959
a(F0.6277565358322867
g1992
tp3960
a(F0.5830219485557131
g1996
tp3961
asg3
(lp3962
(F0.7225137670823246
g1
tp3963
a(F0.5201543164212425
g5
tp3964
a(F0.48133736634512325
g7
tp3965
a(F0.4701170506795864
g9
tp3966
a(F0.46930942009836973
g11
tp3967
asg1246
(lp3968
(F0.6535448336157049
g1240
tp3969
a(F0.6152417263959529
g1242
tp3970
a(F0.5774004126121567
g1238
tp3971
a(F0.5614216568860938
g1236
tp3972
a(F0.5539735000563797
g1244
tp3973
asS'personality'
p3974
(lp3975
(F0.3661916853425826
g708
tp3976
a(F0.3597591288150638
g295
tp3977
a(F0.3419658493209391
g297
tp3978
a(F0.33458977894616976
g485
tp3979
a(F0.33286804445332124
g487
tp3980
asg1385
(lp3981
(F0.6217059252875918
g1379
tp3982
a(F0.6217059252875918
g1381
tp3983
a(F0.6214068520117922
g1383
tp3984
a(F0.5822403761403161
g1377
tp3985
a(F0.5069622252154862
g184
tp3986
asS'extent'
p3987
(lp3988
(F0.4879827608611274
g295
tp3989
a(F0.46401757482992656
g297
tp3990
a(F0.454077839148244
g485
tp3991
a(F0.45175725509928466
g487
tp3992
a(F0.4364171425355863
g489
tp3993
asS'background'
p3994
(lp3995
(F0.3215072554127206
g708
tp3996
a(F0.31653812817497845
g295
tp3997
a(F0.30268101841096634
g297
tp3998
asg1195
(lp3999
(F0.6633794605583068
g1189
tp4000
a(F0.6257987034033748
g1191
tp4001
a(F0.6257987034033748
g1193
tp4002
a(F0.6073255743678231
g1197
tp4003
a(F0.5793678688670111
g1199
tp4004
asS'pocket'
p4005
(lp4006
(F0.6005001297232796
g27
tp4007
a(F0.5698485887559017
g25
tp4008
a(F0.5504938442437033
g162
tp4009
a(F0.549306113789944
g156
tp4010
a(F0.5431596931435602
g164
tp4011
asS'breast'
p4012
(lp4013
(F0.7165715349742049
g152
tp4014
a(F0.6647247252725172
g2106
tp4015
a(F0.6448430958982432
g2108
tp4016
a(F0.6421731542674837
g2110
tp4017
a(F0.640090274066367
g2112
tp4018
asg2278
(lp4019
(F0.6460684634668424
g322
tp4020
a(F0.6456158969573134
g326
tp4021
a(F0.6184666789617658
g854
tp4022
a(F0.6164560669154502
g2276
tp4023
a(F0.5860426675693472
g324
tp4024
asg1665
(lp4025
(F0.7489719180150511
g1661
tp4026
a(F0.7075625920693395
g1663
tp4027
a(F0.6726945488709531
g1667
tp4028
a(F0.6428792628388408
g1659
tp4029
a(F0.6395429663984304
g1675
tp4030
asg356
(lp4031
(F0.6997450076930578
g354
tp4032
a(F0.6876650083105966
g352
tp4033
a(F0.612267777793194
g358
tp4034
a(F0.5960049828438863
g360
tp4035
a(F0.5857558301728876
g362
tp4036
asS'child'
p4037
(lp4038
(F1.0
S'kid'
p4039
tp4040
a(F0.8401071082107572
S'youth'
p4041
tp4042
a(F0.42559294076991455
g380
tp4043
a(F0.42559294076991455
g382
tp4044
a(F0.35594494020401535
g512
tp4045
asS'Republican'
p4046
(lp4047
(F0.638616359689506
S'candidate'
p4048
tp4049
a(F0.6249089934229491
S'Democrat'
p4050
tp4051
a(F0.5763887328071009
g15
tp4052
a(F0.5476188555384406
g17
tp4053
a(F0.5309214498947795
g19
tp4054
asg1596
(lp4055
(F0.6690797150006561
g227
tp4056
a(F0.5916526966138265
g1589
tp4057
a(F0.586012224308993
g1591
tp4058
a(F0.5552791932055704
g1594
tp4059
a(F0.5141010264513043
g229
tp4060
asg2202
(lp4061
(F0.7515720829671886
g2200
tp4062
a(F0.7228377489008524
g2204
tp4063
a(F0.7174903551485873
g2206
tp4064
a(F0.5065014226913922
g380
tp4065
a(F0.5065014226913922
g382
tp4066
asg2260
(lp4067
(F0.7501516330990121
g358
tp4068
a(F0.7287571377370995
g360
tp4069
a(F0.6971009280884011
g602
tp4070
a(F0.6835497026154049
g1352
tp4071
a(F0.6362191973270481
g2262
tp4072
asg95
(lp4073
(F0.829582275150826
g257
tp4074
a(F0.7751437088005065
g93
tp4075
a(F0.738099585867982
g91
tp4076
a(F0.6564700207977585
g97
tp4077
a(F0.6473669923886723
g99
tp4078
asg1097
(lp4079
(F0.6506160147343434
g27
tp4080
a(F0.6147874451731801
g25
tp4081
a(F0.5923198407328146
g162
tp4082
a(F0.5909449938587756
g156
tp4083
a(F0.5838374537064306
g164
tp4084
asg582
(lp4085
(F0.8064570607457914
g827
tp4086
a(F0.6891556284168976
g574
tp4087
a(F0.6794143792387253
g2882
tp4088
a(F0.6760936395339765
g576
tp4089
a(F0.6760936395339765
g578
tp4090
asg354
(lp4091
(F0.717867419786897
g352
tp4092
a(F0.6997450076930578
g356
tp4093
a(F0.5841639801608873
g358
tp4094
a(F0.5693418116953016
g360
tp4095
a(F0.5599819684868296
g362
tp4096
asg170
(lp4097
(F0.6819372518364331
g172
tp4098
a(F0.6236166725628454
g1086
tp4099
a(F0.5914666020366441
g174
tp4100
a(F0.5673470789174863
g1084
tp4101
a(F0.5274334669362564
g176
tp4102
asg423
(lp4103
(F0.7727433248771579
g427
tp4104
a(F0.7534830113811402
S'sea'
p4105
tp4106
a(F0.5841246359634988
g152
tp4107
a(F0.5563641862528986
g146
tp4108
a(F0.5434061212963356
g154
tp4109
asg2164
(lp4110
(F0.863237966463424
g2162
tp4111
a(F0.6154442442422979
g253
tp4112
a(F0.6114714846101802
g255
tp4113
a(F0.5797128622455747
g245
tp4114
a(F0.5711247311675834
g2169
tp4115
asg119
(lp4116
(F0.7848132791967188
g19
tp4117
a(F0.7522264817471712
g23
tp4118
a(F0.7522264817471712
g114
tp4119
a(F0.7390688431387747
g117
tp4120
a(F0.6161358543851283
g15
tp4121
asg2146
(lp4122
(F0.7522948101180701
g720
tp4123
a(F0.7301719940972186
g800
tp4124
a(F0.7301719940972186
g1374
tp4125
a(F0.6857797656977135
g2144
tp4126
a(F0.5752538801325522
g722
tp4127
asg215
(lp4128
(F0.763762602426523
g211
tp4129
a(F0.763762602426523
g213
tp4130
a(F0.6758945141231598
g217
tp4131
a(F0.66901598084931
g219
tp4132
a(F0.6499047508684551
g1890
tp4133
asg65
(lp4134
(F0.6695773378508924
g67
tp4135
a(F0.668856405580378
g69
tp4136
a(F0.668856405580378
g71
tp4137
a(F0.6682332585068165
g3753
tp4138
a(F0.6621387807345543
g590
tp4139
asg1864
(lp4140
(F0.9195559532087768
g1430
tp4141
a(F0.9195559532087768
g1862
tp4142
a(F0.6695711421521899
g122
tp4143
a(F0.6159321734779102
g128
tp4144
a(F0.6159321734779102
g130
tp4145
asS'reference'
p4146
(lp4147
(F0.6075512258007653
g686
tp4148
a(F0.60675692941152
g688
tp4149
a(F0.5796771396163912
g869
tp4150
a(F0.5786147016367806
g854
tp4151
a(F0.5542508946863268
g941
tp4152
asg99
(lp4153
(F0.690279397159808
g93
tp4154
a(F0.6607480714307733
g91
tp4155
a(F0.6473669923886723
g95
tp4156
a(F0.5945641841684172
g97
tp4157
a(F0.581770515737109
g2041
tp4158
asg2316
(lp4159
(F0.7739931463884452
g2314
tp4160
a(F0.5191222301458482
g227
tp4161
a(F0.5167922873041859
g229
tp4162
a(F0.4717770237134217
g231
tp4163
a(F0.4717770237134217
g1445
tp4164
asg3154
(lp4165
(F0.7045014584429224
g3150
tp4166
a(F0.6772349695386662
g3152
tp4167
a(F0.6545238175493732
g3148
tp4168
a(F0.3220309606455849
g380
tp4169
a(F0.3220309606455849
g382
tp4170
asS'culture'
p4171
(lp4172
(F0.49900270433058236
g499
tp4173
a(F0.4369995800010701
g501
tp4174
a(F0.4247656904902389
g358
tp4175
a(F0.42077391581754525
g1951
tp4176
a(F0.4162840990602008
g1953
tp4177
asg1156
(lp4178
(F0.7638283636958881
g1154
tp4179
a(F0.5920166437848619
g442
tp4180
a(F0.5725461986373065
g444
tp4181
a(F0.5594510889019829
g446
tp4182
a(F0.5411704629084261
g448
tp4183
asg945
(lp4184
(F0.6924538222137617
g947
tp4185
a(F0.6667914549159005
g943
tp4186
a(F0.5529828919797861
g499
tp4187
a(F0.47784957615025875
g501
tp4188
a(F0.46325975779512757
g358
tp4189
asg966
(lp4190
(F1.0
g968
tp4191
a(F1.0
g2075
tp4192
a(F0.7421453719451525
g962
tp4193
a(F0.7357130495212694
g964
tp4194
a(F0.6843464559392592
g2114
tp4195
asg4105
(lp4196
(F0.7534830113811402
g423
tp4197
a(F0.6794900560361178
g427
tp4198
a(F0.5097603405159192
g152
tp4199
a(F0.488489573517266
g146
tp4200
a(F0.47847187012526304
g154
tp4201
asS'hero'
p4202
(lp4203
(F0.5856379569657945
g15
tp4204
a(F0.555961109591365
g17
tp4205
a(F0.5387590931205531
g19
tp4206
a(F0.5359620830949996
g21
tp4207
a(F0.5173671007006533
g23
tp4208
asg2760
(lp4209
(F0.8296854394834576
g2758
tp4210
a(F0.5679846167828471
g2762
tp4211
a(F0.40273874560221257
g124
tp4212
a(F0.40273874560221257
g126
tp4213
a(F0.3962190855286616
g122
tp4214
asg3802
(lp4215
(F0.8179829175254926
g1024
tp4216
a(F0.6980028325654379
g1014
tp4217
a(F0.6809348294614974
g1018
tp4218
a(F0.6710904457408425
g1022
tp4219
a(F0.6629201764780787
g1016
tp4220
asg2112
(lp4221
(F0.8751662889447862
S'leg'
p4222
tp4223
a(F0.814458611564892
g2106
tp4224
a(F0.7365463181988124
g152
tp4225
a(F0.6609740830398764
g2108
tp4226
a(F0.6581691820176526
g2110
tp4227
asS'bomb'
p4228
(lp4229
(F0.5609290745350989
g442
tp4230
a(F0.5434195388539104
g444
tp4231
a(F0.5316091504487251
g446
tp4232
a(F0.5150758893623408
g448
tp4233
a(F0.49447632298206917
g184
tp4234
asg53
(lp4235
(F0.9756175332683997
g55
tp4236
a(F0.921539663371382
g51
tp4237
a(F0.921539663371382
g49
tp4238
a(F0.795057543075762
g57
tp4239
a(F0.7579956627416278
g59
tp4240
asg4041
(lp4241
(F0.8401071082107572
g4039
tp4242
a(F0.8401071082107572
g4037
tp4243
a(F0.35437246932528155
g380
tp4244
a(F0.35437246932528155
g382
tp4245
a(F0.3069230680226975
g512
tp4246
asS'capacity'
p4247
(lp4248
(F0.4870900739590645
g390
tp4249
a(F0.4730661438543691
g392
tp4250
a(F0.46613042084355016
g394
tp4251
a(F0.4604217434674764
g384
tp4252
a(F0.45149194687642835
g481
tp4253
asS'expert'
p4254
(lp4255
(F0.4957323111596854
g380
tp4256
a(F0.4957323111596854
g382
tp4257
a(F0.40103869606491993
g512
tp4258
a(F0.3966738986503073
g1253
tp4259
a(F0.39428769748475795
g1255
tp4260
asg1648
(lp4261
(F0.7424941551356717
g925
tp4262
a(F0.7171754544467202
g1646
tp4263
a(F0.605003947865658
g923
tp4264
a(F0.5138652623796429
g1642
tp4265
a(F0.5030798160905039
g346
tp4266
asS'pattern'
p4267
(lp4268
(F0.4219825461777099
g124
tp4269
a(F0.4219825461777099
g126
tp4270
a(F0.4131862787217188
g122
tp4271
a(F0.3940118899879808
g472
tp4272
a(F0.3778178667825517
g433
tp4273
asg251
(lp4274
(F0.8665523322734112
g245
tp4275
a(F0.8478044352659251
g247
tp4276
a(F0.8091041551039592
g249
tp4277
a(F0.6027104629803889
g253
tp4278
a(F0.5988998895955275
g255
tp4279
asg4222
(lp4280
(F0.8751662889447862
g2112
tp4281
a(F0.7950564151670262
g2106
tp4282
a(F0.7176295886909448
g152
tp4283
a(F0.6456998033341932
g2108
tp4284
a(F0.6430227774052946
g2110
tp4285
asg130
(lp4286
(F1.0
g128
tp4287
a(F0.8538234178681469
g1423
tp4288
a(F0.7647072773622363
g122
tp4289
a(F0.6568944633833588
g1428
tp4290
a(F0.6504449960177207
g124
tp4291
asg1556
(lp4292
(F0.8357716819094153
g659
tp4293
a(F0.7510506256251147
g1491
tp4294
a(F0.6682567185004747
g3160
tp4295
a(F0.6405390328878633
g776
tp4296
a(F0.6405390328878633
g778
tp4297
asg704
(lp4298
(F0.6792264427254776
g702
tp4299
a(F0.5814881223614652
g706
tp4300
a(F0.38610102025360293
g708
tp4301
a(F0.3789568140817261
g295
tp4302
a(F0.35926584490165064
g297
tp4303
asg2106
(lp4304
(F0.8502560535462803
g152
tp4305
a(F0.814458611564892
g2112
tp4306
a(F0.7950564151670262
g4222
tp4307
a(F0.7561945311428355
g2110
tp4308
a(F0.6872752466959067
g2108
tp4309
asg1646
(lp4310
(F0.7960207966926677
g925
tp4311
a(F0.7171754544467202
g1648
tp4312
a(F0.6489932111726789
g923
tp4313
a(F0.5452557330154967
g1642
tp4314
a(F0.543738033478176
g346
tp4315
asg438
(lp4316
(F0.6620363101207021
g433
tp4317
a(F0.6022331405754232
g431
tp4318
a(F0.5980586064183793
g435
tp4319
a(F0.5660096780956337
g429
tp4320
a(F0.5388909921928802
g253
tp4321
asg745
(lp4322
(F0.729505278413662
g743
tp4323
a(F0.7049797578306155
g747
tp4324
a(F0.6915748248385151
g749
tp4325
a(F0.47086961187100723
g174
tp4326
a(F0.43943882183153676
g176
tp4327
asg666
(lp4328
(F0.5912093717562743
g390
tp4329
a(F0.5706755783275759
g392
tp4330
a(F0.5606128724497275
g394
tp4331
a(F0.5523758551127393
g384
tp4332
a(F0.539572602638835
g481
tp4333
asg266
(lp4334
(F0.9536486055777601
g268
tp4335
a(F0.9304489598134645
g264
tp4336
a(F0.9066827449704108
g270
tp4337
a(F0.8626328233457138
g272
tp4338
a(F0.7722181356359582
g274
tp4339
asg5
(lp4340
(F0.5874467724927559
g7
tp4341
a(F0.572178737804497
g9
tp4342
a(F0.5442936775455455
g859
tp4343
a(F0.5231577073608042
g11
tp4344
a(F0.5201543164212425
g3
tp4345
asg481
(lp4346
(F0.8428031343480418
g3618
tp4347
a(F0.6046293245182667
g390
tp4348
a(F0.5831696699668165
g392
tp4349
a(F0.5726655799444476
g394
tp4350
a(F0.5640732915584802
g384
tp4351
asS'screen'
p4352
(lp4353
(F0.6047966706536758
S'floor'
p4354
tp4355
a(F0.32462472149219695
g739
tp4356
a(F0.3218977997847072
g184
tp4357
asg255
(lp4358
(F0.7396920628546716
g253
tp4359
a(F0.6886752200929113
g245
tp4360
a(F0.6765889001489727
g2169
tp4361
a(F0.6731433592025334
g433
tp4362
a(F0.6617466513999551
g247
tp4363
asg4050
(lp4364
(F0.6413425010935097
g4048
tp4365
a(F0.6249089934229491
g4046
tp4366
a(F0.5792647111270208
g15
tp4367
a(F0.5502142494409832
g17
tp4368
a(F0.5333606323182627
g19
tp4369
asg2762
(lp4370
(F0.669350178799468
g2758
tp4371
a(F0.6273368294881337
g124
tp4372
a(F0.6273368294881337
g126
tp4373
a(F0.611659339061424
g122
tp4374
a(F0.5779409006904077
g472
tp4375
asg176
(lp4376
(F0.6045014941821085
g174
tp4377
a(F0.5486709307771515
g305
tp4378
a(F0.5441236869064232
g307
tp4379
a(F0.5441236869064232
g1012
tp4380
a(F0.5380458874374079
g912
tp4381
asg1082
(lp4382
(F0.756852799485871
S'improvement'
p4383
tp4384
a(F0.7545809694453103
S'damage'
p4385
tp4386
a(F0.6290788211968202
g415
tp4387
a(F0.589389843492794
g417
tp4388
a(F0.5783977299385844
g1076
tp4389
asS'opposition'
p4390
(lp4391
(F0.4962397622244156
g350
tp4392
a(F0.4851057039452717
g346
tp4393
a(F0.4810062259324307
g348
tp4394
a(F0.4536740337963554
g927
tp4395
a(F0.43833056636122264
g1047
tp4396
asg555
(lp4397
(F0.7450368698776124
g553
tp4398
a(F0.6884294412506198
g557
tp4399
a(F0.6622762500043657
g559
tp4400
a(F0.5984677031968652
g338
tp4401
a(F0.5649990724676245
g562
tp4402
asS'debt'
p4403
(lp4404
(F0.43110924094640285
g295
tp4405
a(F0.4122970468431166
g297
tp4406
a(F0.4044308537476022
g485
tp4407
a(F0.402588945529696
g487
tp4408
a(F0.39036109879682673
g489
tp4409
asg146
(lp4410
(F0.906530526562357
g150
tp4411
a(F0.8775864099038609
g144
tp4412
a(F0.6018546916650965
g152
tp4413
a(F0.5636545600250559
g154
tp4414
a(F0.5621889841881539
g3546
tp4415
asg1589
(lp4416
(F0.7607065062747976
g227
tp4417
a(F0.6518688939920115
g1591
tp4418
a(F0.6140629183991476
g1594
tp4419
a(F0.5916526966138265
g1596
tp4420
a(F0.5841471677253253
g229
tp4421
asS'reaction'
p4422
(lp4423
(F0.5950437286232683
g962
tp4424
a(F0.5902173355796857
g964
tp4425
a(F0.589567626848697
g966
tp4426
a(F0.589567626848697
g968
tp4427
a(F0.589567626848697
g2075
tp4428
asS'climate'
p4429
(lp4430
(F0.5061138122136134
g83
tp4431
a(F0.5008479052098689
g55
tp4432
a(F0.49942643227717515
g86
tp4433
a(F0.4957819218684283
g53
tp4434
a(F0.48694427543643903
g79
tp4435
asg297
(lp4436
(F0.6982811109091713
g295
tp4437
a(F0.6308746774338566
g485
tp4438
a(F0.6264041416458517
g487
tp4439
a(F0.5972927176688391
g489
tp4440
a(F0.5972927176688391
g491
tp4441
asg780
(lp4442
(F0.75142760150902
g776
tp4443
a(F0.75142760150902
g778
tp4444
a(F0.6272054614995158
g782
tp4445
a(F0.5924356729498585
g784
tp4446
a(F0.5512374524762437
g774
tp4447
asg1364
(lp4448
(F0.7157863984478671
g223
tp4449
a(F0.7099874603834189
g1362
tp4450
a(F0.6792880420324086
g1366
tp4451
a(F0.6779516544516787
g1359
tp4452
a(F0.5946079267753066
g227
tp4453
asg1531
(lp4454
(F0.7091122656909263
g1525
tp4455
a(F0.6760317822052913
g1529
tp4456
a(F0.6321569411537352
g1527
tp4457
a(F0.49650193366552153
g174
tp4458
a(F0.46168258451341015
g176
tp4459
asg1152
(lp4460
(F0.6760308775163651
g124
tp4461
a(F0.6760308775163651
g126
tp4462
a(F0.6578603965290785
g122
tp4463
a(F0.6190175443894649
g472
tp4464
a(F0.5584151706841346
g2620
tp4465
asS'region'
p4466
(lp4467
(F0.6054178591626297
g659
tp4468
a(F0.5799473693883951
g1556
tp4469
a(F0.5034728002330982
g3160
tp4470
a(F0.4962122323260739
g1491
tp4471
a(F0.4858114418882114
g776
tp4472
asg158
(lp4473
(F0.8693422106358634
g156
tp4474
a(F0.593754716871403
g27
tp4475
a(F0.5637707333841558
g25
tp4476
a(F0.5448197872128415
g162
tp4477
a(F0.5376350596325407
g164
tp4478
asS'incident'
p4479
(lp4480
(F0.5679817237339668
g415
tp4481
a(F0.5354282143031289
g417
tp4482
a(F0.5263412126314015
g1076
tp4483
a(F0.519891787947621
g1078
tp4484
a(F0.5191340426376501
g1080
tp4485
asg2401
(lp4486
(F0.8450483067099075
g2192
tp4487
a(F0.8007784903961789
g195
tp4488
a(F0.7624956672858838
g197
tp4489
a(F0.7466201374778966
g2187
tp4490
a(F0.6854207790083978
g2376
tp4491
asS'connection'
p4492
(lp4493
(F0.4945242185967794
g580
tp4494
a(F0.45114715021726953
g574
tp4495
a(F0.4444087186325259
g576
tp4496
a(F0.4444087186325259
g578
tp4497
a(F0.41109653972157606
g582
tp4498
asS'context'
p4499
(lp4500
(F0.6491419484173008
g829
tp4501
a(F0.632619569100554
g1580
tp4502
a(F0.6052444898620567
g1577
tp4503
a(F0.581840510931013
g1582
tp4504
a(F0.5486749546165222
g1584
tp4505
asg1814
(lp4506
(F0.6450539171380336
g499
tp4507
a(F0.5726602435483452
g1812
tp4508
a(F0.5325978339367561
g501
tp4509
a(F0.5152357469620649
g211
tp4510
a(F0.5152357469620649
g213
tp4511
asg1973
(lp4512
(F0.7175209971539991
g241
tp4513
a(F0.6484313911076232
g1971
tp4514
a(F0.6044407683690162
g1975
tp4515
a(F0.5902600647063485
g235
tp4516
a(F0.5848791974922966
g237
tp4517
asg1164
(lp4518
(F0.7355234406686945
g1162
tp4519
a(F0.7191813035444636
g1166
tp4520
a(F0.5016763320012141
g174
tp4521
a(F0.4661534093956799
g176
tp4522
a(F0.4626101100913113
g305
tp4523
asg1959
(lp4524
(F1.0
g1957
tp4525
a(F0.7362069673148414
g1955
tp4526
a(F0.5812102483896825
g390
tp4527
a(F0.5613534930754093
g392
tp4528
a(F0.5516140488755674
g394
tp4529
asg1374
(lp4530
(F1.0
g800
tp4531
a(F0.828648101813014
g720
tp4532
a(F0.7486639050310997
g2144
tp4533
a(F0.7301719940972186
g2146
tp4534
a(F0.6331163542637481
g722
tp4535
asg2041
(lp4536
(F0.6829410026105518
g93
tp4537
a(F0.6540210840602241
g91
tp4538
a(F0.6409083764689807
g95
tp4539
a(F0.5891117629682526
g97
tp4540
a(F0.581770515737109
g99
tp4541
asg2091
(lp4542
(F0.8691590005185302
g2089
tp4543
a(F0.697516874271318
g67
tp4544
a(F0.3961107929913524
g336
tp4545
a(F0.3883440925764853
g338
tp4546
a(F0.38576231882872136
g322
tp4547
asS'key'
p4548
(lp4549
(F0.5351675632284315
g442
tp4550
a(F0.5192065173199224
g444
tp4551
a(F0.5084146967830531
g446
tp4552
a(F0.4932721289130374
g448
tp4553
a(F0.46919925569845833
g184
tp4554
asg139
(lp4555
(F0.7652326469889412
g86
tp4556
a(F0.6735010749541545
g137
tp4557
a(F0.6180693130945383
g141
tp4558
a(F0.5929501809100576
g1026
tp4559
a(F0.5579591701454499
g134
tp4560
asg974
(lp4561
(F0.7538105190363502
g972
tp4562
a(F0.7538105190363502
g970
tp4563
a(F0.5943688446355252
g122
tp4564
a(F0.5553899991066513
g128
tp4565
a(F0.5553899991066513
g130
tp4566
asS'wall'
p4567
(lp4568
(F0.5511475218484129
g227
tp4569
a(F0.5485219645626725
g229
tp4570
a(F0.49807914348405985
g231
tp4571
a(F0.49807914348405985
g1445
tp4572
a(F0.4885111323449942
g223
tp4573
asg97
(lp4574
(F0.7006389167438645
g93
tp4575
a(F0.6702340655279149
g91
tp4576
a(F0.6564700207977585
g95
tp4577
a(F0.5945641841684172
g99
tp4578
a(F0.5891117629682526
g2041
tp4579
asg1743
(lp4580
(F0.8632945827749103
g1741
tp4581
a(F0.6105504885156864
g672
tp4582
a(F0.5959597865521846
g674
tp4583
a(F0.5863777011226099
g676
tp4584
a(F0.571677177776863
g875
tp4585
asg1580
(lp4586
(F0.8743207992958687
g829
tp4587
a(F0.8479524663374881
g1582
tp4588
a(F0.7965114649758731
g1577
tp4589
a(F0.7013495478367662
g1584
tp4590
a(F0.6600803826609128
g1586
tp4591
asg103
(lp4592
(F0.8010694722468383
g101
tp4593
a(F0.7727596766147682
g105
tp4594
a(F0.6980461465594188
g107
tp4595
a(F0.6616312343477815
g109
tp4596
a(F0.6583382677805139
g111
tp4597
asg1776
(lp4598
(F0.6515676628766363
g1778
tp4599
a(F0.642879604267482
g1780
tp4600
a(F0.6334224276543673
g1774
tp4601
a(F0.6317807441988694
g3038
tp4602
a(F0.6214939180125264
g3044
tp4603
asg2952
(lp4604
(F0.7748616392350466
g2591
tp4605
a(F0.6107491434525141
g2776
tp4606
a(F0.6068375881113708
g2774
tp4607
a(F0.6031258024211055
g2779
tp4608
a(F0.5909441937039763
g2781
tp4609
asg253
(lp4610
(F0.7396920628546716
g255
tp4611
a(F0.6937186406795616
g245
tp4612
a(F0.6814562234776417
g2169
tp4613
a(F0.6791492668681696
g433
tp4614
a(F0.6664020345741896
g247
tp4615
asg495
(lp4616
(F0.7774342752839886
g493
tp4617
a(F0.7360771733817164
g497
tp4618
a(F0.5736590461386267
g499
tp4619
a(F0.5715761924317513
g501
tp4620
a(F0.5535813438038073
g358
tp4621
asg43
(lp4622
(F0.7842011175977867
g39
tp4623
a(F0.6982090420597962
g41
tp4624
a(F0.6760472632063242
g45
tp4625
a(F0.6325942416008037
g47
tp4626
a(F0.6307707527216065
g203
tp4627
asg2737
(lp4628
(F0.7327918012242036
g817
tp4629
a(F0.7156793352000421
g819
tp4630
a(F0.5537152463288599
g433
tp4631
a(F0.538753755495503
g814
tp4632
a(F0.5112532593061164
g431
tp4633
asg33
(lp4634
(F0.892727387251827
g31
tp4635
a(F0.792125860234756
g2016
tp4636
a(F0.7902132245148115
g29
tp4637
a(F0.7289998271556605
g27
tp4638
a(F0.6860781563249521
g25
tp4639
asS'code'
p4640
(lp4641
(F0.5730576443773786
g322
tp4642
a(F0.5231834844406668
g324
tp4643
a(F0.509462134597199
g316
tp4644
a(F0.5039214310562932
g326
tp4645
a(F0.5007882547505709
g1035
tp4646
asS'basis'
p4647
(lp4648
(F0.4732717139256717
g580
tp4649
a(F0.43339251982142074
g574
tp4650
a(F0.42717036855320734
g576
tp4651
a(F0.42717036855320734
g578
tp4652
a(F0.39630263598369125
g582
tp4653
asS'union'
p4654
(lp4655
(F0.5100500151699568
g501
tp4656
a(F0.5030757765438421
g499
tp4657
a(F0.495671973129289
g358
tp4658
a(F0.49098183018590946
g1951
tp4659
a(F0.48570724268059584
g1953
tp4660
asS'west'
p4661
(lp4662
(F0.44998678627718774
g659
tp4663
a(F0.4371885619486013
g1556
tp4664
a(F0.39647622224936313
g3160
tp4665
a(F0.3924212816938302
g1491
tp4666
a(F0.38655207528902824
g776
tp4667
asg2343
(lp4668
(F0.8330784155924537
g2341
tp4669
a(F0.6396371812922631
g122
tp4670
a(F0.55451700213817
g128
tp4671
a(F0.55451700213817
g130
tp4672
a(F0.549561073136446
g132
tp4673
asS'breath'
p4674
(lp4675
(F0.7566781127438919
S'sex'
p4676
tp4677
a(F0.6832271770689351
S'growth'
p4678
tp4679
a(F0.5526369454877482
g962
tp4680
a(F0.548471553607626
g964
tp4681
a(F0.5479104580746286
g966
tp4682
asg559
(lp4683
(F0.7037403848176612
g553
tp4684
a(F0.6622762500043657
g555
tp4685
a(F0.6530207971555626
g557
tp4686
a(F0.5600314550623552
g338
tp4687
a(F0.5306181380627972
g562
tp4688
asg55
(lp4689
(F0.9756175332683997
g53
tp4690
a(F0.9211881796351096
g51
tp4691
a(F0.9211881796351096
g49
tp4692
a(F0.8040388654824636
g57
tp4693
a(F0.766154870081941
g59
tp4694
asS'proposal'
p4695
(lp4696
(F0.651066551499445
g338
tp4697
a(F0.6116500656513921
g562
tp4698
a(F0.564762477777289
g684
tp4699
a(F0.5596119253872957
g686
tp4700
a(F0.5587643098945618
g688
tp4701
asg2882
(lp4702
(F0.6794143792387253
g582
tp4703
a(F0.6744812345728349
g827
tp4704
a(F0.5640098473922945
g574
tp4705
a(F0.5557699362828475
g3640
tp4706
a(F0.5552730494774282
g986
tp4707
asg1778
(lp4708
(F0.6515676628766363
g1776
tp4709
a(F0.6389654568275747
g1780
tp4710
a(F0.6296222521200141
g1774
tp4711
a(F0.6280001826937163
g3038
tp4712
a(F0.6178351100105995
g3044
tp4713
asg2889
(lp4714
(F0.7027910931150588
g912
tp4715
a(F0.7027910931150588
g914
tp4716
a(F0.6570166755714738
g916
tp4717
a(F0.649902750509495
g918
tp4718
a(F0.6351410316032234
g908
tp4719
asS'firm'
p4720
(lp4721
(F0.8968635714691107
g1951
tp4722
a(F0.8496186551220439
S'industry'
p4723
tp4724
a(F0.6209948902931898
g499
tp4725
a(F0.6116621742928274
g501
tp4726
a(F0.5911001753045131
g358
tp4727
asg1487
(lp4728
(F0.7332367825321964
g1485
tp4729
a(F0.6931751692080672
g1489
tp4730
a(F0.670691252825291
g1491
tp4731
a(F0.6700245673069107
g1493
tp4732
a(F0.6610888361845237
g1495
tp4733
asg2301
(lp4734
(F0.7176684337927463
g489
tp4735
a(F0.7176684337927463
g491
tp4736
a(F0.6063873996917591
g2299
tp4737
a(F0.5838058364088925
g2295
tp4738
a(F0.49205775198185686
g295
tp4739
asg205
(lp4740
(F0.7767160695118023
g45
tp4741
a(F0.731339656086801
g47
tp4742
a(F0.7294230361603096
g203
tp4743
a(F0.6975484883211507
g39
tp4744
a(F0.6286758549604985
g41
tp4745
asS'league'
p4746
(lp4747
(F0.5608807120385545
g499
tp4748
a(F0.5605954401043961
g501
tp4749
a(F0.5432748848465424
g358
tp4750
a(F0.5376457437322504
g1951
tp4751
a(F0.5313273471261242
g1953
tp4752
asS'fire'
p4753
(lp4754
(F0.5547389781750887
g415
tp4755
a(F0.5236442190993386
g417
tp4756
a(F0.5149495516390391
g1076
tp4757
a(F0.5087746395240723
g1078
tp4758
a(F0.5080489317286159
g1080
tp4759
asg1318
(lp4760
(F0.7654544699862675
g1316
tp4761
a(F0.40774709923778213
g380
tp4762
a(F0.40774709923778213
g382
tp4763
a(F0.3439804178630173
g512
tp4764
a(F0.3407642997022273
g1253
tp4765
asg512
(lp4766
(F0.602663457656783
g380
tp4767
a(F0.602663457656783
g382
tp4768
a(F0.4585346197832178
g1253
tp4769
a(F0.4553491254263528
g1255
tp4770
a(F0.43166607219402053
g1224
tp4771
asg2836
(lp4772
(F0.843250329624093
g2838
tp4773
a(F0.8205915699561137
g2830
tp4774
a(F0.7632109856437376
g2832
tp4775
a(F0.7248461899467546
g2834
tp4776
a(F0.6666172650035135
g2840
tp4777
asS'accident'
p4778
(lp4779
(F0.5651019227860035
g415
tp4780
a(F0.5328683173954055
g417
tp4781
a(F0.5238672680625236
g1076
tp4782
a(F0.517477960954131
g1078
tp4783
a(F0.5167272305630535
g1080
tp4784
asS'minister'
p4785
(lp4786
(F0.6124237209505755
g15
tp4787
a(F0.5800451316449433
g17
tp4788
a(F0.5613455286330471
g19
tp4789
a(F0.5583097449709404
g21
tp4790
a(F0.5381608959535366
g23
tp4791
asS'demand'
p4792
(lp4793
(F0.6076685297443666
g338
tp4794
a(F0.5731925382201003
g562
tp4795
a(F0.5318162824815628
g684
tp4796
a(F0.5272467000770251
g686
tp4797
a(F0.5264942273722314
g688
tp4798
asS'talent'
p4799
(lp4800
(F0.67192925087529
g93
tp4801
a(F0.6439152964319445
g91
tp4802
a(F0.6312007483937184
g95
tp4803
a(F0.5808997698809882
g97
tp4804
a(F0.5737605243650259
g99
tp4805
asg1062
(lp4806
(F0.7675470842985703
g1064
tp4807
a(F0.7418588233116218
g1066
tp4808
a(F0.73094093123459
g1696
tp4809
a(F0.7084793901100881
g1691
tp4810
a(F0.6897222670655384
g1698
tp4811
asg1653
(lp4812
(F0.9541488477606123
g1651
tp4813
a(F0.36897310654319415
g380
tp4814
a(F0.36897310654319415
g382
tp4815
a(F0.303093231962065
g512
tp4816
a(F0.30054025846224364
g1253
tp4817
asS'pilot'
p4818
(lp4819
(F0.6317719941646234
g1988
tp4820
a(F0.6274190388893897
g1990
tp4821
a(F0.5898378351527686
g1986
tp4822
a(F0.5786542587436819
g1992
tp4823
a(F0.5534160320717257
g1994
tp4824
asg1078
(lp4825
(F0.634516715193303
g415
tp4826
a(F0.5941606205054462
g417
tp4827
a(F0.5829915229798746
g1076
tp4828
a(F0.5741624540099585
g1080
tp4829
a(F0.5706189159696912
g1082
tp4830
asg3640
(lp4831
(F0.8776795091869134
g2187
tp4832
a(F0.6423942864249043
g582
tp4833
a(F0.6379823466305072
g827
tp4834
a(F0.5557699362828475
g2882
tp4835
a(F0.5303421889634229
g574
tp4836
asS'novel'
p4837
(lp4838
(F0.6233001977238019
g322
tp4839
a(F0.5672470907481432
g324
tp4840
a(F0.5518881543808528
g316
tp4841
a(F0.5456937843591432
g326
tp4842
a(F0.5234255684007464
g854
tp4843
asg35
(lp4844
(F0.6351484304757364
g29
tp4845
a(F0.5984031636683196
g27
tp4846
a(F0.583097194079523
g31
tp4847
a(F0.5708294993797042
g33
tp4848
a(F0.5691741186216993
g25
tp4849
asg1957
(lp4850
(F1.0
g1959
tp4851
a(F0.7362069673148414
g1955
tp4852
a(F0.5812102483896825
g390
tp4853
a(F0.5613534930754093
g392
tp4854
a(F0.5516140488755674
g394
tp4855
asg2391
(lp4856
(F0.649318840985051
g326
tp4857
a(F0.6232176559833827
g854
tp4858
a(F0.6212806405502561
g2276
tp4859
a(F0.6122479952784957
g322
tp4860
a(F0.5635703659218069
g2278
tp4861
asg4676
(lp4862
(F0.7689334065911646
g4678
tp4863
a(F0.7566781127438919
g4674
tp4864
a(F0.6281150947599841
g962
tp4865
a(F0.6227397335908245
g964
tp4866
a(F0.6220164949995246
g966
tp4867
asg2838
(lp4868
(F0.843250329624093
g2836
tp4869
a(F0.7661777417443537
g2830
tp4870
a(F0.7172451765714905
g2832
tp4871
a(F0.6832595140556832
g2834
tp4872
a(F0.6306480154551694
g2840
tp4873
asS'value'
p4874
(lp4875
(F0.6419644146505679
g122
tp4876
a(F0.5939271400871258
g128
tp4877
a(F0.5939271400871258
g130
tp4878
a(F0.569317666544064
g1428
tp4879
a(F0.5591993761665834
g1430
tp4880
asS'air'
p4881
(lp4882
(F0.6868508181024638
S'sky'
p4883
tp4884
a(F0.675899902492128
g986
tp4885
a(F0.4300556029968405
g574
tp4886
a(F0.4242848415612846
g576
tp4887
a(F0.4242848415612846
g578
tp4888
asg91
(lp4889
(F0.7944069763126616
g93
tp4890
a(F0.738099585867982
g95
tp4891
a(F0.7239498126185716
g89
tp4892
a(F0.6702340655279149
g97
tp4893
a(F0.6607480714307733
g99
tp4894
asS'while'
p4895
(lp4896
(F0.558894234728134
g103
tp4897
a(F0.49827980960919904
g101
tp4898
a(F0.48728790001511596
g105
tp4899
a(F0.45677056948333294
g107
tp4900
a(F0.44104689141717646
g109
tp4901
asS'behavior'
p4902
(lp4903
(F0.5172916503773206
g174
tp4904
a(F0.47960597798536964
g176
tp4905
a(F0.47585604049361147
g305
tp4906
a(F0.47243188521745616
g307
tp4907
a(F0.47243188521745616
g1012
tp4908
asg600
(lp4909
(F1.0
g362
tp4910
a(F0.7234374263754614
g358
tp4911
a(F0.7008417760244914
g360
tp4912
a(F0.6792746825181492
g595
tp4913
a(F0.6676388951544971
g602
tp4914
asS'fun'
p4915
(lp4916
(F0.6535223528828414
g1024
tp4917
a(F0.6479492989118636
g3802
tp4918
a(F0.5746105783756204
g1014
tp4919
a(F0.56299349848578
g1018
tp4920
a(F0.5562470834457689
g1022
tp4921
asg386
(lp4922
(F0.8809781500654472
g384
tp4923
a(F0.7067901584400978
g388
tp4924
a(F0.583816992122853
g390
tp4925
a(F0.5637847907160136
g392
tp4926
a(F0.5539615362928156
g394
tp4927
asg291
(lp4928
(F0.7428797674867704
g287
tp4929
a(F0.6605545592020885
g289
tp4930
a(F0.6005308251478364
g293
tp4931
a(F0.4540313248069937
g295
tp4932
a(F0.4332137586725477
g297
tp4933
asg111
(lp4934
(F0.6757732018782414
g2588
tp4935
a(F0.6583382677805139
g103
tp4936
a(F0.5691176414546825
g101
tp4937
a(F0.5546809589245405
g105
tp4938
a(F0.5151068408212226
g107
tp4939
asS'guide'
p4940
(lp4941
(F0.5314807597590993
g1988
tp4942
a(F0.5280581501314687
g1990
tp4943
a(F0.5179397516378391
g1994
tp4944
a(F0.4983794954068406
g1986
tp4945
a(F0.48950250115470717
g1992
tp4946
asg1727
(lp4947
(F1.0
g1725
tp4948
a(F0.5443314068595211
g174
tp4949
a(F0.5027612730486579
g176
tp4950
a(F0.49864205694316566
g305
tp4951
a(F0.49488341919242984
g307
tp4952
asS'mistake'
p4953
(lp4954
(F0.8431789724472003
S'failure'
p4955
tp4956
a(F0.4305630422187149
g170
tp4957
a(F0.41023043069940474
g172
tp4958
a(F0.3756635639658465
g174
tp4959
a(F0.3487701901724383
g176
tp4960
asg544
(lp4961
(F0.5892809368278058
g540
tp4962
a(F0.5772713242935589
g542
tp4963
a(F0.5475730096137876
g536
tp4964
a(F0.5128425644662208
g538
tp4965
a(F0.5098275368281799
g534
tp4966
asg270
(lp4967
(F0.9066827449704108
g266
tp4968
a(F0.8684129557231275
g268
tp4969
a(F0.8491331561830351
g264
tp4970
a(F0.7922904518583769
g272
tp4971
a(F0.6981228461506426
g274
tp4972
asg2915
(lp4973
(F0.47935759170318915
g2448
tp4974
a(F0.43771967674909423
g2446
tp4975
a(F0.416932613047001
g2912
tp4976
a(F0.3854229924422022
g103
tp4977
a(F0.3702177436874683
g2442
tp4978
asS'century'
p4979
(lp4980
(F0.6452492378376542
g103
tp4981
a(F0.5650151512193331
g101
tp4982
a(F0.5509233817763409
g105
tp4983
a(F0.5122314639621153
g107
tp4984
a(F0.49253995567103803
g109
tp4985
asg1505
(lp4986
(F0.7061345607013335
g1503
tp4987
a(F0.3774060275669346
g380
tp4988
a(F0.3774060275669346
g382
tp4989
a(F0.32315458713350975
g512
tp4990
a(F0.32031450358654445
g1253
tp4991
asS'soil'
p4992
(lp4993
(F0.536223438222097
g83
tp4994
a(F0.5303159936982388
g55
tp4995
a(F0.5287225973906843
g86
tp4996
a(F0.5246397229273624
g53
tp4997
a(F0.5147535725789515
g79
tp4998
asg2834
(lp4999
(F0.8231395777184981
g2830
tp5000
a(F0.7653488207416618
g2832
tp5001
a(F0.7248461899467546
g2836
tp5002
a(F0.6832595140556832
g2838
tp5003
a(F0.6682785700761836
g2840
tp5004
asg1379
(lp5005
(F1.0
g1381
tp5006
a(F0.6318348226492779
g1383
tp5007
a(F0.6217059252875918
g1385
tp5008
a(F0.5913855770641977
g1377
tp5009
a(F0.5183838312150704
g184
tp5010
asS'surface'
p5011
(lp5012
(F0.47243253405790553
g739
tp5013
a(F0.4666790466033798
g184
tp5014
a(F0.4180195392612308
g29
tp5015
a(F0.41787502504662194
g187
tp5016
a(F0.4143873420564722
g227
tp5017
asg776
(lp5018
(F1.0
g778
tp5019
a(F0.75142760150902
g780
tp5020
a(F0.7471733536289256
g782
tp5021
a(F0.698348116798431
g784
tp5022
a(F0.668391099415805
g659
tp5023
asg2448
(lp5024
(F0.6839714212441421
g2446
tp5025
a(F0.6420543884230063
g103
tp5026
a(F0.5323126173292093
g2442
tp5027
a(F0.5218579979051304
g101
tp5028
a(F0.5037470933468144
g105
tp5029
asg854
(lp5030
(F0.7190792738685139
g326
tp5031
a(F0.6848515871674328
g2276
tp5032
a(F0.6750544741142152
g686
tp5033
a(F0.6740740108074411
g688
tp5034
a(F0.6408167986178747
g869
tp5035
asg274
(lp5036
(F0.7722181356359582
g266
tp5037
a(F0.76831257472264
g366
tp5038
a(F0.7570042481031021
g569
tp5039
a(F0.7353605488678159
g268
tp5040
a(F0.7273440672576534
g2971
tp5041
asg1529
(lp5042
(F0.8295771936659158
g1525
tp5043
a(F0.7996463918444419
S'application'
p5044
tp5045
a(F0.7439218819625857
g1527
tp5046
a(F0.46297008631843284
g174
tp5047
a(F0.432550980470982
g176
tp5048
asS'education'
p5049
(lp5050
(F0.519038626848499
g174
tp5051
a(F0.48110731591513933
g176
tp5052
a(F0.47733395674631596
g305
tp5053
a(F0.47388857592063305
g307
tp5054
a(F0.47388857592063305
g1012
tp5055
asg2367
(lp5056
(F0.8340915891858083
g2365
tp5057
a(F0.7197646021291256
g2363
tp5058
a(F0.36097438088894784
g380
tp5059
a(F0.36097438088894784
g382
tp5060
a(F0.3116134274725758
g512
tp5061
asg625
(lp5062
(F0.6933291172355561
g627
tp5063
a(F0.6801756420674823
g629
tp5064
a(F0.6771166207419786
g619
tp5065
a(F0.6571774074249827
g621
tp5066
a(F0.6524943432328393
g623
tp5067
asg768
(lp5068
(F1.0
g766
tp5069
a(F0.8233949505926211
g883
tp5070
a(F0.7987589106061196
g762
tp5071
a(F0.7987589106061196
g764
tp5072
a(F0.7723639543037186
g770
tp5073
asS'bowl'
p5074
(lp5075
(F0.654718531336894
g164
tp5076
a(F0.5442967423836607
g27
tp5077
a(F0.5189934328658595
g25
tp5078
a(F0.5028902912371288
g162
tp5079
a(F0.5018989104535909
g156
tp5080
asg2859
(lp5081
(F0.7529081025413792
g2857
tp5082
a(F0.723606119322593
g2861
tp5083
a(F0.6472256135558921
g2855
tp5084
a(F0.3876519060782103
g739
tp5085
a(F0.3837696372382596
g184
tp5086
asg342
(lp5087
(F0.7956938038031224
g340
tp5088
a(F0.7649889746975902
g344
tp5089
a(F0.661952642789817
g346
tp5090
a(F0.5376140066813967
g348
tp5091
a(F0.5145378965462881
g350
tp5092
asg2365
(lp5093
(F0.8340915891858083
g2367
tp5094
a(F0.7826996933486238
g2363
tp5095
a(F0.41880962863493215
g380
tp5096
a(F0.41880962863493215
g382
tp5097
a(F0.35142149885369445
g512
tp5098
asg896
(lp5099
(F0.6051693601329861
g898
tp5100
a(F0.6027609328486032
g890
tp5101
a(F0.6012265292077426
g892
tp5102
a(F0.592104094145303
g900
tp5103
a(F0.5859427540048157
g2176
tp5104
asg2496
(lp5105
(F0.7996667003748087
g2494
tp5106
a(F0.717534453755514
g193
tp5107
a(F0.6768965209734007
g2498
tp5108
a(F0.6756797201832653
g2500
tp5109
a(F0.6613247556271266
g2502
tp5110
asS'party'
p5111
(lp5112
(F0.5604502383155303
g499
tp5113
a(F0.5602243245796275
g501
tp5114
a(F0.5429263404215443
g358
tp5115
a(F0.5373043825021534
g1951
tp5116
a(F0.5309939595972665
g1953
tp5117
asg301
(lp5118
(F0.7871173214705074
g299
tp5119
a(F0.5162750548193566
g174
tp5120
a(F0.4787319836282598
g176
tp5121
a(F0.474995647600345
g305
tp5122
a(F0.4715838191353752
g307
tp5123
asS'solution'
p5124
(lp5125
(F0.5265402295520345
g574
tp5126
a(F0.5188810105485139
g576
tp5127
a(F0.5188810105485139
g578
tp5128
a(F0.48092756463657665
g582
tp5129
a(F0.47764605217568074
g827
tp5130
asg722
(lp5131
(F0.654772722776429
g720
tp5132
a(F0.6331163542637481
g800
tp5133
a(F0.6331163542637481
g1374
tp5134
a(F0.6256706548805728
g716
tp5135
a(F0.5993860548145774
g714
tp5136
asS'week'
p5137
(lp5138
(F0.6353944047605709
g103
tp5139
a(F0.5575198184305498
g101
tp5140
a(F0.5437949031209841
g105
tp5141
a(F0.5060635006316753
g107
tp5142
a(F0.4868344611092169
g109
tp5143
asg421
(lp5144
(F0.9125539319327549
g419
tp5145
a(F0.5345114035514832
g423
tp5146
a(F0.5085676358681718
g152
tp5147
a(F0.4873942212227497
g146
tp5148
a(F0.4821381581482457
g427
tp5149
asg536
(lp5150
(F0.6227427940457513
g538
tp5151
a(F0.6191414307330381
g534
tp5152
a(F0.5781889375744035
g540
tp5153
a(F0.5666227454622436
g542
tp5154
a(F0.5475730096137876
g544
tp5155
asS'driver'
p5156
(lp5157
(F0.36764915802453674
g380
tp5158
a(F0.36764915802453674
g382
tp5159
a(F0.3021992835060798
g512
tp5160
asg968
(lp5161
(F1.0
g966
tp5162
a(F1.0
g2075
tp5163
a(F0.7421453719451525
g962
tp5164
a(F0.7357130495212694
g964
tp5165
a(F0.6843464559392592
g2114
tp5166
asg3516
(lp5167
(F0.9099155919538633
g3514
tp5168
a(F0.8336202682156172
g962
tp5169
a(F0.7954480576498856
g2120
tp5170
a(F0.7119438859482845
g3520
tp5171
a(F0.6868262998571874
g964
tp5172
asg152
(lp5173
(F0.8502560535462803
g2106
tp5174
a(F0.8170469963223683
g2110
tp5175
a(F0.7428465338582287
g2108
tp5176
a(F0.7365463181988124
g2112
tp5177
a(F0.727553815702083
S'head'
p5178
tp5179
asg114
(lp5180
(F1.0
g23
tp5181
a(F0.8755217462319297
g19
tp5182
a(F0.8242907738798414
g117
tp5183
a(F0.7522264817471712
g119
tp5184
a(F0.6189282390589184
g15
tp5185
asS'moment'
p5186
(lp5187
(F0.6047873643105911
S'birth'
p5188
tp5189
a(F0.4549543625494494
g103
tp5190
a(F0.4476854722624026
g2448
tp5191
a(F0.4025908032403972
g2446
tp5192
a(F0.3911211883153322
g101
tp5193
asg526
(lp5194
(F0.6174795081532151
g528
tp5195
a(F0.6043416228987067
g522
tp5196
a(F0.6043416228987067
g524
tp5197
a(F0.5991410944998646
g530
tp5198
a(F0.5874539711669674
g532
tp5199
asS'user'
p5200
(lp5201
(F0.4381037178731978
g380
tp5202
a(F0.4381037178731978
g382
tp5203
a(F0.3642105590272722
g512
tp5204
a(F0.36060700630692244
g1253
tp5205
a(F0.3586339216108482
g1255
tp5206
asS'student'
p5207
(lp5208
(F0.43608391750037184
g380
tp5209
a(F0.43608391750037184
g382
tp5210
a(F0.36288283601220933
g512
tp5211
a(F0.3593053797399943
g1253
tp5212
a(F0.35734647451779433
g1255
tp5213
asg1197
(lp5214
(F0.795582513643724
g1199
tp5215
a(F0.6530204721507665
g1189
tp5216
a(F0.6165719910646029
g1191
tp5217
a(F0.6165719910646029
g1193
tp5218
a(F0.6073255743678231
g1195
tp5219
asS'tradition'
p5220
(lp5221
(F0.5145453789678853
g124
tp5222
a(F0.5145453789678853
g126
tp5223
a(F0.5039509369693153
g122
tp5224
a(F0.48083767932107824
g472
tp5225
a(F0.4513095497694274
g1152
tp5226
asS'identity'
p5227
(lp5228
(F0.34595733811171675
g708
tp5229
a(F0.34021044005987283
g295
tp5230
a(F0.3242554561713453
g297
tp5231
a(F0.3176161976531321
g485
tp5232
a(F0.31606431274528407
g487
tp5233
asg4039
(lp5234
(F1.0
g4037
tp5235
a(F0.8401071082107572
g4041
tp5236
a(F0.42559294076991455
g380
tp5237
a(F0.42559294076991455
g382
tp5238
a(F0.35594494020401535
g512
tp5239
asg912
(lp5240
(F1.0
g914
tp5241
a(F0.7293225774435581
g916
tp5242
a(F0.7205671244549523
g918
tp5243
a(F0.7027910931150588
g2889
tp5244
a(F0.7024654886623595
g908
tp5245
asg1366
(lp5246
(F0.7133017632284446
g223
tp5247
a(F0.7075428518467115
g1362
tp5248
a(F0.6792880420324086
g1364
tp5249
a(F0.6757223319737931
g1359
tp5250
a(F0.5922595410601776
g227
tp5251
asg778
(lp5252
(F1.0
g776
tp5253
a(F0.75142760150902
g780
tp5254
a(F0.7471733536289256
g782
tp5255
a(F0.698348116798431
g784
tp5256
a(F0.668391099415805
g659
tp5257
asS'band'
p5258
(lp5259
(F0.6156053578418574
g499
tp5260
a(F0.523902563469606
g501
tp5261
a(F0.5064164834818988
g358
tp5262
a(F0.5007527996990968
g1951
tp5263
a(F0.49440683233311306
g1953
tp5264
asg1772
(lp5265
(F0.8168565958659604
g1770
tp5266
a(F0.805179219521056
g1774
tp5267
a(F0.6123835178879461
g1776
tp5268
a(F0.6088308850853752
g1778
tp5269
a(F0.6012385206705319
g1780
tp5270
asg444
(lp5271
(F0.8645478129902273
g448
tp5272
a(F0.695874811552088
g442
tp5273
a(F0.6513110342692224
g446
tp5274
a(F0.6315377235908851
g184
tp5275
a(F0.5725461986373065
g1156
tp5276
asg4354
(lp5277
(F0.6047966706536758
g4352
tp5278
a(F0.3544378913995827
g739
tp5279
a(F0.351189600895337
g184
tp5280
a(F0.32290385109746556
g29
tp5281
a(F0.3228176132285249
g187
tp5282
asg1134
(lp5283
(F0.7565565945019992
g1130
tp5284
a(F0.7181483761258179
g1132
tp5285
a(F0.7101956772830035
g1128
tp5286
a(F0.7101956772830035
g1126
tp5287
a(F0.6431483041596131
g912
tp5288
asg427
(lp5289
(F0.7727433248771579
g423
tp5290
a(F0.6794900560361178
g4105
tp5291
a(F0.5221413471929499
g152
tp5292
a(F0.49984738219185326
g146
tp5293
a(F0.48936342145009837
g154
tp5294
asg124
(lp5295
(F1.0
g126
tp5296
a(F0.8014307446941195
g122
tp5297
a(F0.7445172596362132
g472
tp5298
a(F0.6760308775163651
g1152
tp5299
a(F0.6585570191559268
g2620
tp5300
asg380
(lp5301
(F1.0
g382
tp5302
a(F0.602663457656783
g512
tp5303
a(F0.5923554589323582
g1253
tp5304
a(F0.58677478109146
g1255
tp5305
a(F0.5814230122634463
g1897
tp5306
asS'contact'
p5307
(lp5308
(F0.4810409714842811
g350
tp5309
a(F0.47057130003774506
g346
tp5310
a(F0.466712816549311
g348
tp5311
a(F0.4409373542408119
g927
tp5312
a(F0.42642953922829957
g1047
tp5313
asS'relief'
p5314
(lp5315
(F0.5904867919280833
g1240
tp5316
a(F0.5590407155380068
g1242
tp5317
a(F0.527620549551495
g1238
tp5318
a(F0.514246295162353
g1236
tp5319
a(F0.5079902879371341
g1244
tp5320
asg164
(lp5321
(F0.6564581105362813
g27
tp5322
a(F0.654718531336894
g5074
tp5323
a(F0.620001246274589
g25
tp5324
a(F0.5971580256222063
g162
tp5325
a(F0.5957606534734438
g156
tp5326
asg268
(lp5327
(F0.9536486055777601
g266
tp5328
a(F0.8901911403328263
g264
tp5329
a(F0.8684129557231275
g270
tp5330
a(F0.8279200889365238
g272
tp5331
a(F0.7353605488678159
g274
tp5332
asg651
(lp5333
(F0.8885440391174259
g653
tp5334
a(F0.8453757488521288
g649
tp5335
a(F0.8149254728249723
g655
tp5336
a(F0.7497310028140278
g657
tp5337
a(F0.4793562553287736
g659
tp5338
asg235
(lp5339
(F0.7523273183842349
g237
tp5340
a(F0.7523273183842349
g239
tp5341
a(F0.7074321672042125
g241
tp5342
a(F0.6999846536287333
g243
tp5343
a(F0.6697302697193547
g1975
tp5344
asS'model'
p5345
(lp5346
(F0.5704807310639648
g122
tp5347
a(F0.5357564406896863
g128
tp5348
a(F0.5357564406896863
g130
tp5349
a(F0.5156499234940298
g1428
tp5350
a(F0.5073354271327923
g1430
tp5351
asg281
(lp5352
(F0.7388206540159838
g154
tp5353
a(F0.674801945746641
g283
tp5354
a(F0.6743646248574121
g276
tp5355
a(F0.6667915615019541
g279
tp5356
a(F0.6628748047047777
g285
tp5357
asg869
(lp5358
(F0.6765010300498083
g686
tp5359
a(F0.6755163632889815
g688
tp5360
a(F0.6408167986178747
g854
tp5361
a(F0.6216458799638188
g338
tp5362
a(F0.6110677857290278
g941
tp5363
asg782
(lp5364
(F0.8356943247106647
S'landscape'
p5365
tp5366
a(F0.7471733536289256
g776
tp5367
a(F0.7471733536289256
g778
tp5368
a(F0.6272054614995158
g780
tp5369
a(F0.5897880784918578
g784
tp5370
asg5188
(lp5371
(F0.6047873643105911
g5186
tp5372
a(F0.3553075133807563
g103
tp5373
a(F0.3508585004017785
g2448
tp5374
a(F0.32254397483371194
g2446
tp5375
a(F0.3151399804388719
g101
tp5376
asg41
(lp5377
(F0.8668480719106516
g39
tp5378
a(F0.7013606341909914
g2568
tp5379
a(F0.6982090420597962
g43
tp5380
a(F0.697422497476677
g45
tp5381
a(F0.6709689241146719
g37
tp5382
asg485
(lp5383
(F0.6760124011013668
g295
tp5384
a(F0.6308746774338566
g297
tp5385
a(F0.6084248867634716
g487
tp5386
a(F0.5809239274318176
g489
tp5387
a(F0.5809239274318176
g491
tp5388
asg1798
(lp5389
(F0.6976661546174885
g1794
tp5390
a(F0.6504278218251514
g1796
tp5391
a(F0.5250143016305058
g526
tp5392
a(F0.5167719446077048
g528
tp5393
a(F0.5075379867339632
g522
tp5394
asg19
(lp5395
(F0.8755217462319297
g23
tp5396
a(F0.8755217462319297
g114
tp5397
a(F0.8594911031222024
g117
tp5398
a(F0.7848132791967188
g119
tp5399
a(F0.6497937628077466
g15
tp5400
asS'crew'
p5401
(lp5402
(F0.5760406569745689
g358
tp5403
a(F0.5616227661492057
g360
tp5404
a(F0.5525129705248086
g362
tp5405
a(F0.5525129705248086
g600
tp5406
a(F0.5476878605571625
g595
tp5407
asS'product'
p5408
(lp5409
(F0.692670126845831
g619
tp5410
a(F0.669668763981743
g621
tp5411
a(F0.6642923196038801
g623
tp5412
a(F0.6422943672077204
g625
tp5413
a(F0.6009274830693467
g627
tp5414
asg2110
(lp5415
(F0.8170469963223683
g152
tp5416
a(F0.7561945311428355
g2106
tp5417
a(F0.6631953298014394
g2108
tp5418
a(F0.6581691820176526
g2112
tp5419
a(F0.6509793271879086
g5178
tp5420
asS'shape'
p5421
(lp5422
(F0.5444544449486317
g526
tp5423
a(F0.5355955436485977
g528
tp5424
a(F0.5256830855033565
g522
tp5425
a(F0.5256830855033565
g524
tp5426
a(F0.5217438027030626
g530
tp5427
asS'thanks'
p5428
(lp5429
(F0.5668835440100597
g338
tp5430
a(F0.5367654230107444
g562
tp5431
a(F0.5003138646649994
g684
tp5432
a(F0.4962675520614302
g686
tp5433
a(F0.49560085093258244
g688
tp5434
asg1661
(lp5435
(F0.79321756877559
g1663
tp5436
a(F0.7489719180150511
g1665
tp5437
a(F0.7174224784247246
g1667
tp5438
a(F0.7161096630347286
g1659
tp5439
a(F0.6982950918117058
g1657
tp5440
asS'Internet'
p5441
(lp5442
(F0.4312275120950188
g184
tp5443
a(F0.3997183511775949
g29
tp5444
a(F0.3996215024383968
g187
tp5445
a(F0.39063705860322984
g442
tp5446
a(F0.379817001901583
g444
tp5447
asg431
(lp5448
(F0.8721377083937984
g429
tp5449
a(F0.7624708102931139
g433
tp5450
a(F0.6788352959944332
g435
tp5451
a(F0.610815040106084
g253
tp5452
a(F0.605952600446935
g255
tp5453
asg506
(lp5454
(F0.7680771352043804
g504
tp5455
a(F0.6198606737802891
g508
tp5456
a(F0.34955057317380545
g380
tp5457
a(F0.34955057317380545
g382
tp5458
a(F0.3034777341952721
g512
tp5459
asg726
(lp5460
(F0.8136076806506105
g724
tp5461
a(F0.7462485847633773
g728
tp5462
a(F0.47504622279978936
g580
tp5463
a(F0.43488010797687454
g574
tp5464
a(F0.42861547795660404
g576
tp5465
asg538
(lp5466
(F0.6227427940457513
g536
tp5467
a(F0.5829826197854083
g534
tp5468
a(F0.5396030555832425
g540
tp5469
a(F0.5295156423140365
g542
tp5470
a(F0.5128425644662208
g544
tp5471
asS'cut'
p5472
(lp5473
(F0.6318046007859286
g676
tp5474
a(F0.6177473287006983
g875
tp5475
a(F0.6027931933096391
g877
tp5476
a(F0.5804298937898015
g879
tp5477
a(F0.5795286565060633
g881
tp5478
asg1735
(lp5479
(F1.0
g1733
tp5480
a(F0.6862012685191202
g358
tp5481
a(F0.6658390692822745
g360
tp5482
a(F0.6530731367043469
g362
tp5483
a(F0.6530731367043469
g600
tp5484
asg4048
(lp5485
(F0.6413425010935097
g4050
tp5486
a(F0.638616359689506
g4046
tp5487
a(F0.594573996609896
g15
tp5488
a(F0.5640082170835535
g17
tp5489
a(F0.546312549903687
g19
tp5490
asg2783
(lp5491
(F0.7577447956432506
g2779
tp5492
a(F0.630068564903763
g2776
tp5493
a(F0.6259064755825717
g2774
tp5494
a(F0.6242807713608146
g2591
tp5495
a(F0.6090124429716011
g2781
tp5496
asg433
(lp5497
(F0.7624708102931139
g431
tp5498
a(F0.7557916032130543
g435
tp5499
a(F0.7053214021416186
g429
tp5500
a(F0.6791492668681696
g253
tp5501
a(F0.6731433592025334
g255
tp5502
asS'danger'
p5503
(lp5504
(F0.5316406974180908
g83
tp5505
a(F0.525833248532808
g55
tp5506
a(F0.5242666364463239
g86
tp5507
a(F0.5202520298983523
g53
tp5508
a(F0.5105290164687168
g79
tp5509
asg4883
(lp5510
(F0.7186701312763772
g986
tp5511
a(F0.6868508181024638
g4881
tp5512
a(F0.466094951798415
g574
tp5513
a(F0.4593240797417657
g576
tp5514
a(F0.4593240797417657
g578
tp5515
asg737
(lp5516
(F0.6847172892870418
g735
tp5517
a(F0.6340018531965292
g733
tp5518
a(F0.3463117616769526
g739
tp5519
a(F0.34321005789939696
g184
tp5520
a(F0.3161455633119091
g29
tp5521
asg442
(lp5522
(F0.695874811552088
g444
tp5523
a(F0.6766254672836836
g446
tp5524
a(F0.6620277047371067
g184
tp5525
a(F0.650067099442419
g448
tp5526
a(F0.5920166437848619
g1156
tp5527
asg3753
(lp5528
(F0.7643969664818249
g590
tp5529
a(F0.7643969664818249
g592
tp5530
a(F0.7137775732101767
g996
tp5531
a(F0.6682332585068165
g65
tp5532
a(F0.6613448190955303
g67
tp5533
asS'association'
p5534
(lp5535
(F0.6364391911610455
g499
tp5536
a(F0.6245433662640466
g501
tp5537
a(F0.6031213700742625
g358
tp5538
a(F0.596191630917191
g1951
tp5539
a(F0.5884321834930822
g1953
tp5540
asg3407
(lp5541
(F0.7171713400550461
g3401
tp5542
a(F0.7171713400550461
g3403
tp5543
a(F0.6936375928921983
g3405
tp5544
a(F0.5447867008107968
g227
tp5545
a(F0.5422212561406614
g229
tp5546
asg1020
(lp5547
(F0.7880207258148085
g1014
tp5548
a(F0.7728498538853064
g1018
tp5549
a(F0.7566610991186128
g1016
tp5550
a(F0.6548956006896414
g1022
tp5551
a(F0.6175724675954102
g1024
tp5552
asg3328
(lp5553
(F0.7085890648003457
g3326
tp5554
a(F0.46948752956333667
g580
tp5555
a(F0.4302170593162076
g574
tp5556
a(F0.4240851081972187
g576
tp5557
a(F0.4240851081972187
g578
tp5558
asg621
(lp5559
(F0.704552710694622
g619
tp5560
a(F0.6779338887740135
g623
tp5561
a(F0.6571774074249827
g625
tp5562
a(F0.6178532486784596
g627
tp5563
a(F0.6057233369776804
g629
tp5564
asg21
(lp5565
(F0.6457294095466009
g15
tp5566
a(F0.6098365429547227
g17
tp5567
a(F0.5892009379021735
g19
tp5568
a(F0.5637104959691291
g23
tp5569
a(F0.5637104959691291
g114
tp5570
asS'shoulder'
p5571
(lp5572
(F0.5411550805928107
g152
tp5573
a(F0.5200528046720148
g146
tp5574
a(F0.5100727181811555
g154
tp5575
a(F0.5088722413129091
g3546
tp5576
a(F0.501780269210238
g2106
tp5577
asg71
(lp5578
(F1.0
g69
tp5579
a(F0.7709239803432196
g318
tp5580
a(F0.7545585284808675
g1937
tp5581
a(F0.7009683922713195
g1932
tp5582
a(F0.668856405580378
g65
tp5583
asS'emergency'
p5584
(lp5585
(F0.531705912777745
g415
tp5586
a(F0.5030730518079088
g417
tp5587
a(F0.49504286154804616
g1076
tp5588
a(F0.4893334889979474
g1078
tp5589
a(F0.48866214605593544
g1080
tp5590
asg3312
(lp5591
(F1.0
g1953
tp5592
a(F0.6422209523015359
g499
tp5593
a(F0.6293409867927295
g501
tp5594
a(F0.6075943372596682
g358
tp5595
a(F0.6005620292642366
g1951
tp5596
asS'situation'
p5597
(lp5598
(F0.6148733479782913
g295
tp5599
a(F0.5773041240791881
g297
tp5600
a(F0.5619985386751202
g485
tp5601
a(F0.558448117482094
g487
tp5602
a(F0.5351931884879046
g489
tp5603
asS'couple'
p5604
(lp5605
(F0.557164511300257
g1776
tp5606
a(F0.5542221400403272
g1778
tp5607
a(F0.547923635055829
g1780
tp5608
a(F0.5410389045510241
g1774
tp5609
a(F0.5398407199460937
g3038
tp5610
asS'credit'
p5611
(lp5612
(F0.5445663639621138
g338
tp5613
a(F0.5167147015286245
g562
tp5614
a(F0.48284964796824914
g684
tp5615
a(F0.47907982621802525
g686
tp5616
a(F0.47845847750350434
g688
tp5617
asg817
(lp5618
(F0.8199851675515027
g819
tp5619
a(F0.7327918012242036
g2737
tp5620
a(F0.6563394506575102
g433
tp5621
a(F0.6199532929877462
g814
tp5622
a(F0.5975153473459404
g431
tp5623
asS'game'
p5624
(lp5625
(F0.556707279844586
g174
tp5626
a(F0.5133007551464531
g176
tp5627
a(F0.5090077623205442
g305
tp5628
a(F0.505091845795933
g307
tp5629
a(F0.505091845795933
g1012
tp5630
asS'traffic'
p5631
(lp5632
(F0.6451220478208247
g211
tp5633
a(F0.6451220478208247
g213
tp5634
a(F0.6017394293184065
g215
tp5635
a(F0.5812913473919475
g217
tp5636
a(F0.5761963404144413
g219
tp5637
asg272
(lp5638
(F0.8626328233457138
g266
tp5639
a(F0.8279200889365238
g268
tp5640
a(F0.810378190748005
g264
tp5641
a(F0.7922904518583769
g270
tp5642
a(F0.6632959208562798
g274
tp5643
asg182
(lp5644
(F0.7986165976375706
g180
tp5645
a(F0.7220432080066179
g178
tp5646
a(F0.5291864553222329
g184
tp5647
a(F0.4825106408319365
g29
tp5648
a(F0.4823695243331451
g187
tp5649
asg81
(lp5650
(F0.8196198898442562
g79
tp5651
a(F0.5438567668938801
g83
tp5652
a(F0.5377808890304848
g55
tp5653
a(F0.5361423880029709
g86
tp5654
a(F0.5319445709287939
g53
tp5655
asg4385
(lp5656
(F0.7545809694453103
g1082
tp5657
a(F0.715957995066611
g4383
tp5658
a(F0.5895271440637117
g415
tp5659
a(F0.5545331494963451
g417
tp5660
a(F0.5447919998942108
g1076
tp5661
asS'shadow'
p5662
(lp5663
(F0.4220132845530132
g295
tp5664
a(F0.4039699390224696
g297
tp5665
a(F0.3964153710440376
g485
tp5666
a(F0.39464558975398967
g487
tp5667
a(F0.3828884644932794
g489
tp5668
asg374
(lp5669
(F0.7339626757919269
g364
tp5670
a(F0.708888872170474
g366
tp5671
a(F0.6986682633781995
g368
tp5672
a(F0.6465475460965464
g370
tp5673
a(F0.5996227353206856
g372
tp5674
asg528
(lp5675
(F0.7901501647882366
g3943
tp5676
a(F0.6174795081532151
g526
tp5677
a(F0.5934461721994013
g522
tp5678
a(F0.5934461721994013
g524
tp5679
a(F0.5884306921473673
g530
tp5680
asg2494
(lp5681
(F0.7996667003748087
g2496
tp5682
a(F0.7723061163365016
g193
tp5683
a(F0.7266621602103112
g2498
tp5684
a(F0.7252600484980525
g2500
tp5685
a(F0.7075746489188303
g2502
tp5686
asg1242
(lp5687
(F0.7759411907027469
g1240
tp5688
a(F0.6708973700952322
g1238
tp5689
a(F0.6494210840456887
g1236
tp5690
a(F0.6394757105344692
g1244
tp5691
a(F0.6152417263959529
g1246
tp5692
asS'loss'
p5693
(lp5694
(F0.7015703180592618
g672
tp5695
a(F0.6850734833643524
g674
tp5696
a(F0.6389044159543
g670
tp5697
a(F0.5771175997077524
g676
tp5698
a(F0.574006774090479
g678
tp5699
asg576
(lp5700
(F1.0
g578
tp5701
a(F0.7698466674483063
g574
tp5702
a(F0.6760936395339765
g582
tp5703
a(F0.6696262721772185
g827
tp5704
a(F0.628223344566361
g829
tp5705
asS'success'
p5706
(lp5707
(F0.6208451305800524
g415
tp5708
a(F0.5821563435461251
g417
tp5709
a(F0.571429928545474
g1076
tp5710
a(F0.5638361739280437
g1078
tp5711
a(F0.5629450261836311
g1080
tp5712
asg670
(lp5713
(F0.8275858797727147
g672
tp5714
a(F0.8217937610183617
g668
tp5715
a(F0.8047270532473317
g674
tp5716
a(F0.6760472995215351
g676
tp5717
a(F0.656581588255105
g875
tp5718
asg1796
(lp5719
(F0.8450540512768747
g1794
tp5720
a(F0.6504278218251514
g1798
tp5721
a(F0.45595509523649064
g526
tp5722
a(F0.4497256256710383
g528
tp5723
a(F0.44271602487160755
g522
tp5724
asg1022
(lp5725
(F0.7324328307602456
g1014
tp5726
a(F0.7171676387366459
g1018
tp5727
a(F0.700932726630665
g1016
tp5728
a(F0.6770705222453364
g1024
tp5729
a(F0.6710904457408425
g3802
tp5730
asg1333
(lp5731
(F0.7381955217668795
g672
tp5732
a(F0.7259281663167403
g674
tp5733
a(F0.6339426828671924
g670
tp5734
a(F0.6090597327291786
g678
tp5735
a(F0.5723899075438215
g676
tp5736
asg1230
(lp5737
(F0.710646894357326
g1224
tp5738
a(F0.710646894357326
g1226
tp5739
a(F0.6837121156201633
g1228
tp5740
a(F0.5604366677047222
g1232
tp5741
a(F0.5066517107241439
g1234
tp5742
asS'night'
p5743
(lp5744
(F0.6226729731407568
g103
tp5745
a(F0.5477989245676168
g101
tp5746
a(F0.5345427608765582
g105
tp5747
a(F0.49804127145798033
g107
tp5748
a(F0.4794058207856914
g109
tp5749
asS'security'
p5750
(lp5751
(F0.5591925032952888
g83
tp5752
a(F0.5527711605556845
g55
tp5753
a(F0.5510401892832878
g86
tp5754
a(F0.5466068058514311
g53
tp5755
a(F0.535883901867438
g79
tp5756
asg231
(lp5757
(F1.0
g1445
tp5758
a(F0.6467203678750288
g227
tp5759
a(F0.6431082638779374
g229
tp5760
a(F0.5621440880065295
g223
tp5761
a(F0.5572459648340725
g1362
tp5762
asg2879
(lp5763
(F0.7106043996653658
g827
tp5764
a(F0.5817108109959217
g582
tp5765
a(F0.5097628360147465
g2882
tp5766
a(F0.48863505484583947
g3640
tp5767
a(F0.48825092017292
g986
tp5768
asg2404
(lp5769
(F0.6883700131906937
g2192
tp5770
a(F0.6664039505744904
g2401
tp5771
a(F0.5786030504201325
g2376
tp5772
a(F0.5582258948095038
g195
tp5773
a(F0.5382511780391431
g193
tp5774
asg1992
(lp5775
(F0.7193422298733823
g1988
tp5776
a(F0.7137042955918367
g1990
tp5777
a(F0.6654729804561069
g1986
tp5778
a(F0.6277565358322867
g1994
tp5779
a(F0.6077102471319953
g1996
tp5780
asg1428
(lp5781
(F0.8425300898618066
g3876
tp5782
a(F0.7218142740592547
g122
tp5783
a(F0.6568944633833588
g128
tp5784
a(F0.6568944633833588
g130
tp5785
a(F0.6146745075713022
g1430
tp5786
asg796
(lp5787
(F0.6047401097039312
g794
tp5788
a(F0.5813613898208357
g792
tp5789
a(F0.5496687570839511
g720
tp5790
a(F0.5454329063132929
g722
tp5791
a(F0.5343254686272358
g800
tp5792
asg1812
(lp5793
(F0.6535469932857041
g499
tp5794
a(F0.5726602435483452
g1814
tp5795
a(F0.5383744837944884
g501
tp5796
a(F0.5206400002847597
g211
tp5797
a(F0.5206400002847597
g213
tp5798
asg457
(lp5799
(F0.8102407112645035
g453
tp5800
a(F0.8079208307780925
g455
tp5801
a(F0.7714870973075931
g451
tp5802
a(F0.5610571644633314
g103
tp5803
a(F0.4999808886474567
g101
tp5804
asS'village'
p5805
(lp5806
(F0.5923703314711618
g1776
tp5807
a(F0.5890454797683559
g1778
tp5808
a(F0.5819356797508426
g1780
tp5809
a(F0.5741757419318457
g1774
tp5810
a(F0.5728264760984122
g3038
tp5811
asg3546
(lp5812
(F0.5869306677615144
g152
tp5813
a(F0.5621889841881539
g146
tp5814
a(F0.5505442565641886
g154
tp5815
a(F0.5418547275864488
g423
tp5816
a(F0.5408961245288693
g2106
tp5817
asg637
(lp5818
(F0.8011011685776525
g633
tp5819
a(F0.7994445856028497
g635
tp5820
a(F0.7827082308068287
g631
tp5821
a(F0.546793076422341
g390
tp5822
a(F0.5291827550667776
g392
tp5823
asg766
(lp5824
(F1.0
g768
tp5825
a(F0.8233949505926211
g883
tp5826
a(F0.7987589106061196
g762
tp5827
a(F0.7987589106061196
g764
tp5828
a(F0.7723639543037186
g770
tp5829
asg148
(lp5830
(F0.8296254619205752
g144
tp5831
a(F0.6943649474581689
g845
tp5832
a(F0.692582317258579
g847
tp5833
a(F0.6719024965639057
g932
tp5834
a(F0.6673905284503518
g839
tp5835
asg4678
(lp5836
(F0.7689334065911646
g4676
tp5837
a(F0.6832271770689351
g4674
tp5838
a(F0.5890916659441241
g962
tp5839
a(F0.5843609604136801
g964
tp5840
a(F0.5837240741054939
g966
tp5841
asS'election'
p5842
(lp5843
(F0.577010821603574
g720
tp5844
a(F0.5723448722788215
g722
tp5845
a(F0.5601265760660644
g800
tp5846
a(F0.5601265760660644
g1374
tp5847
a(F0.554290781248189
g716
tp5848
asg1406
(lp5849
(F0.7272656961639281
g1402
tp5850
a(F0.6779359815931267
g1404
tp5851
a(F0.6521109314766997
g1400
tp5852
a(F0.45690397652070935
g124
tp5853
a(F0.45690397652070935
g126
tp5854
asS'mirror'
p5855
(lp5856
(F0.5534388125646994
g442
tp5857
a(F0.5363866675982536
g444
tp5858
a(F0.5248767609241757
g446
tp5859
a(F0.508753257907687
g448
tp5860
a(F0.487098436893261
g184
tp5861
asg1975
(lp5862
(F0.710907131864854
g241
tp5863
a(F0.6697302697193547
g235
tp5864
a(F0.6628114403096679
g237
tp5865
a(F0.6628114403096679
g239
tp5866
a(F0.6347418049514215
g1971
tp5867
asg2840
(lp5868
(F0.7631605969457493
g2830
tp5869
a(F0.7014001409763613
g2832
tp5870
a(F0.6682785700761836
g2834
tp5871
a(F0.6666172650035135
g2836
tp5872
a(F0.6306480154551694
g2838
tp5873
asg1687
(lp5874
(F0.8049903483856192
g847
tp5875
a(F0.7505977020941905
g1685
tp5876
a(F0.6587832711066448
g1682
tp5877
a(F0.6295430991741624
g845
tp5878
a(F0.611599926291821
g148
tp5879
asg388
(lp5880
(F0.7398134510729156
g384
tp5881
a(F0.7067901584400978
g386
tp5882
a(F0.4848744682389649
g390
tp5883
a(F0.470976007910228
g392
tp5884
a(F0.46410099201373
g394
tp5885
asg1278
(lp5886
(F0.8179898410275099
g2052
tp5887
a(F0.720325315102014
g1272
tp5888
a(F0.7102763873254455
g1280
tp5889
a(F0.6974411015522075
g2054
tp5890
a(F0.6228349338690675
g2457
tp5891
asg927
(lp5892
(F0.8740854159910519
g1047
tp5893
a(F0.8284783585851503
g1137
tp5894
a(F0.8284783585851503
g1139
tp5895
a(F0.8268494923137191
g1143
tp5896
a(F0.5692291174342173
g350
tp5897
asg3044
(lp5898
(F0.6214939180125264
g1776
tp5899
a(F0.6178351100105995
g1778
tp5900
a(F0.6100179540999063
g1780
tp5901
a(F0.6014964917122095
g1774
tp5902
a(F0.6000159335191996
g3038
tp5903
asS'ice'
p5904
(lp5905
(F0.6635519761925452
g2494
tp5906
a(F0.6218069013317647
g2496
tp5907
a(F0.604753467066424
g193
tp5908
a(F0.5867590578448717
g2498
tp5909
a(F0.5858445267082933
g2500
tp5910
asS'contrast'
p5911
(lp5912
(F0.4191338529760473
g580
tp5913
a(F0.3875520317338323
g574
tp5914
a(F0.3825689527099086
g576
tp5915
a(F0.3825689527099086
g578
tp5916
a(F0.35762237080429654
g582
tp5917
asg1191
(lp5918
(F1.0
g1193
tp5919
a(F0.6744269872808527
g1189
tp5920
a(F0.6257987034033748
g1195
tp5921
a(F0.6165719910646029
g1197
tp5922
a(F0.5877766850877073
g1199
tp5923
asS'cloud'
p5924
(lp5925
(F0.7012110928011465
g962
tp5926
a(F0.6958855832906938
g964
tp5927
a(F0.6529406422866758
g2114
tp5928
a(F0.6515711288902583
g2120
tp5929
a(F0.6440122392081443
g966
tp5930
asg1253
(lp5931
(F0.5923554589323582
g380
tp5932
a(F0.5923554589323582
g382
tp5933
a(F0.4585346197832178
g512
tp5934
a(F0.44973036001139854
g1255
tp5935
a(F0.42661333707857146
g1224
tp5936
asg1988
(lp5937
(F0.8301284760540606
g1986
tp5938
a(F0.7962782729774968
g1990
tp5939
a(F0.7193422298733823
g1992
tp5940
a(F0.6985096590172355
g1994
tp5941
a(F0.66656760910544
g1996
tp5942
asS'conference'
p5943
(lp5944
(F0.6012273687630763
g1776
tp5945
a(F0.597802635748738
g1778
tp5946
a(F0.590481179735066
g1780
tp5947
a(F0.5824932293790248
g1774
tp5948
a(F0.5811046368556524
g3038
tp5949
asg2698
(lp5950
(F0.5776856368353117
g2694
tp5951
a(F0.5510916655652474
g2692
tp5952
a(F0.5424533232049036
g2696
tp5953
asg1080
(lp5954
(F0.6333883649183839
g415
tp5955
a(F0.5931711231100346
g417
tp5956
a(F0.5820388474669937
g1076
tp5957
a(F0.5741624540099585
g1078
tp5958
a(F0.5697062162585638
g1082
tp5959
asS'run'
p5960
(lp5961
(F0.47851491161592813
g350
tp5962
a(F0.46815372471127836
g346
tp5963
a(F0.46433462466764064
g348
tp5964
a(F0.4388139950938865
g927
tp5965
a(F0.4244432931535154
g1047
tp5966
asg1951
(lp5967
(F0.8968635714691107
g4720
tp5968
a(F0.8828791882343399
g4723
tp5969
a(F0.6529699419516136
g499
tp5970
a(F0.6382249820538324
g501
tp5971
a(F0.6158709365443003
g358
tp5972
asg344
(lp5973
(F0.7649889746975902
g342
tp5974
a(F0.7520858947508535
g340
tp5975
a(F0.6193338585568973
g346
tp5976
a(F0.5032841759384473
g348
tp5977
a(F0.4806736889570966
g350
tp5978
asg59
(lp5979
(F0.766154870081941
g55
tp5980
a(F0.7579956627416278
g53
tp5981
a(F0.7216544976628294
g51
tp5982
a(F0.7216544976628294
g49
tp5983
a(F0.6951216451052381
g57
tp5984
asg1132
(lp5985
(F0.7676689463530773
g1130
tp5986
a(F0.719979047142404
g1128
tp5987
a(F0.719979047142404
g1126
tp5988
a(F0.7181483761258179
g1134
tp5989
a(F0.6536193181257678
g912
tp5990
asS'pressure'
p5991
(lp5992
(F0.7167379348075475
g962
tp5993
a(F0.7111749053180109
g964
tp5994
a(F0.6663828776959874
g2114
tp5995
a(F0.66495645648872
g2120
tp5996
a(F0.6581469449263828
g966
tp5997
asS'host'
p5998
(lp5999
(F0.5696177667954897
g364
tp6000
a(F0.5498142568757817
g372
tp6001
a(F0.5299468310239895
g366
tp6002
a(F0.5229097949882527
g368
tp6003
a(F0.5216922920683066
g766
tp6004
asS'leadership'
p6005
(lp6006
(F0.4797503923015073
g174
tp6007
a(F0.4471638530244345
g176
tp6008
a(F0.44390234849091703
g305
tp6009
a(F0.4409211762903
g307
tp6010
a(F0.4409211762903
g1012
tp6011
asg67
(lp6012
(F0.7096000343664615
g2089
tp6013
a(F0.697516874271318
g2091
tp6014
a(F0.4746983838539535
g336
tp6015
a(F0.4635873991358496
g338
tp6016
a(F0.45991297774130874
g322
tp6017
asg998
(lp6018
(F1.0
g1000
tp6019
a(F0.9077900067824446
g1002
tp6020
a(F0.8426187321538947
g1004
tp6021
a(F0.8059908985617767
g994
tp6022
a(F0.7033541627225943
g996
tp6023
asS'panel'
p6024
(lp6025
(F0.3645751907350913
g739
tp6026
a(F0.36113933455990105
g184
tp6027
a(F0.33129622305765566
g29
tp6028
a(F0.3312054448671562
g187
tp6029
a(F0.3290106620745632
g227
tp6030
asg1193
(lp6031
(F1.0
g1191
tp6032
a(F0.6744269872808527
g1189
tp6033
a(F0.6257987034033748
g1195
tp6034
a(F0.6165719910646029
g1197
tp6035
a(F0.5877766850877073
g1199
tp6036
asg2549
(lp6037
(F1.0
g2547
tp6038
a(F0.6300415764243651
g845
tp6039
a(F0.6285735718852666
g847
tp6040
a(F0.6120703827718308
g148
tp6041
a(F0.6114924523010558
g932
tp6042
asg2444
(lp6043
(F0.8352007148687611
g2442
tp6044
a(F0.5041063252586249
g2446
tp6045
a(F0.4695435210957645
g2448
tp6046
a(F0.3774257922319372
g103
tp6047
a(F0.33872518275496655
g2915
tp6048
asg932
(lp6049
(F0.6936212551173419
g845
tp6050
a(F0.6918424365167007
g847
tp6051
a(F0.6719024965639057
g148
tp6052
a(F0.6667034665299474
g839
tp6053
a(F0.6461945477275282
g841
tp6054
asS'package'
p6055
(lp6056
(F0.6472107921092228
g211
tp6057
a(F0.6472107921092228
g213
tp6058
a(F0.6035562994992871
g215
tp6059
a(F0.5829866612687569
g217
tp6060
a(F0.5778620231700118
g219
tp6061
asg203
(lp6062
(F0.8014902152181274
g45
tp6063
a(F0.7532628510093504
g47
tp6064
a(F0.7294230361603096
g205
tp6065
a(F0.7230794716492749
g39
tp6066
a(F0.6493394399738079
g41
tp6067
asS'freedom'
p6068
(lp6069
(F0.5434343710189823
g295
tp6070
a(F0.5138781342710866
g297
tp6071
a(F0.5017154970471178
g485
tp6072
a(F0.49888398160089675
g487
tp6073
a(F0.48024244490790163
g489
tp6074
asg4723
(lp6075
(F0.8828791882343399
g1951
tp6076
a(F0.8496186551220439
g4720
tp6077
a(F0.6091145520265291
g499
tp6078
a(F0.601687856700054
g501
tp6079
a(F0.5817800820377488
g358
tp6080
asS'violence'
p6081
(lp6082
(F0.5101162003952014
g350
tp6083
a(F0.498358125853919
g346
tp6084
a(F0.49403260274241373
g348
tp6085
a(F0.46524427162866483
g927
tp6086
a(F0.4491221087186993
g1047
tp6087
asg3629
(lp6088
(F0.5064985216998441
g380
tp6089
a(F0.5064985216998441
g382
tp6090
a(F0.40188817285055084
g659
tp6091
a(F0.37766132108617856
g1556
tp6092
a(F0.3613729572814112
g3625
tp6093
asg2376
(lp6094
(F0.7370565306849852
g2635
tp6095
a(F0.7273207480012146
g2637
tp6096
a(F0.7086802762417387
g2192
tp6097
a(F0.6854207790083978
g2401
tp6098
a(F0.6489362395124415
g195
tp6099
asg996
(lp6100
(F0.846231475539359
g994
tp6101
a(F0.7137775732101767
g3753
tp6102
a(F0.7033541627225943
g998
tp6103
a(F0.7033541627225943
g1000
tp6104
a(F0.7003558725097079
g1002
tp6105
asS'stand'
p6106
(lp6107
(F0.5388356861118587
g442
tp6108
a(F0.5226583982882609
g444
tp6109
a(F0.5117241155339729
g446
tp6110
a(F0.49638674481273787
g448
tp6111
a(F0.47278158807406456
g184
tp6112
asS'neighbor'
p6113
(lp6114
(F0.34418610047919973
g380
tp6115
a(F0.34418610047919973
g382
tp6116
asg2276
(lp6117
(F0.7165017686727099
g326
tp6118
a(F0.6855033961030693
g322
tp6119
a(F0.6848515871674328
g854
tp6120
a(F0.6212806405502561
g2391
tp6121
a(F0.6183072873737987
g324
tp6122
asg4383
(lp6123
(F0.756852799485871
g1082
tp6124
a(F0.715957995066611
g4385
tp6125
a(F0.5914873182911209
g415
tp6126
a(F0.5562671785894885
g417
tp6127
a(F0.5464655508547079
g1076
tp6128
asS'bond'
p6129
(lp6130
(F0.6253238819707678
g962
tp6131
a(F0.6210852008657257
g964
tp6132
a(F0.5866478950841749
g2114
tp6133
a(F0.5855421209967605
g2120
tp6134
a(F0.574851389606768
g966
tp6135
asS'block'
p6136
(lp6137
(F0.4828973556727694
g739
tp6138
a(F0.4768877761206916
g184
tp6139
a(F0.426191735962116
g29
tp6140
a(F0.4260415170834155
g187
tp6141
a(F0.4224167743733183
g227
tp6142
asg1035
(lp6143
(F0.8291212282890705
g1033
tp6144
a(F0.6873118683216887
g322
tp6145
a(F0.6167913675618164
g324
tp6146
a(F0.5978097939653659
g316
tp6147
a(F0.5901951632577797
g326
tp6148
asS'facility'
p6149
(lp6150
(F0.46522034806242746
g739
tp6151
a(F0.4596401485216305
g184
tp6152
a(F0.412363078559591
g29
tp6153
a(F0.41222244823452087
g187
tp6154
a(F0.4088280993184837
g227
tp6155
asS'communication'
p6156
(lp6157
(F0.5090267396738088
g170
tp6158
a(F0.4808507343024535
g172
tp6159
a(F0.4340373095405087
g174
tp6160
a(F0.40276356666769314
g1086
tp6161
a(F0.3985317137074747
g176
tp6162
asg1404
(lp6163
(F0.795467497335874
g1402
tp6164
a(F0.7064189724644688
g1400
tp6165
a(F0.6779359815931267
g1406
tp6166
a(F0.511767655858288
g124
tp6167
a(F0.511767655858288
g126
tp6168
asg764
(lp6169
(F1.0
g762
tp6170
a(F0.7987589106061196
g766
tp6171
a(F0.7987589106061196
g768
tp6172
a(F0.7599649672403794
g770
tp6173
a(F0.73633295644146
g772
tp6174
asg569
(lp6175
(F0.8561496635740712
g370
tp6176
a(F0.8282962453048486
g372
tp6177
a(F0.7781911314649977
g1122
tp6178
a(F0.7570042481031021
g274
tp6179
a(F0.7345228406366557
g266
tp6180
asg184
(lp6181
(F0.6885386128084303
g29
tp6182
a(F0.6882512924684638
g187
tp6183
a(F0.6620277047371067
g442
tp6184
a(F0.6315377235908851
g444
tp6185
a(F0.6267447888132861
g3268
tp6186
asS'guard'
p6187
(lp6188
(F0.3600281776700829
g380
tp6189
a(F0.3600281776700829
g382
tp6190
a(F0.31094308659691355
g512
tp6191
a(F0.3083127184718366
g1253
tp6192
a(F0.30686925756778777
g1255
tp6193
asg962
(lp6194
(F0.89594186284354
g2120
tp6195
a(F0.8336202682156172
g3516
tp6196
a(F0.8123673828141836
g3520
tp6197
a(F0.8020491682545939
g964
tp6198
a(F0.7898069976295157
g3514
tp6199
asg898
(lp6200
(F0.6051693601329861
g896
tp6201
a(F0.5777329937850729
g890
tp6202
a(F0.576323219203999
g892
tp6203
a(F0.567935579350512
g900
tp6204
a(F0.5622645523614469
g2176
tp6205
asS'female'
p6206
(lp6207
(F0.625639517568541
g1661
tp6208
a(F0.5946256715179663
g1663
tp6209
a(F0.5891904980178845
g1665
tp6210
a(F0.5755371866339148
g1675
tp6211
a(F0.5682183850877136
g1667
tp6212
asg1527
(lp6213
(F0.8664269964724066
g1525
tp6214
a(F0.7439218819625857
g1529
tp6215
a(F0.6321569411537352
g1531
tp6216
a(F0.4263672035163622
g174
tp6217
a(F0.4004331710815393
g176
tp6218
asg2776
(lp6219
(F0.8064636219107092
g2781
tp6220
a(F0.691803052332213
g2774
tp6221
a(F0.6898175571020713
g2591
tp6222
a(F0.6869832289982102
g2779
tp6223
a(F0.630068564903763
g2783
tp6224
asS'intervention'
p6225
(lp6226
(F0.4985264288923836
g720
tp6227
a(F0.4950396338405838
g722
tp6228
a(F0.4858725954602497
g800
tp6229
a(F0.4858725954602497
g1374
tp6230
a(F0.4814754309471421
g716
tp6231
asg1780
(lp6232
(F0.642879604267482
g1776
tp6233
a(F0.6389654568275747
g1778
tp6234
a(F0.6215059365995522
g1774
tp6235
a(F0.6199253645872894
g3038
tp6236
a(F0.6100179540999063
g3044
tp6237
asg3160
(lp6238
(F0.6986285388532845
g659
tp6239
a(F0.6682567185004747
g1556
tp6240
a(F0.5690320942055055
g1491
tp6241
a(F0.5567736803121283
g776
tp6242
a(F0.5567736803121283
g778
tp6243
asg2861
(lp6244
(F0.7237551692224938
g2857
tp6245
a(F0.723606119322593
g2859
tp6246
a(F0.6255647110667966
g2855
tp6247
a(F0.3676816368331933
g739
tp6248
a(F0.3641872598164974
g184
tp6249
asS'support'
p6250
(lp6251
(F0.45778958522515983
g174
tp6252
a(F0.4280255497064142
g176
tp6253
a(F0.4250363179418543
g305
tp6254
a(F0.4223023826256947
g307
tp6255
a(F0.4223023826256947
g1012
tp6256
asS'legislation'
p6257
(lp6258
(F0.6536356729281344
g211
tp6259
a(F0.6536356729281344
g213
tp6260
a(F0.6091399528955526
g215
tp6261
a(F0.5881945681097412
g217
tp6262
a(F0.5829783723481705
g219
tp6263
asg197
(lp6264
(F0.826525705317688
g195
tp6265
a(F0.7287784022346908
g2187
tp6266
a(F0.6671286632702789
g2189
tp6267
a(F0.6570502605919426
g189
tp6268
a(F0.644919861242909
g2192
tp6269
asg674
(lp6270
(F0.96227585652343
g672
tp6271
a(F0.8047270532473317
g670
tp6272
a(F0.7526873646681181
g678
tp6273
a(F0.7374878959511594
g676
tp6274
a(F0.7259281663167403
g1333
tp6275
asg409
(lp6276
(F0.8472952693752371
g411
tp6277
a(F0.8144540059860906
g413
tp6278
a(F0.781385742252578
g407
tp6279
a(F0.6056235959413602
g415
tp6280
a(F0.5687523197927795
g417
tp6281
asg57
(lp6282
(F0.8040388654824636
g55
tp6283
a(F0.795057543075762
g53
tp6284
a(F0.7551692316096594
g51
tp6285
a(F0.7551692316096594
g49
tp6286
a(F0.6951216451052381
g59
tp6287
asg925
(lp6288
(F0.7960207966926677
g1646
tp6289
a(F0.7424941551356717
g1648
tp6290
a(F0.6747506210962734
g923
tp6291
a(F0.5678316186296813
g346
tp6292
a(F0.5633223125356491
g1642
tp6293
asg1996
(lp6294
(F0.66656760910544
g1988
tp6295
a(F0.661723799076291
g1990
tp6296
a(F0.6200571261046601
g1986
tp6297
a(F0.6077102471319953
g1992
tp6298
a(F0.5830219485557131
g1994
tp6299
asg540
(lp6300
(F0.6114017976830014
g542
tp6301
a(F0.5892809368278058
g544
tp6302
a(F0.5781889375744035
g536
tp6303
a(F0.5396030555832425
g538
tp6304
a(F0.5362661896185188
g534
tp6305
asg627
(lp6306
(F0.6933291172355561
g625
tp6307
a(F0.6436860785032655
g629
tp6308
a(F0.6354456726015034
g619
tp6309
a(F0.6178532486784596
g621
tp6310
a(F0.6137121006393004
g623
tp6311
asg1004
(lp6312
(F0.8426187321538947
g998
tp6313
a(F0.8426187321538947
g1000
tp6314
a(F0.8389266320458705
g1002
tp6315
a(F0.7912893824006934
g994
tp6316
a(F0.6921324302572031
g996
tp6317
asg1667
(lp6318
(F0.7174224784247246
g1661
tp6319
a(F0.6793396077043279
g1663
tp6320
a(F0.6726945488709531
g1665
tp6321
a(F0.6194952763650432
g1659
tp6322
a(F0.614908050837241
g1675
tp6323
asS'function'
p6324
(lp6325
(F0.5140667345927493
g580
tp6326
a(F0.46735550716269125
g574
tp6327
a(F0.4601280732334716
g576
tp6328
a(F0.4601280732334716
g578
tp6329
a(F0.4245120518058539
g582
tp6330
asg5178
(lp6331
(F0.727553815702083
g152
tp6332
a(F0.6741648074944567
g2106
tp6333
a(F0.6537231535904942
g2108
tp6334
a(F0.6509793271879086
g2110
tp6335
a(F0.6488390250881767
g2112
tp6336
asg305
(lp6337
(F0.5985562973567485
g174
tp6338
a(F0.5486709307771515
g176
tp6339
a(F0.5393020604013491
g307
tp6340
a(F0.5393020604013491
g1012
tp6341
a(F0.5333309067051005
g912
tp6342
asS'north'
p6343
(lp6344
(F0.5966196648672156
g1491
tp6345
a(F0.5349010378312197
g1553
tp6346
a(F0.5084774658248155
g1485
tp6347
a(F0.5021338462673572
g1487
tp6348
a(F0.48318078411665355
g1489
tp6349
asg1584
(lp6350
(F0.7553293064497646
g1586
tp6351
a(F0.7217148305162563
g829
tp6352
a(F0.7013495478367662
g1580
tp6353
a(F0.667860544175629
g1577
tp6354
a(F0.6394770631772014
g1582
tp6355
asS'offer'
p6356
(lp6357
(F0.5842028672468825
g896
tp6358
a(F0.560662251258216
g898
tp6359
a(F0.5585944469240396
g890
tp6360
a(F0.5572764218541504
g892
tp6361
a(F0.549430250000794
g900
tp6362
asg1513
(lp6363
(F0.740880071344826
g1511
tp6364
a(F0.6749703740511694
g29
tp6365
a(F0.6128525182850137
g27
tp6366
a(F0.5963086891908765
g31
tp6367
a(F0.5830835445423129
g33
tp6368
asg29
(lp6369
(F0.8458984009869076
g27
tp6370
a(F0.8147005184294505
g31
tp6371
a(F0.7902132245148115
g33
tp6372
a(F0.7869434554516219
g25
tp6373
a(F0.7550919166867417
g2016
tp6374
asS'volume'
p6375
(lp6376
(F0.3889506104895461
g103
tp6377
a(F0.3836254929818652
g2448
tp6378
a(F0.35002858396759895
g2446
tp6379
a(F0.3413260331402205
g101
tp6380
a(F0.3334841590051344
g105
tp6381
asg4955
(lp6382
(F0.8431789724472003
g4953
tp6383
a(F0.5185471416547437
g170
tp6384
a(F0.48933755994975764
g172
tp6385
a(F0.4409402358519095
g174
tp6386
a(F0.4113314974712034
g1086
tp6387
asg2116
(lp6388
(F0.7675514238447316
g2114
tp6389
a(F0.6522371006275333
g962
tp6390
a(F0.6476270570463295
g964
tp6391
a(F0.6090755061192613
g2120
tp6392
a(F0.5993938918559042
g966
tp6393
asg749
(lp6394
(F0.7020860064480617
g743
tp6395
a(F0.6915748248385151
g745
tp6396
a(F0.6777348155998396
g747
tp6397
a(F0.4907255409043765
g174
tp6398
a(F0.45668389345853694
g176
tp6399
asg3648
(lp6400
(F0.6449593120487964
g3646
tp6401
a(F0.5220530080058018
g152
tp6402
a(F0.5023871351756137
g146
tp6403
a(F0.49306748437251546
g154
tp6404
a(F0.49194563019214416
g3546
tp6405
asS'competition'
p6406
(lp6407
(F0.42033842269414395
g580
tp6408
a(F0.3885816884585946
g574
tp6409
a(F0.3835722670803467
g576
tp6410
a(F0.3835722670803467
g578
tp6411
a(F0.35849895307154533
g582
tp6412
asg3525
(lp6413
(F0.8596746634477309
g3523
tp6414
a(F0.3731382272485329
g380
tp6415
a(F0.3731382272485329
g382
tp6416
a(F0.32017503906001976
g512
tp6417
a(F0.3173868603820953
g1253
tp6418
asg279
(lp6419
(F0.8683398157237057
g154
tp6420
a(F0.7972126835275428
g276
tp6421
a(F0.6667915615019541
g281
tp6422
a(F0.6335489620643324
g283
tp6423
a(F0.6230241683012592
g285
tp6424
asg336
(lp6425
(F0.5782108062712595
g338
tp6426
a(F0.5725059087032418
g322
tp6427
a(F0.5536093200060724
g399
tp6428
a(F0.548824731763731
g520
tp6429
a(F0.5348977284023699
g562
tp6430
asS'analyst'
p6431
(lp6432
(F0.30096668819566696
g380
tp6433
a(F0.30096668819566696
g382
tp6434
asS'commitment'
p6435
(lp6436
(F0.330298303768362
g708
tp6437
a(F0.32505593280089307
g295
tp6438
a(F0.3104602139196067
g297
tp6439
a(F0.3043685577384791
g485
tp6440
a(F0.30294313949227847
g487
tp6441
asg1493
(lp6442
(F0.6786733795202226
g1485
tp6443
a(F0.6700245673069107
g1487
tp6444
a(F0.6442121385170103
g1489
tp6445
a(F0.6164076941272525
g1495
tp6446
a(F0.6119089204657477
g1491
tp6447
asg1862
(lp6448
(F1.0
g1430
tp6449
a(F0.9195559532087768
g1864
tp6450
a(F0.7045567486881902
g122
tp6451
a(F0.643460526264763
g128
tp6452
a(F0.643460526264763
g130
tp6453
asg366
(lp6454
(F0.882310704736048
g2971
tp6455
a(F0.8646461250847365
g364
tp6456
a(F0.8102234826733447
g368
tp6457
a(F0.7458500514749375
g370
tp6458
a(F0.708888872170474
g374
tp6459
asS'rest'
p6460
(lp6461
(F0.4689497904060907
g574
tp6462
a(F0.4625259999675479
g576
tp6463
a(F0.4625259999675479
g578
tp6464
a(F0.4493364074130904
g580
tp6465
a(F0.4305305922165238
g582
tp6466
asg839
(lp6467
(F0.8849760763414174
g841
tp6468
a(F0.8813498027804951
g843
tp6469
a(F0.8099808608166325
g837
tp6470
a(F0.6888139239733663
g845
tp6471
a(F0.6870596459193428
g847
tp6472
asg692
(lp6473
(F0.8574682818937658
g694
tp6474
a(F0.8187125004107529
g696
tp6475
a(F0.7940055414568389
g698
tp6476
a(F0.7621750892471234
g700
tp6477
a(F0.7491837659016793
g690
tp6478
asg2781
(lp6479
(F0.8064636219107092
g2776
tp6480
a(F0.6665014525151532
g2774
tp6481
a(F0.664658340672244
g2591
tp6482
a(F0.662026596676563
g2779
tp6483
a(F0.6090124429716011
g2783
tp6484
asg1297
(lp6485
(F0.818729164563152
g1295
tp6486
a(F0.5981365641803051
g83
tp6487
a(F0.590795539348215
g55
tp6488
a(F0.5888186608318859
g86
tp6489
a(F0.5837593380219313
g53
tp6490
asg2696
(lp6491
(F0.69156466075732
g2694
tp6492
a(F0.6537950751527577
g2692
tp6493
a(F0.5424533232049036
g2698
tp6494
a(F0.3756432002082475
g380
tp6495
a(F0.3756432002082475
g382
tp6496
asg1066
(lp6497
(F0.9552102041367582
g1696
tp6498
a(F0.7418588233116218
g1062
tp6499
a(F0.7416233775092084
g1064
tp6500
a(F0.6863345896622917
g1691
tp6501
a(F0.6687171375602827
g1698
tp6502
asS'nature'
p6503
(lp6504
(F0.52640579539294
g390
tp6505
a(F0.5100645776313609
g392
tp6506
a(F0.5020107814556476
g394
tp6507
a(F0.49539566530283513
g384
tp6508
a(F0.4850729257415749
g481
tp6509
asg3152
(lp6510
(F0.7621450149498982
g3150
tp6511
a(F0.7039918141659244
g3148
tp6512
a(F0.6772349695386662
g3154
tp6513
a(F0.36288710947587
g380
tp6514
a(F0.36288710947587
g382
tp6515
asg2832
(lp6516
(F0.8745977422743025
g2830
tp6517
a(F0.7653488207416618
g2834
tp6518
a(F0.7632109856437376
g2836
tp6519
a(F0.7172451765714905
g2838
tp6520
a(F0.7014001409763613
g2840
tp6521
asS'ad'
p6522
(lp6523
(F0.6207795339931504
g338
tp6524
a(F0.5848437803032469
g562
tp6525
a(F0.5418314369284528
g684
tp6526
a(F0.5370888927684134
g686
tp6527
a(F0.5363080856166844
g688
tp6528
asg2169
(lp6529
(F0.6814562234776417
g253
tp6530
a(F0.6765889001489727
g255
tp6531
a(F0.6379198508011423
g245
tp6532
a(F0.6147475074544295
g247
tp6533
a(F0.6137448769869797
g433
tp6534
asg574
(lp6535
(F0.7698466674483063
g576
tp6536
a(F0.7698466674483063
g578
tp6537
a(F0.6891556284168976
g582
tp6538
a(F0.6824371923226422
g827
tp6539
a(F0.6401333900339322
g829
tp6540
asg1139
(lp6541
(F1.0
g1137
tp6542
a(F0.8798654949207018
g1047
tp6543
a(F0.8284783585851503
g927
tp6544
a(F0.7598647659241161
g1143
tp6545
a(F0.514063952860791
g350
tp6546
asg633
(lp6547
(F0.8281544864442598
g635
tp6548
a(F0.8102079572098031
g631
tp6549
a(F0.8011011685776525
g637
tp6550
a(F0.5694312896470358
g390
tp6551
a(F0.5503580170430968
g392
tp6552
asg2721
(lp6553
(F0.781901580488414
g875
tp6554
a(F0.7382747729689589
g879
tp6555
a(F0.6682580877332049
g676
tp6556
a(F0.652357727489673
g2718
tp6557
a(F0.6358880956290602
g877
tp6558
asg168
(lp6559
(F0.7258162367051045
g166
tp6560
a(F0.3708014773617665
g170
tp6561
a(F0.35562193972680645
g172
tp6562
a(F0.32935072029134904
g174
tp6563
a(F0.3084955213643714
g176
tp6564
asg5365
(lp6565
(F0.8356943247106647
g782
tp6566
a(F0.6188520640375029
g776
tp6567
a(F0.6188520640375029
g778
tp6568
a(F0.5342190115886428
g780
tp6569
a(F0.5068316225192556
g784
tp6570
asg2176
(lp6571
(F0.5859427540048157
g896
tp6572
a(F0.5622645523614469
g898
tp6573
a(F0.5601849340169623
g890
tp6574
a(F0.5588594015361555
g892
tp6575
a(F0.5509689068276153
g900
tp6576
asg700
(lp6577
(F0.8059354839942378
g694
tp6578
a(F0.7621750892471234
g692
tp6579
a(F0.7546738800315304
g698
tp6580
a(F0.7052320529824241
g1575
tp6581
a(F0.7005297096242744
g696
tp6582
asS'prayer'
p6583
(lp6584
(F0.45614144326033457
g174
tp6585
a(F0.42658441738756603
g176
tp6586
a(F0.42361521099065647
g305
tp6587
a(F0.420899468506757
g307
tp6588
a(F0.420899468506757
g1012
tp6589
asS'politics'
p6590
(lp6591
(F0.41135504282862945
g580
tp6592
a(F0.3808920124004451
g574
tp6593
a(F0.3760776648260813
g576
tp6594
a(F0.3760776648260813
g578
tp6595
a(F0.35194376708155484
g582
tp6596
asg31
(lp6597
(F0.892727387251827
g33
tp6598
a(F0.8147005184294505
g29
tp6599
a(F0.8119508129047925
g2016
tp6600
a(F0.7491277476471105
g27
tp6601
a(F0.7038767551724847
g25
tp6602
asg2108
(lp6603
(F0.7428465338582287
g152
tp6604
a(F0.6872752466959067
g2106
tp6605
a(F0.6631953298014394
g2110
tp6606
a(F0.6609740830398764
g2112
tp6607
a(F0.6537231535904942
g5178
tp6608
asS'check'
p6609
(lp6610
(F0.6094001920142014
g326
tp6611
a(F0.5863526839455608
g854
tp6612
a(F0.5846377346989374
g2276
tp6613
a(F0.5697156093603075
g322
tp6614
a(F0.5391223871546892
g2391
tp6615
asg592
(lp6616
(F1.0
g590
tp6617
a(F0.8283827770917718
g588
tp6618
a(F0.7643969664818249
g3753
tp6619
a(F0.6417697550437275
g584
tp6620
a(F0.6310832103057775
g996
tp6621
asg812
(lp6622
(F0.6533678602924919
g806
tp6623
a(F0.5614580699507931
g804
tp6624
a(F0.5001148107823562
g808
tp6625
a(F0.49946147448347966
g810
tp6626
a(F0.4899987565899037
g802
tp6627
asg491
(lp6628
(F1.0
g489
tp6629
a(F0.8011677160086139
g2299
tp6630
a(F0.7176684337927463
g2301
tp6631
a(F0.6999396930740803
g2295
tp6632
a(F0.6375993962106948
g295
tp6633
asS'variety'
p6634
(lp6635
(F0.6974250136717814
g211
tp6636
a(F0.6974250136717814
g213
tp6637
a(F0.6469977182758672
g215
tp6638
a(F0.623418328388598
g217
tp6639
a(F0.6175617977706552
g219
tp6640
asg1000
(lp6641
(F1.0
g998
tp6642
a(F0.9077900067824446
g1002
tp6643
a(F0.8426187321538947
g1004
tp6644
a(F0.8059908985617767
g994
tp6645
a(F0.7033541627225943
g996
tp6646
asg532
(lp6647
(F1.0
g2280
tp6648
a(F1.0
g2283
tp6649
a(F1.0
g2285
tp6650
a(F0.5874539711669674
g526
tp6651
a(F0.5771537458938121
g528
tp6652
asg382
(lp6653
(F1.0
g380
tp6654
a(F0.602663457656783
g512
tp6655
a(F0.5923554589323582
g1253
tp6656
a(F0.58677478109146
g1255
tp6657
a(F0.5814230122634463
g1897
tp6658
asS'peace'
p6659
(lp6660
(F0.47502426474603293
g295
tp6661
a(F0.4522853262407412
g297
tp6662
a(F0.442836752562432
g485
tp6663
a(F0.44062936316712337
g487
tp6664
a(F0.42602345538197256
g489
tp6665
asg2457
(lp6666
(F0.6685871764286954
g1272
tp6667
a(F0.6228349338690675
g1278
tp6668
a(F0.6126539484531579
g1280
tp6669
a(F0.611974323166601
g2052
tp6670
a(F0.6022991387970686
g2054
tp6671
asg1058
(lp6672
(F0.7516234128542345
g1056
tp6673
a(F0.7406430340177684
g1060
tp6674
a(F0.682034616728815
g1062
tp6675
a(F0.6818356078878607
g1064
tp6676
a(F0.6614881499791743
g1066
tp6677
asS'actor'
p6678
(lp6679
(F0.46656210181359054
g380
tp6680
a(F0.46656210181359054
g382
tp6681
a(F0.3826481007681644
g512
tp6682
a(F0.37867245696588725
g1253
tp6683
a(F0.3764973239842867
g1255
tp6684
asS'insurance'
p6685
(lp6686
(F0.6739015250562661
g676
tp6687
a(F0.6579322570563404
g875
tp6688
a(F0.6409959561271784
g877
tp6689
a(F0.6157675475641936
g879
tp6690
a(F0.6147533276177987
g881
tp6691
asg5044
(lp6692
(F0.7996463918444419
g1529
tp6693
a(F0.4722001920090366
g174
tp6694
a(F0.4405974781706673
g176
tp6695
a(F0.4374307182550582
g305
tp6696
a(F0.4345355536761964
g307
tp6697
asS'setting'
p6698
(lp6699
(F0.5988514509078082
g1491
tp6700
a(F0.5366942690261567
g1553
tp6701
a(F0.5100976370313858
g1485
tp6702
a(F0.5037137812520498
g1487
tp6703
a(F0.4846435268781117
g1489
tp6704
asg918
(lp6705
(F0.7205671244549523
g912
tp6706
a(F0.7205671244549523
g914
tp6707
a(F0.6725269762312585
g916
tp6708
a(F0.649902750509495
g2889
tp6709
a(F0.6496242989016625
g908
tp6710
asg2262
(lp6711
(F0.8179934018087668
g358
tp6712
a(F0.7008730042376494
g360
tp6713
a(F0.6715441993983029
g602
tp6714
a(F0.6589594064219607
g1352
tp6715
a(F0.6362191973270481
g2260
tp6716
asg875
(lp6717
(F0.9130845644550246
g879
tp6718
a(F0.853107553511927
g676
tp6719
a(F0.801591235249342
g2718
tp6720
a(F0.8010503001797895
g877
tp6721
a(F0.781901580488414
g2721
tp6722
asg358
(lp6723
(F0.841700895197117
g360
tp6724
a(F0.8179934018087668
g2262
tp6725
a(F0.7997544753735867
g602
tp6726
a(F0.7819692582819165
g1352
tp6727
a(F0.7501516330990121
g2260
tp6728
asg629
(lp6729
(F0.6801756420674823
g625
tp6730
a(F0.6436860785032655
g627
tp6731
a(F0.6226223337024053
g619
tp6732
a(F0.6057233369776804
g621
tp6733
a(F0.6017426699632403
g623
tp6734
asg285
(lp6735
(F0.6854650505915346
g154
tp6736
a(F0.6628748047047777
g281
tp6737
a(F0.6300119708271124
g283
tp6738
a(F0.6296307612040832
g276
tp6739
a(F0.6230241683012592
g279
tp6740
asS'governor'
p6741
(lp6742
(F0.6061257229296361
g15
tp6743
a(F0.5743924012442932
g17
tp6744
a(F0.5560497271063535
g19
tp6745
a(F0.5530708011657355
g21
tp6746
a(F0.5332916165536793
g23
tp6747
asg1199
(lp6748
(F0.795582513643724
g1197
tp6749
a(F0.6208090156893484
g1189
tp6750
a(F0.5877766850877073
g1191
tp6751
a(F0.5877766850877073
g1193
tp6752
a(F0.5793678688670111
g1195
tp6753
asg1937
(lp6754
(F0.7545585284808675
g69
tp6755
a(F0.7545585284808675
g71
tp6756
a(F0.7121302167283858
g318
tp6757
a(F0.6520219694360452
g1932
tp6758
a(F0.6142366843859491
g65
tp6759
asS'operation'
p6760
(lp6761
(F0.4959556382175386
g295
tp6762
a(F0.47122079432737635
g297
tp6763
a(F0.4609734701040399
g485
tp6764
a(F0.45858205565973764
g487
tp6765
a(F0.4427830535605829
g489
tp6766
asg843
(lp6767
(F0.8813498027804951
g839
tp6768
a(F0.8553159300407134
g841
tp6769
a(F0.7850639059614851
g837
tp6770
a(F0.6641059385274451
g845
tp6771
a(F0.662475107372083
g847
tp6772
asg960
(lp6773
(F0.7094352576318779
g958
tp6774
a(F0.6121010403837689
g962
tp6775
a(F0.6078953349913999
g964
tp6776
a(F0.5826934419811317
g966
tp6777
a(F0.5826934419811317
g968
tp6778
asg1016
(lp6779
(F0.900742547597462
g1014
tp6780
a(F0.8464730178915186
g1018
tp6781
a(F0.7566610991186128
g1020
tp6782
a(F0.700932726630665
g1022
tp6783
a(F0.6687548960771044
g1024
tp6784
asg684
(lp6785
(F0.6698974438595656
g338
tp6786
a(F0.6282408294633427
g562
tp6787
a(F0.573467775473264
g686
tp6788
a(F0.5725777002423827
g688
tp6789
a(F0.5683103468952244
g1561
tp6790
asS'coverage'
p6791
(lp6792
(F0.7065820655226018
g875
tp6793
a(F0.6636287840290818
g879
tp6794
a(F0.6361482424669704
g676
tp6795
a(F0.6252416565739194
g2718
tp6796
a(F0.6067458402452763
g877
tp6797
asS'variable'
p6798
(lp6799
(F0.48143642840726003
g423
tp6800
a(F0.4602871687422334
g152
tp6801
a(F0.4428742680329055
g146
tp6802
a(F0.4385302789920611
g427
tp6803
a(F0.4346243252386135
g154
tp6804
asS'weekend'
p6805
(lp6806
(F0.5698772909359676
g103
tp6807
a(F0.5069016776944116
g101
tp6808
a(F0.49553042568316347
g105
tp6809
a(F0.46400535163917456
g107
tp6810
a(F0.44778847672126204
g109
tp6811
asS'pool'
p6812
(lp6813
(F0.35062262314836073
g739
tp6814
a(F0.3474435736592869
g184
tp6815
a(F0.3197342299361677
g29
tp6816
a(F0.31964967655644916
g187
tp6817
a(F0.31760490134341174
g227
tp6818
asg243
(lp6819
(F0.6999846536287333
g235
tp6820
a(F0.6924301284367217
g237
tp6821
a(F0.6924301284367217
g239
tp6822
a(F0.6542175827427499
g241
tp6823
a(F0.6218446113198111
g1975
tp6824
asg229
(lp6825
(F0.734413178085743
g227
tp6826
a(F0.6431082638779374
g231
tp6827
a(F0.6431082638779374
g1445
tp6828
a(F0.6272457979746672
g223
tp6829
a(F0.6211536294304937
g1362
tp6830
asg1344
(lp6831
(F0.6666849271949221
g1342
tp6832
a(F0.5722338011869488
g672
tp6833
a(F0.5593977375792526
g674
tp6834
a(F0.5509469703240354
g676
tp6835
a(F0.5379495886112954
g875
tp6836
asg1953
(lp6837
(F1.0
g3312
tp6838
a(F0.6422209523015359
g499
tp6839
a(F0.6293409867927295
g501
tp6840
a(F0.6075943372596682
g358
tp6841
a(F0.6005620292642366
g1951
tp6842
asg657
(lp6843
(F0.7688866196379754
g653
tp6844
a(F0.7497310028140278
g651
tp6845
a(F0.7131389205538505
g655
tp6846
a(F0.6816060457688466
g649
tp6847
a(F0.3958672239575598
g659
tp6848
asg3301
(lp6849
(F0.9669547113705591
g3299
tp6850
a(F0.43756610020394326
g380
tp6851
a(F0.43756610020394326
g382
tp6852
a(F0.3638574053257638
g512
tp6853
a(F0.36026080302143826
g1253
tp6854
asg530
(lp6855
(F0.5991410944998646
g526
tp6856
a(F0.5884306921473673
g528
tp6857
a(F0.5764878987095932
g522
tp6858
a(F0.5764878987095932
g524
tp6859
a(F0.5611012394299089
g532
tp6860
asg1659
(lp6861
(F0.8587953930582967
g1657
tp6862
a(F0.7161096630347286
g1661
tp6863
a(F0.6797972058892191
g1663
tp6864
a(F0.6428792628388408
g1665
tp6865
a(F0.6194952763650432
g1667
tp6866
asS'rule'
p6867
(lp6868
(F0.6003275326024077
g122
tp6869
a(F0.5602567624965837
g128
tp6870
a(F0.5602567624965837
g130
tp6871
a(F0.5383069125649534
g1428
tp6872
a(F0.5292521229235704
g1430
tp6873
asg2593
(lp6874
(F0.6443087245473792
g2588
tp6875
a(F0.6129792496650694
g103
tp6876
a(F0.5349004927493345
g101
tp6877
a(F0.5221281028507405
g105
tp6878
a(F0.4869152572349751
g107
tp6879
asS'time'
p6880
(lp6881
(F0.6103362992459831
g415
tp6882
a(F0.572906689913316
g417
tp6883
a(F0.5625153805643596
g1076
tp6884
a(F0.555155183506345
g1078
tp6885
a(F0.5542912442503907
g1080
tp6886
asS'resolution'
p6887
(lp6888
(F0.614124622603822
g326
tp6889
a(F0.6101678356275763
g322
tp6890
a(F0.5895088406773196
g854
tp6891
a(F0.5876818243662018
g2276
tp6892
a(F0.5620321595003529
g2278
tp6893
asg1228
(lp6894
(F0.8545544596523924
g1224
tp6895
a(F0.8545544596523924
g1226
tp6896
a(F0.6837121156201633
g1230
tp6897
a(F0.6462642075569041
g1232
tp6898
a(F0.5757800538149509
g1234
tp6899
as.