(lp0
Vhttp://www.manythings.org/vocabulary/lists/a/words.php?f=adjectives_for_people_1
p1
aVhttp://www.manythings.org/vocabulary/lists/a/words.php?f=adverbs_of_time_1
p2
aVhttp://www.manythings.org/vocabulary/lists/a/words.php?f=animals_1
p3
aVhttp://www.manythings.org/vocabulary/lists/a/words.php?f=bank_1
p4
aVhttp://www.manythings.org/vocabulary/lists/a/words.php?f=baseball_1
p5
aVhttp://www.manythings.org/vocabulary/lists/a/words.php?f=body_1
p6
aVhttp://www.manythings.org/vocabulary/lists/a/words.php?f=buildings_1
p7
aVhttp://www.manythings.org/vocabulary/lists/a/words.php?f=car_parts_us_1
p8
aVhttp://www.manythings.org/vocabulary/lists/a/words.php?f=city_1
p9
aVhttp://www.manythings.org/vocabulary/lists/a/words.php?f=classroom_1
p10
aVhttp://www.manythings.org/vocabulary/lists/a/words.php?f=clothes_1
p11
aVhttp://www.manythings.org/vocabulary/lists/a/words.php?f=colors-1
p12
aVhttp://www.manythings.org/vocabulary/lists/a/words.php?f=colours-1
p13
aVhttp://www.manythings.org/vocabulary/lists/a/words.php?f=cooking_1
p14
aVhttp://www.manythings.org/vocabulary/lists/a/words.php?f=days_of_the_week
p15
aVhttp://www.manythings.org/vocabulary/lists/a/words.php?f=desserts_1
p16
aVhttp://www.manythings.org/vocabulary/lists/a/words.php?f=dinner_table_1
p17
aVhttp://www.manythings.org/vocabulary/lists/a/words.php?f=family_members
p18
aVhttp://www.manythings.org/vocabulary/lists/a/words.php?f=fruit_1
p19
aVhttp://www.manythings.org/vocabulary/lists/a/words.php?f=geography_1
p20
aVhttp://www.manythings.org/vocabulary/lists/a/words.php?f=house_1
p21
aVhttp://www.manythings.org/vocabulary/lists/a/words.php?f=months
p22
aVhttp://www.manythings.org/vocabulary/lists/a/words.php?f=numbers_1-10
p23
aVhttp://www.manythings.org/vocabulary/lists/a/words.php?f=numbers_1-20
p24
aVhttp://www.manythings.org/vocabulary/lists/a/words.php?f=restaurant_1
p25
aVhttp://www.manythings.org/vocabulary/lists/a/words.php?f=tools_1
p26
aVhttp://www.manythings.org/vocabulary/lists/a/words.php?f=transportation_1
p27
aVhttp://www.manythings.org/vocabulary/lists/a/words.php?f=vegetables_1
p28
aVhttp://www.manythings.org/vocabulary/lists/a/words.php?f=weather-2
p29
aVhttp://www.manythings.org/vocabulary/lists/b/words.php?f=body-1
p30
aVhttp://www.manythings.org/vocabulary/lists/b/words.php?f=colors-1
p31
aVhttp://www.manythings.org/vocabulary/lists/b/words.php?f=colours-1
p32
aVhttp://www.manythings.org/vocabulary/lists/b/words.php?f=days_of_the_week
p33
aVhttp://www.manythings.org/vocabulary/lists/b/words.php?f=months
p34
aVhttp://www.manythings.org/vocabulary/lists/b/words.php?f=numbers_1-10
p35
aVhttp://www.manythings.org/vocabulary/lists/b/words.php?f=numbers_1-20
p36
aVhttp://www.manythings.org/vocabulary/lists/z/words.php?f=business_english_nouns
p37
aVhttp://www.manythings.org/vocabulary/lists/z/words.php?f=business_english_verbs
p38
aVhttp://www.manythings.org/vocabulary/lists/z/words.php?f=computer
p39
aVhttp://www.manythings.org/vocabulary/lists/z/words.php?f=jobs
p40
aVhttp://www.manythings.org/vocabulary/lists/z/words.php?f=job_application
p41
aVhttp://www.manythings.org/vocabulary/lists/c/words.php?f=animals_farm
p42
aVhttp://www.manythings.org/vocabulary/lists/c/words.php?f=animals
p43
aVhttp://www.manythings.org/vocabulary/lists/c/words.php?f=fish
p44
aVhttp://www.manythings.org/vocabulary/lists/c/words.php?f=animals_in_a_zoo
p45
aVhttp://www.manythings.org/vocabulary/lists/c/words.php?f=birds
p46
aVhttp://www.manythings.org/vocabulary/lists/c/words.php?f=cat_breeds
p47
aVhttp://www.manythings.org/vocabulary/lists/c/words.php?f=deadliest_snakes_world
p48
aVhttp://www.manythings.org/vocabulary/lists/c/words.php?f=dog_breeds
p49
aVhttp://www.manythings.org/vocabulary/lists/c/words.php?f=insects
p50
aVhttp://www.manythings.org/vocabulary/lists/c/words.php?f=pets
p51
aVhttp://www.manythings.org/vocabulary/lists/c/words.php?f=rattlesnakes
p52
aVhttp://www.manythings.org/vocabulary/lists/c/words.php?f=snakes
p53
aVhttp://www.manythings.org/vocabulary/lists/c/words.php?f=bugs
p54
aVhttp://www.manythings.org/vocabulary/lists/c/words.php?f=body
p55
aVhttp://www.manythings.org/vocabulary/lists/c/words.php?f=human_teeth
p56
aVhttp://www.manythings.org/vocabulary/lists/c/words.php?f=hair_types
p57
aVhttp://www.manythings.org/vocabulary/lists/c/words.php?f=head
p58
aVhttp://www.manythings.org/vocabulary/lists/c/words.php?f=human_body
p59
aVhttp://www.manythings.org/vocabulary/lists/c/words.php?f=internal_organs
p60
aVhttp://www.manythings.org/vocabulary/lists/c/words.php?f=parts_of_the_hand
p61
aVhttp://www.manythings.org/vocabulary/lists/c/words.php?f=cosmetics
p62
aVhttp://www.manythings.org/vocabulary/lists/c/words.php?f=makeup
p63
aVhttp://www.manythings.org/vocabulary/lists/c/words.php?f=manicure_instruments
p64
aVhttp://www.manythings.org/vocabulary/lists/c/words.php?f=shaving
p65
aVhttp://www.manythings.org/vocabulary/lists/c/words.php?f=parts_of_a_book
p66
aVhttp://www.manythings.org/vocabulary/lists/c/words.php?f=types_of_books
p67
aVhttp://www.manythings.org/vocabulary/lists/c/words.php?f=newspaper
p68
aVhttp://www.manythings.org/vocabulary/lists/c/words.php?f=buildings_in_the_city
p69
aVhttp://www.manythings.org/vocabulary/lists/c/words.php?f=castles
p70
aVhttp://www.manythings.org/vocabulary/lists/c/words.php?f=business_english_nouns
p71
aVhttp://www.manythings.org/vocabulary/lists/c/words.php?f=business_english_verbs
p72
aVhttp://www.manythings.org/vocabulary/lists/c/words.php?f=computer
p73
aVhttp://www.manythings.org/vocabulary/lists/c/words.php?f=jobs
p74
aVhttp://www.manythings.org/vocabulary/lists/c/words.php?f=job_application
p75
aVhttp://www.manythings.org/vocabulary/lists/c/words.php?f=months
p76
aVhttp://www.manythings.org/vocabulary/lists/c/words.php?f=chinese_calendar
p77
aVhttp://www.manythings.org/vocabulary/lists/c/words.php?f=zodiac
p78
aVhttp://www.manythings.org/vocabulary/lists/c/words.php?f=car_parts_uk
p79
aVhttp://www.manythings.org/vocabulary/lists/c/words.php?f=car_parts_us
p80
aVhttp://www.manythings.org/vocabulary/lists/c/words.php?f=outside_of_a_car
p81
aVhttp://www.manythings.org/vocabulary/lists/c/words.php?f=under_the_hood_of_a_car
p82
aVhttp://www.manythings.org/vocabulary/lists/c/words.php?f=car_verbs
p83
aVhttp://www.manythings.org/vocabulary/lists/c/words.php?f=inside_of_a_car
p84
aVhttp://www.manythings.org/vocabulary/lists/c/words.php?f=party_names
p85
aVhttp://www.manythings.org/vocabulary/lists/c/words.php?f=downtown
p86
aVhttp://www.manythings.org/vocabulary/lists/c/words.php?f=post_office
p87
aVhttp://www.manythings.org/vocabulary/lists/c/words.php?f=bank
p88
aVhttp://www.manythings.org/vocabulary/lists/c/words.php?f=city
p89
aVhttp://www.manythings.org/vocabulary/lists/c/words.php?f=clothes
p90
aVhttp://www.manythings.org/vocabulary/lists/c/words.php?f=mens_clothes
p91
aVhttp://www.manythings.org/vocabulary/lists/c/words.php?f=sewing
p92
aVhttp://www.manythings.org/vocabulary/lists/c/words.php?f=shoes
p93
aVhttp://www.manythings.org/vocabulary/lists/c/words.php?f=headgear
p94
aVhttp://www.manythings.org/vocabulary/lists/c/words.php?f=natural_materials_used_in_clothes
p95
aVhttp://www.manythings.org/vocabulary/lists/c/words.php?f=underwear
p96
aVhttp://www.manythings.org/vocabulary/lists/c/words.php?f=colors-1
p97
aVhttp://www.manythings.org/vocabulary/lists/c/words.php?f=colors-2
p98
aVhttp://www.manythings.org/vocabulary/lists/c/words.php?f=colours-1
p99
aVhttp://www.manythings.org/vocabulary/lists/c/words.php?f=colours-2
p100
aVhttp://www.manythings.org/vocabulary/lists/c/words.php?f=networking_computers
p101
aVhttp://www.manythings.org/vocabulary/lists/c/words.php?f=largest_countries_in_population_1-25
p102
aVhttp://www.manythings.org/vocabulary/lists/c/words.php?f=largest_countries_in_population_26-50
p103
aVhttp://www.manythings.org/vocabulary/lists/c/words.php?f=countries_with_largest_armed_forces
p104
aVhttp://www.manythings.org/vocabulary/lists/c/words.php?f=nationalities
p105
aVhttp://www.manythings.org/vocabulary/lists/c/words.php?f=japanese_words_used_in_english
p106
aVhttp://www.manythings.org/vocabulary/lists/c/words.php?f=family_members
p107
aVhttp://www.manythings.org/vocabulary/lists/c/words.php?f=relatives
p108
aVhttp://www.manythings.org/vocabulary/lists/c/words.php?f=family_responsibilities
p109
aVhttp://www.manythings.org/vocabulary/lists/c/words.php?f=catering
p110
aVhttp://www.manythings.org/vocabulary/lists/c/words.php?f=cuts_of_beef
p111
aVhttp://www.manythings.org/vocabulary/lists/c/words.php?f=citrus_fruits
p112
aVhttp://www.manythings.org/vocabulary/lists/c/words.php?f=dinnerware
p113
aVhttp://www.manythings.org/vocabulary/lists/c/words.php?f=fruit
p114
aVhttp://www.manythings.org/vocabulary/lists/c/words.php?f=grains
p115
aVhttp://www.manythings.org/vocabulary/lists/c/words.php?f=kitchen%20knifes
p116
aVhttp://www.manythings.org/vocabulary/lists/c/words.php?f=pasta_types
p117
aVhttp://www.manythings.org/vocabulary/lists/c/words.php?f=breads
p118
aVhttp://www.manythings.org/vocabulary/lists/c/words.php?f=condiments
p119
aVhttp://www.manythings.org/vocabulary/lists/c/words.php?f=desserts
p120
aVhttp://www.manythings.org/vocabulary/lists/c/words.php?f=drinks_and_beverages
p121
aVhttp://www.manythings.org/vocabulary/lists/c/words.php?f=food
p122
aVhttp://www.manythings.org/vocabulary/lists/c/words.php?f=meat
p123
aVhttp://www.manythings.org/vocabulary/lists/c/words.php?f=restaurant_1
p124
aVhttp://www.manythings.org/vocabulary/lists/c/words.php?f=salad_dressing
p125
aVhttp://www.manythings.org/vocabulary/lists/c/words.php?f=vegetables
p126
aVhttp://www.manythings.org/vocabulary/lists/c/words.php?f=diary_products
p127
aVhttp://www.manythings.org/vocabulary/lists/c/words.php?f=food_pyramid
p128
aVhttp://www.manythings.org/vocabulary/lists/c/words.php?f=supermarket_packaging
p129
aVhttp://www.manythings.org/vocabulary/lists/c/words.php?f=bulb_vegetables
p130
aVhttp://www.manythings.org/vocabulary/lists/c/words.php?f=garden_tools
p131
aVhttp://www.manythings.org/vocabulary/lists/c/words.php?f=leaf_vegetables
p132
aVhttp://www.manythings.org/vocabulary/lists/c/words.php?f=root_vegetables
p133
aVhttp://www.manythings.org/vocabulary/lists/c/words.php?f=seed_vegetables
p134
aVhttp://www.manythings.org/vocabulary/lists/c/words.php?f=fruit_trees
p135
aVhttp://www.manythings.org/vocabulary/lists/c/words.php?f=trees
p136
aVhttp://www.manythings.org/vocabulary/lists/c/words.php?f=flowers
p137
aVhttp://www.manythings.org/vocabulary/lists/c/words.php?f=gardening_verbs
p138
aVhttp://www.manythings.org/vocabulary/lists/c/words.php?f=continents
p139
aVhttp://www.manythings.org/vocabulary/lists/c/words.php?f=geographic_features
p140
aVhttp://www.manythings.org/vocabulary/lists/c/words.php?f=adverbs_of_cause
p141
aVhttp://www.manythings.org/vocabulary/lists/c/words.php?f=adverbs_of_place
p142
aVhttp://www.manythings.org/vocabulary/lists/c/words.php?f=adverbs_of_quantity
p143
aVhttp://www.manythings.org/vocabulary/lists/c/words.php?f=adverbs_of_time
p144
aVhttp://www.manythings.org/vocabulary/lists/c/words.php?f=adverbs_before_verbs
p145
aVhttp://www.manythings.org/vocabulary/lists/c/words.php?f=compound_words
p146
aVhttp://www.manythings.org/vocabulary/lists/c/words.php?f=frequency
p147
aVhttp://www.manythings.org/vocabulary/lists/c/words.php?f=prepositions
p148
aVhttp://www.manythings.org/vocabulary/lists/c/words.php?f=prepositions_longer_list.
p149
aVhttp://www.manythings.org/vocabulary/lists/c/words.php?f=punctuation_marks
p150
aVhttp://www.manythings.org/vocabulary/lists/c/words.php?f=dental_care
p151
aVhttp://www.manythings.org/vocabulary/lists/c/words.php?f=injuries
p152
aVhttp://www.manythings.org/vocabulary/lists/c/words.php?f=aches_and_pains
p153
aVhttp://www.manythings.org/vocabulary/lists/c/words.php?f=people_in_hospitals
p154
aVhttp://www.manythings.org/vocabulary/lists/c/words.php?f=holidays
p155
aVhttp://www.manythings.org/vocabulary/lists/c/words.php?f=christmas_general
p156
aVhttp://www.manythings.org/vocabulary/lists/c/words.php?f=christmas_religious
p157
aVhttp://www.manythings.org/vocabulary/lists/c/words.php?f=food_at_christmas
p158
aVhttp://www.manythings.org/vocabulary/lists/c/words.php?f=halloween
p159
aVhttp://www.manythings.org/vocabulary/lists/c/words.php?f=new_years_day
p160
aVhttp://www.manythings.org/vocabulary/lists/c/words.php?f=saint_patricks_day
p161
aVhttp://www.manythings.org/vocabulary/lists/c/words.php?f=thanksgiving
p162
aVhttp://www.manythings.org/vocabulary/lists/c/words.php?f=valentines_day
p163
aVhttp://www.manythings.org/vocabulary/lists/c/words.php?f=building_material
p164
aVhttp://www.manythings.org/vocabulary/lists/c/words.php?f=house
p165
aVhttp://www.manythings.org/vocabulary/lists/c/words.php?f=refrigerator
p166
aVhttp://www.manythings.org/vocabulary/lists/c/words.php?f=rooms_in_a_house
p167
aVhttp://www.manythings.org/vocabulary/lists/c/words.php?f=types_of_houses
p168
aVhttp://www.manythings.org/vocabulary/lists/c/words.php?f=types_of_roofs
p169
aVhttp://www.manythings.org/vocabulary/lists/c/words.php?f=woodburning_stoves
p170
aVhttp://www.manythings.org/vocabulary/lists/c/words.php?f=furniture_in_a_house
p171
aVhttp://www.manythings.org/vocabulary/lists/c/words.php?f=things_in_a_house
p172
aVhttp://www.manythings.org/vocabulary/lists/c/words.php?f=fire_fighting
p173
aVhttp://www.manythings.org/vocabulary/lists/c/words.php?f=languages
p174
aVhttp://www.manythings.org/vocabulary/lists/c/words.php?f=crime_verbs
p175
aVhttp://www.manythings.org/vocabulary/lists/c/words.php?f=crime
p176
aVhttp://www.manythings.org/vocabulary/lists/c/words.php?f=crimes
p177
aVhttp://www.manythings.org/vocabulary/lists/c/words.php?f=criminals
p178
aVhttp://www.manythings.org/vocabulary/lists/c/words.php?f=justice_system
p179
aVhttp://www.manythings.org/vocabulary/lists/c/words.php?f=shapes
p180
aVhttp://www.manythings.org/vocabulary/lists/c/words.php?f=math_angles
p181
aVhttp://www.manythings.org/vocabulary/lists/c/words.php?f=measuring_time
p182
aVhttp://www.manythings.org/vocabulary/lists/c/words.php?f=numbers_1-10
p183
aVhttp://www.manythings.org/vocabulary/lists/c/words.php?f=numbers_1-20
p184
aVhttp://www.manythings.org/vocabulary/lists/c/words.php?f=numbers_20-40
p185
aVhttp://www.manythings.org/vocabulary/lists/c/words.php?f=measurements
p186
aVhttp://www.manythings.org/vocabulary/lists/c/words.php?f=smoking
p187
aVhttp://www.manythings.org/vocabulary/lists/c/words.php?f=paying_bills
p188
aVhttp://www.manythings.org/vocabulary/lists/c/words.php?f=money_used_in_the_usa
p189
aVhttp://www.manythings.org/vocabulary/lists/c/words.php?f=music
p190
aVhttp://www.manythings.org/vocabulary/lists/c/words.php?f=musical_instruments
p191
aVhttp://www.manythings.org/vocabulary/lists/c/words.php?f=brass_instruments
p192
aVhttp://www.manythings.org/vocabulary/lists/c/words.php?f=percussion_instruments
p193
aVhttp://www.manythings.org/vocabulary/lists/c/words.php?f=woodwind_instruments.
p194
aVhttp://www.manythings.org/vocabulary/lists/c/words.php?f=symphony_orchestra_instruments
p195
aVhttp://www.manythings.org/vocabulary/lists/c/words.php?f=stationery
p196
aVhttp://www.manythings.org/vocabulary/lists/c/words.php?f=telephone
p197
aVhttp://www.manythings.org/vocabulary/lists/c/words.php?f=bicycle_parts
p198
aVhttp://www.manythings.org/vocabulary/lists/c/words.php?f=gasoline_engine_parts
p199
aVhttp://www.manythings.org/vocabulary/lists/c/words.php?f=motorcycle_parts
p200
aVhttp://www.manythings.org/vocabulary/lists/c/words.php?f=parts_of_books
p201
aVhttp://www.manythings.org/vocabulary/lists/c/words.php?f=adjectives_for_people.
p202
aVhttp://www.manythings.org/vocabulary/lists/c/words.php?f=cowboys
p203
aVhttp://www.manythings.org/vocabulary/lists/c/words.php?f=people_in_education
p204
aVhttp://www.manythings.org/vocabulary/lists/c/words.php?f=words_pronounced_differently
p205
aVhttp://www.manythings.org/vocabulary/lists/c/words.php?f=degrees_in_education
p206
aVhttp://www.manythings.org/vocabulary/lists/c/words.php?f=education
p207
aVhttp://www.manythings.org/vocabulary/lists/c/words.php?f=school_rooms
p208
aVhttp://www.manythings.org/vocabulary/lists/c/words.php?f=school_subjects
p209
aVhttp://www.manythings.org/vocabulary/lists/c/words.php?f=people_in_school
p210
aVhttp://www.manythings.org/vocabulary/lists/c/words.php?f=types_of_schools
p211
aVhttp://www.manythings.org/vocabulary/lists/c/words.php?f=university_subjects
p212
aVhttp://www.manythings.org/vocabulary/lists/c/words.php?f=tests
p213
aVhttp://www.manythings.org/vocabulary/lists/c/words.php?f=gases
p214
aVhttp://www.manythings.org/vocabulary/lists/c/words.php?f=liquids
p215
aVhttp://www.manythings.org/vocabulary/lists/c/words.php?f=metals
p216
aVhttp://www.manythings.org/vocabulary/lists/c/words.php?f=materials
p217
aVhttp://www.manythings.org/vocabulary/lists/c/words.php?f=winter
p218
aVhttp://www.manythings.org/vocabulary/lists/c/words.php?f=weapons
p219
aVhttp://www.manythings.org/vocabulary/lists/c/words.php?f=sports
p220
aVhttp://www.manythings.org/vocabulary/lists/c/words.php?f=baseball
p221
aVhttp://www.manythings.org/vocabulary/lists/c/words.php?f=baseball_1
p222
aVhttp://www.manythings.org/vocabulary/lists/c/words.php?f=baseball_pitches
p223
aVhttp://www.manythings.org/vocabulary/lists/c/words.php?f=baseball_positions
p224
aVhttp://www.manythings.org/vocabulary/lists/c/words.php?f=baseball_verbs
p225
aVhttp://www.manythings.org/vocabulary/lists/c/words.php?f=football_positions
p226
aVhttp://www.manythings.org/vocabulary/lists/c/words.php?f=olympic_sports
p227
aVhttp://www.manythings.org/vocabulary/lists/c/words.php?f=sports_played_with_ball
p228
aVhttp://www.manythings.org/vocabulary/lists/c/words.php?f=sportswear
p229
aVhttp://www.manythings.org/vocabulary/lists/c/words.php?f=swimming
p230
aVhttp://www.manythings.org/vocabulary/lists/c/words.php?f=swimming_strokes
p231
aVhttp://www.manythings.org/vocabulary/lists/c/words.php?f=days_of_the_week
p232
aVhttp://www.manythings.org/vocabulary/lists/c/words.php?f=carpentry_tools
p233
aVhttp://www.manythings.org/vocabulary/lists/c/words.php?f=farm_machinery
p234
aVhttp://www.manythings.org/vocabulary/lists/c/words.php?f=ladders
p235
aVhttp://www.manythings.org/vocabulary/lists/c/words.php?f=plumbing_tools
p236
aVhttp://www.manythings.org/vocabulary/lists/c/words.php?f=woodworking_tools
p237
aVhttp://www.manythings.org/vocabulary/lists/c/words.php?f=aircraft
p238
aVhttp://www.manythings.org/vocabulary/lists/c/words.php?f=land_transportation
p239
aVhttp://www.manythings.org/vocabulary/lists/c/words.php?f=types_of_ships
p240
aVhttp://www.manythings.org/vocabulary/lists/c/words.php?f=vehicles
p241
aVhttp://www.manythings.org/vocabulary/lists/c/words.php?f=water_transportation
p242
aVhttp://www.manythings.org/vocabulary/lists/c/words.php?f=airport_departure_and_arrival
p243
aVhttp://www.manythings.org/vocabulary/lists/c/words.php?f=harbor
p244
aVhttp://www.manythings.org/vocabulary/lists/c/words.php?f=hotel
p245
aVhttp://www.manythings.org/vocabulary/lists/c/words.php?f=luggage
p246
aVhttp://www.manythings.org/vocabulary/lists/c/words.php?f=weather
p247
aVhttp://www.manythings.org/vocabulary/lists/c/words.php?f=weather-2
p248
aVhttp://www.manythings.org/vocabulary/lists/c/words.php?f=words_ending_in_ful
p249
aVhttp://www.manythings.org/vocabulary/lists/c/words.php?f=words_ending_in_less
p250
aVhttp://www.manythings.org/vocabulary/lists/c/words.php?f=imaginary_people_and_animals
p251
aVhttp://www.manythings.org/vocabulary/lists/e/words.php?f=building_material
p252
aVhttp://www.manythings.org/vocabulary/lists/e/words.php?f=house
p253
aVhttp://www.manythings.org/vocabulary/lists/e/words.php?f=refrigerator
p254
aVhttp://www.manythings.org/vocabulary/lists/e/words.php?f=rooms_in_a_house
p255
aVhttp://www.manythings.org/vocabulary/lists/e/words.php?f=types_of_houses
p256
aVhttp://www.manythings.org/vocabulary/lists/e/words.php?f=types_of_roofs
p257
aVhttp://www.manythings.org/vocabulary/lists/e/words.php?f=woodburning_stoves
p258
aVhttp://www.manythings.org/vocabulary/lists/e/words.php?f=furniture_in_a_house
p259
aVhttp://www.manythings.org/vocabulary/lists/e/words.php?f=house_in_around_the_house
p260
aVhttp://www.manythings.org/vocabulary/lists/e/words.php?f=things in_a_living_room
p261
aVhttp://www.manythings.org/vocabulary/lists/e/words.php?f=things-in_a_in_bathroom
p262
aVhttp://www.manythings.org/vocabulary/lists/e/words.php?f=things-in_a_in_bedroom
p263
aVhttp://www.manythings.org/vocabulary/lists/e/words.php?f=things-in_a_in_garage
p264
aVhttp://www.manythings.org/vocabulary/lists/e/words.php?f=things-in_a_in_kitchen
p265
aVhttp://www.manythings.org/vocabulary/lists/e/words.php?f=things-in_a_in_yard
p266
aVhttp://www.manythings.org/vocabulary/lists/e/words.php?f=places_in_and_around_house_2
p267
aVhttp://www.manythings.org/vocabulary/lists/e/words.php?f=buildings_in_the_city
p268
aVhttp://www.manythings.org/vocabulary/lists/e/words.php?f=buildings_city
p269
aVhttp://www.manythings.org/vocabulary/lists/e/words.php?f=castles
p270
aVhttp://www.manythings.org/vocabulary/lists/e/words.php?f=city_various
p271
aVhttp://www.manythings.org/vocabulary/lists/e/words.php?f=animals_farm
p272
aVhttp://www.manythings.org/vocabulary/lists/e/words.php?f=animals
p273
aVhttp://www.manythings.org/vocabulary/lists/e/words.php?f=fish
p274
aVhttp://www.manythings.org/vocabulary/lists/e/words.php?f=animals_in_a_zoo
p275
aVhttp://www.manythings.org/vocabulary/lists/e/words.php?f=birds
p276
aVhttp://www.manythings.org/vocabulary/lists/e/words.php?f=cat_breeds
p277
aVhttp://www.manythings.org/vocabulary/lists/e/words.php?f=deadliest_snakes_world
p278
aVhttp://www.manythings.org/vocabulary/lists/e/words.php?f=dog_breeds
p279
aVhttp://www.manythings.org/vocabulary/lists/e/words.php?f=insects
p280
aVhttp://www.manythings.org/vocabulary/lists/e/words.php?f=pets
p281
aVhttp://www.manythings.org/vocabulary/lists/e/words.php?f=rattlesnakes
p282
aVhttp://www.manythings.org/vocabulary/lists/e/words.php?f=snakes
p283
aVhttp://www.manythings.org/vocabulary/lists/e/words.php?f=bugs
p284
aVhttp://www.manythings.org/vocabulary/lists/e/words.php?f=body
p285
aVhttp://www.manythings.org/vocabulary/lists/e/words.php?f=human_teeth
p286
aVhttp://www.manythings.org/vocabulary/lists/e/words.php?f=head
p287
aVhttp://www.manythings.org/vocabulary/lists/e/words.php?f=human_body
p288
aVhttp://www.manythings.org/vocabulary/lists/e/words.php?f=internal_organs
p289
aVhttp://www.manythings.org/vocabulary/lists/e/words.php?f=parts_of_the_hand
p290
aVhttp://www.manythings.org/vocabulary/lists/e/words.php?f=dental_care
p291
aVhttp://www.manythings.org/vocabulary/lists/e/words.php?f=injuries
p292
aVhttp://www.manythings.org/vocabulary/lists/e/words.php?f=smoking
p293
aVhttp://www.manythings.org/vocabulary/lists/e/words.php?f=aches_and_pains
p294
aVhttp://www.manythings.org/vocabulary/lists/e/words.php?f=people_in_hospitals
p295
aVhttp://www.manythings.org/vocabulary/lists/e/words.php?f=books_parts
p296
aVhttp://www.manythings.org/vocabulary/lists/e/words.php?f=types_of_books
p297
aVhttp://www.manythings.org/vocabulary/lists/e/words.php?f=car_parts_uk
p298
aVhttp://www.manythings.org/vocabulary/lists/e/words.php?f=car_parts_us
p299
aVhttp://www.manythings.org/vocabulary/lists/e/words.php?f=car_outside_of
p300
aVhttp://www.manythings.org/vocabulary/lists/e/words.php?f=car_under_the_hood
p301
aVhttp://www.manythings.org/vocabulary/lists/e/words.php?f=car_verbs
p302
aVhttp://www.manythings.org/vocabulary/lists/e/words.php?f=cars_inside_of
p303
aVhttp://www.manythings.org/vocabulary/lists/e/words.php?f=party_names
p304
aVhttp://www.manythings.org/vocabulary/lists/e/words.php?f=artificial_materials
p305
aVhttp://www.manythings.org/vocabulary/lists/e/words.php?f=mens_clothes
p306
aVhttp://www.manythings.org/vocabulary/lists/e/words.php?f=sewing
p307
aVhttp://www.manythings.org/vocabulary/lists/e/words.php?f=types_of_shoes
p308
aVhttp://www.manythings.org/vocabulary/lists/e/words.php?f=clothes_general
p309
aVhttp://www.manythings.org/vocabulary/lists/e/words.php?f=clothes_various
p310
aVhttp://www.manythings.org/vocabulary/lists/e/words.php?f=footwear
p311
aVhttp://www.manythings.org/vocabulary/lists/e/words.php?f=headgear
p312
aVhttp://www.manythings.org/vocabulary/lists/e/words.php?f=natural_materials_in_clothes
p313
aVhttp://www.manythings.org/vocabulary/lists/e/words.php?f=patterns_in_clothes
p314
aVhttp://www.manythings.org/vocabulary/lists/e/words.php?f=underwear
p315
aVhttp://www.manythings.org/vocabulary/lists/e/words.php?f=computer
p316
aVhttp://www.manythings.org/vocabulary/lists/e/words.php?f=networking_computers
p317
aVhttp://www.manythings.org/vocabulary/lists/e/words.php?f=beef_cuts_of
p318
aVhttp://www.manythings.org/vocabulary/lists/e/words.php?f=citrus_fruits
p319
aVhttp://www.manythings.org/vocabulary/lists/e/words.php?f=dinnerware
p320
aVhttp://www.manythings.org/vocabulary/lists/e/words.php?f=fruit
p321
aVhttp://www.manythings.org/vocabulary/lists/e/words.php?f=grains
p322
aVhttp://www.manythings.org/vocabulary/lists/e/words.php?f=kitchen%20knifes
p323
aVhttp://www.manythings.org/vocabulary/lists/e/words.php?f=pasta_types
p324
aVhttp://www.manythings.org/vocabulary/lists/e/words.php?f=breads
p325
aVhttp://www.manythings.org/vocabulary/lists/e/words.php?f=condiments
p326
aVhttp://www.manythings.org/vocabulary/lists/e/words.php?f=desserts
p327
aVhttp://www.manythings.org/vocabulary/lists/e/words.php?f=drinks_and_beverages
p328
aVhttp://www.manythings.org/vocabulary/lists/e/words.php?f=food
p329
aVhttp://www.manythings.org/vocabulary/lists/e/words.php?f=fruits
p330
aVhttp://www.manythings.org/vocabulary/lists/e/words.php?f=meat
p331
aVhttp://www.manythings.org/vocabulary/lists/e/words.php?f=salad_dressing
p332
aVhttp://www.manythings.org/vocabulary/lists/e/words.php?f=vegetables
p333
aVhttp://www.manythings.org/vocabulary/lists/e/words.php?f=diary_products
p334
aVhttp://www.manythings.org/vocabulary/lists/e/words.php?f=food_pyramid
p335
aVhttp://www.manythings.org/vocabulary/lists/e/words.php?f=supermarket_packaging
p336
aVhttp://www.manythings.org/vocabulary/lists/e/words.php?f=bulb_vegetables
p337
aVhttp://www.manythings.org/vocabulary/lists/e/words.php?f=garden_tools
p338
aVhttp://www.manythings.org/vocabulary/lists/e/words.php?f=leaf_vegetables
p339
aVhttp://www.manythings.org/vocabulary/lists/e/words.php?f=root_vegetables
p340
aVhttp://www.manythings.org/vocabulary/lists/e/words.php?f=seed_vegetables
p341
aVhttp://www.manythings.org/vocabulary/lists/e/words.php?f=tree_fruit
p342
aVhttp://www.manythings.org/vocabulary/lists/e/words.php?f=tree_general
p343
aVhttp://www.manythings.org/vocabulary/lists/e/words.php?f=flowers
p344
aVhttp://www.manythings.org/vocabulary/lists/e/words.php?f=gardening_verbs
p345
aVhttp://www.manythings.org/vocabulary/lists/e/words.php?f=fire_fighting
p346
aVhttp://www.manythings.org/vocabulary/lists/e/words.php?f=crime_verbs
p347
aVhttp://www.manythings.org/vocabulary/lists/e/words.php?f=crime
p348
aVhttp://www.manythings.org/vocabulary/lists/e/words.php?f=crimes
p349
aVhttp://www.manythings.org/vocabulary/lists/e/words.php?f=criminals
p350
aVhttp://www.manythings.org/vocabulary/lists/e/words.php?f=justice_system
p351
aVhttp://www.manythings.org/vocabulary/lists/e/words.php?f=shapes
p352
aVhttp://www.manythings.org/vocabulary/lists/e/words.php?f=math_angles
p353
aVhttp://www.manythings.org/vocabulary/lists/e/words.php?f=measuring_time
p354
aVhttp://www.manythings.org/vocabulary/lists/e/words.php?f=numbers_1-20
p355
aVhttp://www.manythings.org/vocabulary/lists/e/words.php?f=numbers_20-40
p356
aVhttp://www.manythings.org/vocabulary/lists/e/words.php?f=measurements
p357
aVhttp://www.manythings.org/vocabulary/lists/e/words.php?f=aircraft
p358
aVhttp://www.manythings.org/vocabulary/lists/e/words.php?f=paying_bills
p359
aVhttp://www.manythings.org/vocabulary/lists/e/words.php?f=road-signs
p360
aVhttp://www.manythings.org/vocabulary/lists/e/words.php?f=stationery
p361
aVhttp://www.manythings.org/vocabulary/lists/e/words.php?f=imaginary_people_and_animals
p362
aVhttp://www.manythings.org/vocabulary/lists/e/words.php?f=newspaper
p363
aVhttp://www.manythings.org/vocabulary/lists/e/words.php?f=telephone
p364
aVhttp://www.manythings.org/vocabulary/lists/e/words.php?f=tests
p365
aVhttp://www.manythings.org/vocabulary/lists/e/words.php?f=music
p366
aVhttp://www.manythings.org/vocabulary/lists/e/words.php?f=music_brass_instruments
p367
aVhttp://www.manythings.org/vocabulary/lists/e/words.php?f=music_instruments
p368
aVhttp://www.manythings.org/vocabulary/lists/e/words.php?f=music_percussion_instruments
p369
aVhttp://www.manythings.org/vocabulary/lists/e/words.php?f=music_woodwind_instruments.
p370
aVhttp://www.manythings.org/vocabulary/lists/e/words.php?f=symphony_orchestra_instruments
p371
aVhttp://www.manythings.org/vocabulary/lists/e/words.php?f=adjectives_for_people.
p372
aVhttp://www.manythings.org/vocabulary/lists/e/words.php?f=cowboys
p373
aVhttp://www.manythings.org/vocabulary/lists/e/words.php?f=people_in_education
p374
aVhttp://www.manythings.org/vocabulary/lists/e/words.php?f=bicycle_parts
p375
aVhttp://www.manythings.org/vocabulary/lists/e/words.php?f=gasoline_engine_parts
p376
aVhttp://www.manythings.org/vocabulary/lists/e/words.php?f=motorcycle_parts
p377
aVhttp://www.manythings.org/vocabulary/lists/e/words.php?f=parts_of_books
p378
aVhttp://www.manythings.org/vocabulary/lists/e/words.php?f=degrees_in_education
p379
aVhttp://www.manythings.org/vocabulary/lists/e/words.php?f=education_general
p380
aVhttp://www.manythings.org/vocabulary/lists/e/words.php?f=bulletin_boards
p381
aVhttp://www.manythings.org/vocabulary/lists/e/words.php?f=classroom_expressions
p382
aVhttp://www.manythings.org/vocabulary/lists/e/words.php?f=school_rooms
p383
aVhttp://www.manythings.org/vocabulary/lists/e/words.php?f=school_subjects
p384
aVhttp://www.manythings.org/vocabulary/lists/e/words.php?f=people_in_school
p385
aVhttp://www.manythings.org/vocabulary/lists/e/words.php?f=types_of_schools
p386
aVhttp://www.manythings.org/vocabulary/lists/e/words.php?f=university_subjects
p387
aVhttp://www.manythings.org/vocabulary/lists/e/words.php?f=things-in_a_classroom
p388
aVhttp://www.manythings.org/vocabulary/lists/e/words.php?f=things-in_a_library
p389
aVhttp://www.manythings.org/vocabulary/lists/e/words.php?f=materials
p390
aVhttp://www.manythings.org/vocabulary/lists/e/words.php?f=winter
p391
aVhttp://www.manythings.org/vocabulary/lists/e/words.php?f=weapons
p392
aVhttp://www.manythings.org/vocabulary/lists/e/words.php?f=baseball_general
p393
aVhttp://www.manythings.org/vocabulary/lists/e/words.php?f=baseball_pitches
p394
aVhttp://www.manythings.org/vocabulary/lists/e/words.php?f=baseball_positions
p395
aVhttp://www.manythings.org/vocabulary/lists/e/words.php?f=baseball_verbs
p396
aVhttp://www.manythings.org/vocabulary/lists/e/words.php?f=football_positions
p397
aVhttp://www.manythings.org/vocabulary/lists/e/words.php?f=olympic_sports
p398
aVhttp://www.manythings.org/vocabulary/lists/e/words.php?f=sports_played_with_ball
p399
aVhttp://www.manythings.org/vocabulary/lists/e/words.php?f=sports
p400
aVhttp://www.manythings.org/vocabulary/lists/e/words.php?f=sportswear
p401
aVhttp://www.manythings.org/vocabulary/lists/e/words.php?f=swimming_strokes
p402
aVhttp://www.manythings.org/vocabulary/lists/e/words.php?f=swimming
p403
aVhttp://www.manythings.org/vocabulary/lists/e/words.php?f=days_week
p404
aVhttp://www.manythings.org/vocabulary/lists/e/words.php?f=time
p405
aVhttp://www.manythings.org/vocabulary/lists/e/words.php?f=zodiac
p406
aVhttp://www.manythings.org/vocabulary/lists/e/words.php?f=carpentry_tools
p407
aVhttp://www.manythings.org/vocabulary/lists/e/words.php?f=farm_machinery
p408
aVhttp://www.manythings.org/vocabulary/lists/e/words.php?f=ladders
p409
aVhttp://www.manythings.org/vocabulary/lists/e/words.php?f=plumbing_tools
p410
aVhttp://www.manythings.org/vocabulary/lists/e/words.php?f=woodworking_power_tools
p411
aVhttp://www.manythings.org/vocabulary/lists/e/words.php?f=woodworking_tools_power
p412
aVhttp://www.manythings.org/vocabulary/lists/e/words.php?f=woodworking_tools2
p413
aVhttp://www.manythings.org/vocabulary/lists/e/words.php?f=luggage
p414
aVhttp://www.manythings.org/vocabulary/lists/e/words.php?f=harbor_transportation
p415
aVhttp://www.manythings.org/vocabulary/lists/e/words.php?f=land_transportation
p416
aVhttp://www.manythings.org/vocabulary/lists/e/words.php?f=road_signs
p417
aVhttp://www.manythings.org/vocabulary/lists/e/words.php?f=ship_types
p418
aVhttp://www.manythings.org/vocabulary/lists/e/words.php?f=travel_departure_arrival
p419
aVhttp://www.manythings.org/vocabulary/lists/e/words.php?f=travel_hotel
p420
aVhttp://www.manythings.org/vocabulary/lists/e/words.php?f=vehicles_types
p421
aVhttp://www.manythings.org/vocabulary/lists/e/words.php?f=water_transportation
p422
aVhttp://www.manythings.org/vocabulary/lists/e/words.php?f=world_currencies
p423
aVhttp://www.manythings.org/vocabulary/lists/e/words.php?f=weather
p424
aVhttp://www.manythings.org/vocabulary/lists/e/words.php?f=weather-2
p425
aVhttp://www.manythings.org/vocabulary/lists/e/words.php?f=weather_related_words
p426
aVhttp://www.manythings.org/vocabulary/lists/e/words.php?f=words_ending_in_ful
p427
aVhttp://www.manythings.org/vocabulary/lists/e/words.php?f=words_ending_in_less
p428
a.